ARM GAS  C:\Users\IAHERN~1\AppData\Local\Temp\ccP26j2c.s 			page 1


   1              		.cpu cortex-m4
   2              		.arch armv7e-m
   3              		.fpu fpv4-sp-d16
   4              		.eabi_attribute 27, 1
   5              		.eabi_attribute 28, 1
   6              		.eabi_attribute 20, 1
   7              		.eabi_attribute 21, 1
   8              		.eabi_attribute 23, 3
   9              		.eabi_attribute 24, 1
  10              		.eabi_attribute 25, 1
  11              		.eabi_attribute 26, 1
  12              		.eabi_attribute 30, 1
  13              		.eabi_attribute 34, 1
  14              		.eabi_attribute 18, 4
  15              		.file	"bluenrg1_gatt_aci.c"
  16              		.text
  17              	.Ltext0:
  18              		.cfi_sections	.debug_frame
  19              		.file 1 "Middlewares/ST/BlueNRG-2/hci/controller/bluenrg1_gatt_aci.c"
  20              		.section	.text.aci_gatt_init,"ax",%progbits
  21              		.align	1
  22              		.global	aci_gatt_init
  23              		.syntax unified
  24              		.thumb
  25              		.thumb_func
  27              	aci_gatt_init:
  28              	.LFB137:
   1:Middlewares/ST/BlueNRG-2/hci/controller/bluenrg1_gatt_aci.c **** /**
   2:Middlewares/ST/BlueNRG-2/hci/controller/bluenrg1_gatt_aci.c ****   ******************************************************************************
   3:Middlewares/ST/BlueNRG-2/hci/controller/bluenrg1_gatt_aci.c ****   * @file    bluenrg1_gatt_aci.c
   4:Middlewares/ST/BlueNRG-2/hci/controller/bluenrg1_gatt_aci.c ****   * @author  AMG - RF Application team
   5:Middlewares/ST/BlueNRG-2/hci/controller/bluenrg1_gatt_aci.c ****   * @brief   Source file for external uC - BlueNRG-x in network coprocessor mode
   6:Middlewares/ST/BlueNRG-2/hci/controller/bluenrg1_gatt_aci.c ****   *          (gatt_aci)
   7:Middlewares/ST/BlueNRG-2/hci/controller/bluenrg1_gatt_aci.c ****   *          Autogenerated files, do not edit!!
   8:Middlewares/ST/BlueNRG-2/hci/controller/bluenrg1_gatt_aci.c ****   ******************************************************************************
   9:Middlewares/ST/BlueNRG-2/hci/controller/bluenrg1_gatt_aci.c ****   * @attention
  10:Middlewares/ST/BlueNRG-2/hci/controller/bluenrg1_gatt_aci.c ****   *
  11:Middlewares/ST/BlueNRG-2/hci/controller/bluenrg1_gatt_aci.c ****   * Copyright (c) 2020 STMicroelectronics.
  12:Middlewares/ST/BlueNRG-2/hci/controller/bluenrg1_gatt_aci.c ****   * All rights reserved.
  13:Middlewares/ST/BlueNRG-2/hci/controller/bluenrg1_gatt_aci.c ****   *
  14:Middlewares/ST/BlueNRG-2/hci/controller/bluenrg1_gatt_aci.c ****   * This software is licensed under terms that can be found in the LICENSE file
  15:Middlewares/ST/BlueNRG-2/hci/controller/bluenrg1_gatt_aci.c ****   * in the root directory of this software component.
  16:Middlewares/ST/BlueNRG-2/hci/controller/bluenrg1_gatt_aci.c ****   * If no LICENSE file comes with this software, it is provided AS-IS.
  17:Middlewares/ST/BlueNRG-2/hci/controller/bluenrg1_gatt_aci.c ****   *
  18:Middlewares/ST/BlueNRG-2/hci/controller/bluenrg1_gatt_aci.c ****   ******************************************************************************
  19:Middlewares/ST/BlueNRG-2/hci/controller/bluenrg1_gatt_aci.c ****   */
  20:Middlewares/ST/BlueNRG-2/hci/controller/bluenrg1_gatt_aci.c **** #include "ble_types.h"
  21:Middlewares/ST/BlueNRG-2/hci/controller/bluenrg1_gatt_aci.c **** #include "bluenrg1_gatt_aci.h"
  22:Middlewares/ST/BlueNRG-2/hci/controller/bluenrg1_gatt_aci.c **** tBleStatus aci_gatt_init(void)
  23:Middlewares/ST/BlueNRG-2/hci/controller/bluenrg1_gatt_aci.c **** {
  29              		.loc 1 23 1 view -0
  30              		.cfi_startproc
  31              		@ args = 0, pretend = 0, frame = 32
  32              		@ frame_needed = 0, uses_anonymous_args = 0
  33 0000 00B5     		push	{lr}
  34              		.cfi_def_cfa_offset 4
  35              		.cfi_offset 14, -4
ARM GAS  C:\Users\IAHERN~1\AppData\Local\Temp\ccP26j2c.s 			page 2


  36 0002 89B0     		sub	sp, sp, #36
  37              		.cfi_def_cfa_offset 40
  24:Middlewares/ST/BlueNRG-2/hci/controller/bluenrg1_gatt_aci.c ****   struct hci_request rq;
  38              		.loc 1 24 3 view .LVU1
  25:Middlewares/ST/BlueNRG-2/hci/controller/bluenrg1_gatt_aci.c ****   tBleStatus status = 0;
  39              		.loc 1 25 3 view .LVU2
  40              		.loc 1 25 14 is_stmt 0 view .LVU3
  41 0004 0021     		movs	r1, #0
  42 0006 8DF80710 		strb	r1, [sp, #7]
  26:Middlewares/ST/BlueNRG-2/hci/controller/bluenrg1_gatt_aci.c ****   BLUENRG_memset(&rq, 0, sizeof(rq));
  43              		.loc 1 26 3 is_stmt 1 view .LVU4
  44 000a 0291     		str	r1, [sp, #8]
  45 000c 0391     		str	r1, [sp, #12]
  46 000e 0491     		str	r1, [sp, #16]
  47 0010 0591     		str	r1, [sp, #20]
  48 0012 0691     		str	r1, [sp, #24]
  49 0014 0791     		str	r1, [sp, #28]
  27:Middlewares/ST/BlueNRG-2/hci/controller/bluenrg1_gatt_aci.c ****   rq.ogf = 0x3f;
  50              		.loc 1 27 3 view .LVU5
  51              		.loc 1 27 10 is_stmt 0 view .LVU6
  52 0016 3F23     		movs	r3, #63
  53 0018 ADF80830 		strh	r3, [sp, #8]	@ movhi
  28:Middlewares/ST/BlueNRG-2/hci/controller/bluenrg1_gatt_aci.c ****   rq.ocf = 0x101;
  54              		.loc 1 28 3 is_stmt 1 view .LVU7
  55              		.loc 1 28 10 is_stmt 0 view .LVU8
  56 001c 40F20113 		movw	r3, #257
  57 0020 ADF80A30 		strh	r3, [sp, #10]	@ movhi
  29:Middlewares/ST/BlueNRG-2/hci/controller/bluenrg1_gatt_aci.c ****   rq.rparam = &status;
  58              		.loc 1 29 3 is_stmt 1 view .LVU9
  59              		.loc 1 29 13 is_stmt 0 view .LVU10
  60 0024 0DF10703 		add	r3, sp, #7
  61 0028 0693     		str	r3, [sp, #24]
  30:Middlewares/ST/BlueNRG-2/hci/controller/bluenrg1_gatt_aci.c ****   rq.rlen = 1;
  62              		.loc 1 30 3 is_stmt 1 view .LVU11
  63              		.loc 1 30 11 is_stmt 0 view .LVU12
  64 002a 0123     		movs	r3, #1
  65 002c 0793     		str	r3, [sp, #28]
  31:Middlewares/ST/BlueNRG-2/hci/controller/bluenrg1_gatt_aci.c ****   if (hci_send_req(&rq, FALSE) < 0)
  66              		.loc 1 31 3 is_stmt 1 view .LVU13
  67              		.loc 1 31 7 is_stmt 0 view .LVU14
  68 002e 02A8     		add	r0, sp, #8
  69 0030 FFF7FEFF 		bl	hci_send_req
  70              	.LVL0:
  71              		.loc 1 31 6 discriminator 1 view .LVU15
  72 0034 0028     		cmp	r0, #0
  73 0036 04DB     		blt	.L3
  32:Middlewares/ST/BlueNRG-2/hci/controller/bluenrg1_gatt_aci.c ****     return BLE_STATUS_TIMEOUT;
  33:Middlewares/ST/BlueNRG-2/hci/controller/bluenrg1_gatt_aci.c ****   if (status) {
  74              		.loc 1 33 3 is_stmt 1 view .LVU16
  75              		.loc 1 33 7 is_stmt 0 view .LVU17
  76 0038 9DF80700 		ldrb	r0, [sp, #7]	@ zero_extendqisi2
  77              	.L2:
  34:Middlewares/ST/BlueNRG-2/hci/controller/bluenrg1_gatt_aci.c ****     return status;
  35:Middlewares/ST/BlueNRG-2/hci/controller/bluenrg1_gatt_aci.c ****   }
  36:Middlewares/ST/BlueNRG-2/hci/controller/bluenrg1_gatt_aci.c ****   return BLE_STATUS_SUCCESS;
  37:Middlewares/ST/BlueNRG-2/hci/controller/bluenrg1_gatt_aci.c **** }
  78              		.loc 1 37 1 view .LVU18
ARM GAS  C:\Users\IAHERN~1\AppData\Local\Temp\ccP26j2c.s 			page 3


  79 003c 09B0     		add	sp, sp, #36
  80              		.cfi_remember_state
  81              		.cfi_def_cfa_offset 4
  82              		@ sp needed
  83 003e 5DF804FB 		ldr	pc, [sp], #4
  84              	.L3:
  85              		.cfi_restore_state
  32:Middlewares/ST/BlueNRG-2/hci/controller/bluenrg1_gatt_aci.c ****     return BLE_STATUS_TIMEOUT;
  86              		.loc 1 32 12 view .LVU19
  87 0042 FF20     		movs	r0, #255
  88 0044 FAE7     		b	.L2
  89              		.cfi_endproc
  90              	.LFE137:
  92              		.section	.text.aci_gatt_add_service,"ax",%progbits
  93              		.align	1
  94              		.global	aci_gatt_add_service
  95              		.syntax unified
  96              		.thumb
  97              		.thumb_func
  99              	aci_gatt_add_service:
 100              	.LVL1:
 101              	.LFB138:
  38:Middlewares/ST/BlueNRG-2/hci/controller/bluenrg1_gatt_aci.c **** tBleStatus aci_gatt_add_service(uint8_t Service_UUID_Type,
  39:Middlewares/ST/BlueNRG-2/hci/controller/bluenrg1_gatt_aci.c ****                                 Service_UUID_t *Service_UUID,
  40:Middlewares/ST/BlueNRG-2/hci/controller/bluenrg1_gatt_aci.c ****                                 uint8_t Service_Type,
  41:Middlewares/ST/BlueNRG-2/hci/controller/bluenrg1_gatt_aci.c ****                                 uint8_t Max_Attribute_Records,
  42:Middlewares/ST/BlueNRG-2/hci/controller/bluenrg1_gatt_aci.c ****                                 uint16_t *Service_Handle)
  43:Middlewares/ST/BlueNRG-2/hci/controller/bluenrg1_gatt_aci.c **** {
 102              		.loc 1 43 1 is_stmt 1 view -0
 103              		.cfi_startproc
 104              		@ args = 4, pretend = 0, frame = 288
 105              		@ frame_needed = 0, uses_anonymous_args = 0
 106              		.loc 1 43 1 is_stmt 0 view .LVU21
 107 0000 F0B5     		push	{r4, r5, r6, r7, lr}
 108              		.cfi_def_cfa_offset 20
 109              		.cfi_offset 4, -20
 110              		.cfi_offset 5, -16
 111              		.cfi_offset 6, -12
 112              		.cfi_offset 7, -8
 113              		.cfi_offset 14, -4
 114 0002 C9B0     		sub	sp, sp, #292
 115              		.cfi_def_cfa_offset 312
 116 0004 1646     		mov	r6, r2
 117 0006 1D46     		mov	r5, r3
  44:Middlewares/ST/BlueNRG-2/hci/controller/bluenrg1_gatt_aci.c ****   struct hci_request rq;
 118              		.loc 1 44 3 is_stmt 1 view .LVU22
  45:Middlewares/ST/BlueNRG-2/hci/controller/bluenrg1_gatt_aci.c ****   uint8_t cmd_buffer[258];
 119              		.loc 1 45 3 view .LVU23
  46:Middlewares/ST/BlueNRG-2/hci/controller/bluenrg1_gatt_aci.c ****   aci_gatt_add_service_cp0 *cp0 = (aci_gatt_add_service_cp0*)(cmd_buffer);
 120              		.loc 1 46 3 view .LVU24
 121              	.LVL2:
  47:Middlewares/ST/BlueNRG-2/hci/controller/bluenrg1_gatt_aci.c ****   aci_gatt_add_service_cp1 *cp1 = (aci_gatt_add_service_cp1*)(cmd_buffer + 1 + (Service_UUID_Type =
 122              		.loc 1 47 3 view .LVU25
 123              		.loc 1 47 78 is_stmt 0 view .LVU26
 124 0008 0128     		cmp	r0, #1
 125 000a 13D0     		beq	.L9
 126              		.loc 1 47 78 discriminator 1 view .LVU27
ARM GAS  C:\Users\IAHERN~1\AppData\Local\Temp\ccP26j2c.s 			page 4


 127 000c 0228     		cmp	r0, #2
 128 000e 0FD0     		beq	.L15
 129              		.loc 1 47 78 discriminator 4 view .LVU28
 130 0010 0124     		movs	r4, #1
 131              	.L6:
 132              		.loc 1 47 29 discriminator 8 view .LVU29
 133 0012 01AB     		add	r3, sp, #4
 134              	.LVL3:
 135              		.loc 1 47 29 discriminator 8 view .LVU30
 136 0014 1C44     		add	r4, r4, r3
 137              	.LVL4:
  48:Middlewares/ST/BlueNRG-2/hci/controller/bluenrg1_gatt_aci.c ****   aci_gatt_add_service_rp0 resp;
 138              		.loc 1 48 3 is_stmt 1 view .LVU31
  49:Middlewares/ST/BlueNRG-2/hci/controller/bluenrg1_gatt_aci.c ****   BLUENRG_memset(&resp, 0, sizeof(resp));
 139              		.loc 1 49 3 view .LVU32
 140 0016 0023     		movs	r3, #0
 141              	.LVL5:
 142              		.loc 1 49 3 is_stmt 0 view .LVU33
 143 0018 ADF80030 		strh	r3, [sp]	@ movhi
 144 001c 8DF80230 		strb	r3, [sp, #2]
  50:Middlewares/ST/BlueNRG-2/hci/controller/bluenrg1_gatt_aci.c ****   uint8_t index_input = 0;
 145              		.loc 1 50 3 is_stmt 1 view .LVU34
 146              	.LVL6:
  51:Middlewares/ST/BlueNRG-2/hci/controller/bluenrg1_gatt_aci.c ****   cp0->Service_UUID_Type = htob(Service_UUID_Type, 1);
 147              		.loc 1 51 3 view .LVU35
 148              		.loc 1 51 26 is_stmt 0 view .LVU36
 149 0020 8DF80400 		strb	r0, [sp, #4]
  52:Middlewares/ST/BlueNRG-2/hci/controller/bluenrg1_gatt_aci.c ****   index_input += 1;
 150              		.loc 1 52 3 is_stmt 1 view .LVU37
 151              	.LVL7:
 152              	.LBB2:
  53:Middlewares/ST/BlueNRG-2/hci/controller/bluenrg1_gatt_aci.c ****   /* var_len_data input */
  54:Middlewares/ST/BlueNRG-2/hci/controller/bluenrg1_gatt_aci.c ****   {
  55:Middlewares/ST/BlueNRG-2/hci/controller/bluenrg1_gatt_aci.c ****     uint8_t size;
 153              		.loc 1 55 5 view .LVU38
  56:Middlewares/ST/BlueNRG-2/hci/controller/bluenrg1_gatt_aci.c ****     switch (Service_UUID_Type) {
 154              		.loc 1 56 5 view .LVU39
 155 0024 0128     		cmp	r0, #1
 156 0026 07D0     		beq	.L11
 157              		.loc 1 56 5 is_stmt 0 view .LVU40
 158 0028 0228     		cmp	r0, #2
 159 002a 31D1     		bne	.L12
  57:Middlewares/ST/BlueNRG-2/hci/controller/bluenrg1_gatt_aci.c ****       case 1: size = 2; break;
  58:Middlewares/ST/BlueNRG-2/hci/controller/bluenrg1_gatt_aci.c ****       case 2: size = 16; break;
 160              		.loc 1 58 20 view .LVU41
 161 002c 1027     		movs	r7, #16
 162 002e 04E0     		b	.L7
 163              	.LVL8:
 164              	.L15:
 165              		.loc 1 58 20 view .LVU42
 166              	.LBE2:
  47:Middlewares/ST/BlueNRG-2/hci/controller/bluenrg1_gatt_aci.c ****   aci_gatt_add_service_rp0 resp;
 167              		.loc 1 47 78 discriminator 3 view .LVU43
 168 0030 1124     		movs	r4, #17
 169 0032 EEE7     		b	.L6
 170              	.L9:
  47:Middlewares/ST/BlueNRG-2/hci/controller/bluenrg1_gatt_aci.c ****   aci_gatt_add_service_rp0 resp;
ARM GAS  C:\Users\IAHERN~1\AppData\Local\Temp\ccP26j2c.s 			page 5


 171              		.loc 1 47 78 discriminator 2 view .LVU44
 172 0034 0324     		movs	r4, #3
 173 0036 ECE7     		b	.L6
 174              	.LVL9:
 175              	.L11:
 176              	.LBB3:
  56:Middlewares/ST/BlueNRG-2/hci/controller/bluenrg1_gatt_aci.c ****     switch (Service_UUID_Type) {
 177              		.loc 1 56 5 view .LVU45
 178 0038 0227     		movs	r7, #2
 179              	.L7:
 180              	.LVL10:
  59:Middlewares/ST/BlueNRG-2/hci/controller/bluenrg1_gatt_aci.c ****       default: return BLE_STATUS_ERROR;
  60:Middlewares/ST/BlueNRG-2/hci/controller/bluenrg1_gatt_aci.c ****     }
  61:Middlewares/ST/BlueNRG-2/hci/controller/bluenrg1_gatt_aci.c ****     BLUENRG_memcpy((void *) &cp0->Service_UUID, (const void *) Service_UUID, size);
 181              		.loc 1 61 5 is_stmt 1 view .LVU46
 182 003a 3A46     		mov	r2, r7
 183              	.LVL11:
 184              		.loc 1 61 5 is_stmt 0 view .LVU47
 185 003c 0DF10500 		add	r0, sp, #5
 186              	.LVL12:
 187              		.loc 1 61 5 view .LVU48
 188 0040 FFF7FEFF 		bl	memcpy
 189              	.LVL13:
  62:Middlewares/ST/BlueNRG-2/hci/controller/bluenrg1_gatt_aci.c ****     index_input += size;
 190              		.loc 1 62 5 is_stmt 1 view .LVU49
  63:Middlewares/ST/BlueNRG-2/hci/controller/bluenrg1_gatt_aci.c ****     {
  64:Middlewares/ST/BlueNRG-2/hci/controller/bluenrg1_gatt_aci.c ****       cp1->Service_Type = htob(Service_Type, 1);
 191              		.loc 1 64 7 view .LVU50
 192              		.loc 1 64 25 is_stmt 0 view .LVU51
 193 0044 2670     		strb	r6, [r4]
  65:Middlewares/ST/BlueNRG-2/hci/controller/bluenrg1_gatt_aci.c ****     }
  66:Middlewares/ST/BlueNRG-2/hci/controller/bluenrg1_gatt_aci.c ****     index_input += 1;
 194              		.loc 1 66 5 is_stmt 1 view .LVU52
 195              	.LVL14:
  67:Middlewares/ST/BlueNRG-2/hci/controller/bluenrg1_gatt_aci.c ****     {
  68:Middlewares/ST/BlueNRG-2/hci/controller/bluenrg1_gatt_aci.c ****       cp1->Max_Attribute_Records = htob(Max_Attribute_Records, 1);
 196              		.loc 1 68 7 view .LVU53
 197              		.loc 1 68 34 is_stmt 0 view .LVU54
 198 0046 6570     		strb	r5, [r4, #1]
  69:Middlewares/ST/BlueNRG-2/hci/controller/bluenrg1_gatt_aci.c ****     }
  70:Middlewares/ST/BlueNRG-2/hci/controller/bluenrg1_gatt_aci.c ****     index_input += 1;
 199              		.loc 1 70 5 is_stmt 1 view .LVU55
 200              		.loc 1 70 17 is_stmt 0 view .LVU56
 201 0048 0337     		adds	r7, r7, #3
 202              	.LVL15:
 203              		.loc 1 70 17 view .LVU57
 204              	.LBE3:
  71:Middlewares/ST/BlueNRG-2/hci/controller/bluenrg1_gatt_aci.c ****   }
  72:Middlewares/ST/BlueNRG-2/hci/controller/bluenrg1_gatt_aci.c ****   BLUENRG_memset(&rq, 0, sizeof(rq));
 205              		.loc 1 72 3 is_stmt 1 view .LVU58
 206 004a 0021     		movs	r1, #0
 207 004c 4291     		str	r1, [sp, #264]
 208 004e 4391     		str	r1, [sp, #268]
 209 0050 4491     		str	r1, [sp, #272]
 210 0052 4591     		str	r1, [sp, #276]
 211 0054 4691     		str	r1, [sp, #280]
 212 0056 4791     		str	r1, [sp, #284]
ARM GAS  C:\Users\IAHERN~1\AppData\Local\Temp\ccP26j2c.s 			page 6


  73:Middlewares/ST/BlueNRG-2/hci/controller/bluenrg1_gatt_aci.c ****   rq.ogf = 0x3f;
 213              		.loc 1 73 3 view .LVU59
 214              		.loc 1 73 10 is_stmt 0 view .LVU60
 215 0058 3F23     		movs	r3, #63
 216 005a ADF80831 		strh	r3, [sp, #264]	@ movhi
  74:Middlewares/ST/BlueNRG-2/hci/controller/bluenrg1_gatt_aci.c ****   rq.ocf = 0x102;
 217              		.loc 1 74 3 is_stmt 1 view .LVU61
 218              		.loc 1 74 10 is_stmt 0 view .LVU62
 219 005e 4FF48173 		mov	r3, #258
 220 0062 ADF80A31 		strh	r3, [sp, #266]	@ movhi
  75:Middlewares/ST/BlueNRG-2/hci/controller/bluenrg1_gatt_aci.c ****   rq.cparam = cmd_buffer;
 221              		.loc 1 75 3 is_stmt 1 view .LVU63
 222              		.loc 1 75 13 is_stmt 0 view .LVU64
 223 0066 01AB     		add	r3, sp, #4
 224              	.LVL16:
 225              		.loc 1 75 13 view .LVU65
 226 0068 4493     		str	r3, [sp, #272]
  76:Middlewares/ST/BlueNRG-2/hci/controller/bluenrg1_gatt_aci.c ****   rq.clen = index_input;
 227              		.loc 1 76 3 is_stmt 1 view .LVU66
 228              		.loc 1 76 11 is_stmt 0 view .LVU67
 229 006a 4597     		str	r7, [sp, #276]
  77:Middlewares/ST/BlueNRG-2/hci/controller/bluenrg1_gatt_aci.c ****   rq.rparam = &resp;
 230              		.loc 1 77 3 is_stmt 1 view .LVU68
 231              		.loc 1 77 13 is_stmt 0 view .LVU69
 232 006c CDF818D1 		str	sp, [sp, #280]
  78:Middlewares/ST/BlueNRG-2/hci/controller/bluenrg1_gatt_aci.c ****   rq.rlen = sizeof(resp);
 233              		.loc 1 78 3 is_stmt 1 view .LVU70
 234              		.loc 1 78 11 is_stmt 0 view .LVU71
 235 0070 0323     		movs	r3, #3
 236              	.LVL17:
 237              		.loc 1 78 11 view .LVU72
 238 0072 4793     		str	r3, [sp, #284]
  79:Middlewares/ST/BlueNRG-2/hci/controller/bluenrg1_gatt_aci.c ****   if (hci_send_req(&rq, FALSE) < 0)
 239              		.loc 1 79 3 is_stmt 1 view .LVU73
 240              		.loc 1 79 7 is_stmt 0 view .LVU74
 241 0074 42A8     		add	r0, sp, #264
 242 0076 FFF7FEFF 		bl	hci_send_req
 243              	.LVL18:
 244              		.loc 1 79 6 discriminator 1 view .LVU75
 245 007a 0028     		cmp	r0, #0
 246 007c 0ADB     		blt	.L13
  80:Middlewares/ST/BlueNRG-2/hci/controller/bluenrg1_gatt_aci.c ****     return BLE_STATUS_TIMEOUT;
  81:Middlewares/ST/BlueNRG-2/hci/controller/bluenrg1_gatt_aci.c ****   if (resp.Status) {
 247              		.loc 1 81 3 is_stmt 1 view .LVU76
 248              		.loc 1 81 11 is_stmt 0 view .LVU77
 249 007e 9DF80000 		ldrb	r0, [sp]	@ zero_extendqisi2
 250              		.loc 1 81 6 view .LVU78
 251 0082 18B9     		cbnz	r0, .L8
  82:Middlewares/ST/BlueNRG-2/hci/controller/bluenrg1_gatt_aci.c ****     return resp.Status;
  83:Middlewares/ST/BlueNRG-2/hci/controller/bluenrg1_gatt_aci.c ****   }
  84:Middlewares/ST/BlueNRG-2/hci/controller/bluenrg1_gatt_aci.c ****   *Service_Handle = btoh(resp.Service_Handle, 2);
 252              		.loc 1 84 3 is_stmt 1 view .LVU79
 253              		.loc 1 84 21 is_stmt 0 view .LVU80
 254 0084 BDF80120 		ldrh	r2, [sp, #1]	@ unaligned
 255              		.loc 1 84 19 view .LVU81
 256 0088 4E9B     		ldr	r3, [sp, #312]
 257 008a 1A80     		strh	r2, [r3]	@ movhi
ARM GAS  C:\Users\IAHERN~1\AppData\Local\Temp\ccP26j2c.s 			page 7


  85:Middlewares/ST/BlueNRG-2/hci/controller/bluenrg1_gatt_aci.c ****   return BLE_STATUS_SUCCESS;
 258              		.loc 1 85 3 is_stmt 1 view .LVU82
 259              	.LVL19:
 260              	.L8:
  86:Middlewares/ST/BlueNRG-2/hci/controller/bluenrg1_gatt_aci.c **** }
 261              		.loc 1 86 1 is_stmt 0 view .LVU83
 262 008c 49B0     		add	sp, sp, #292
 263              		.cfi_remember_state
 264              		.cfi_def_cfa_offset 20
 265              		@ sp needed
 266 008e F0BD     		pop	{r4, r5, r6, r7, pc}
 267              	.LVL20:
 268              	.L12:
 269              		.cfi_restore_state
 270              	.LBB4:
  56:Middlewares/ST/BlueNRG-2/hci/controller/bluenrg1_gatt_aci.c ****       case 1: size = 2; break;
 271              		.loc 1 56 5 view .LVU84
 272 0090 4720     		movs	r0, #71
 273              	.LVL21:
  56:Middlewares/ST/BlueNRG-2/hci/controller/bluenrg1_gatt_aci.c ****       case 1: size = 2; break;
 274              		.loc 1 56 5 view .LVU85
 275 0092 FBE7     		b	.L8
 276              	.LVL22:
 277              	.L13:
  56:Middlewares/ST/BlueNRG-2/hci/controller/bluenrg1_gatt_aci.c ****       case 1: size = 2; break;
 278              		.loc 1 56 5 view .LVU86
 279              	.LBE4:
  80:Middlewares/ST/BlueNRG-2/hci/controller/bluenrg1_gatt_aci.c ****   if (resp.Status) {
 280              		.loc 1 80 12 view .LVU87
 281 0094 FF20     		movs	r0, #255
 282 0096 F9E7     		b	.L8
 283              		.cfi_endproc
 284              	.LFE138:
 286              		.section	.text.aci_gatt_include_service,"ax",%progbits
 287              		.align	1
 288              		.global	aci_gatt_include_service
 289              		.syntax unified
 290              		.thumb
 291              		.thumb_func
 293              	aci_gatt_include_service:
 294              	.LVL23:
 295              	.LFB139:
  87:Middlewares/ST/BlueNRG-2/hci/controller/bluenrg1_gatt_aci.c **** tBleStatus aci_gatt_include_service(uint16_t Service_Handle,
  88:Middlewares/ST/BlueNRG-2/hci/controller/bluenrg1_gatt_aci.c ****                                     uint16_t Include_Start_Handle,
  89:Middlewares/ST/BlueNRG-2/hci/controller/bluenrg1_gatt_aci.c ****                                     uint16_t Include_End_Handle,
  90:Middlewares/ST/BlueNRG-2/hci/controller/bluenrg1_gatt_aci.c ****                                     uint8_t Include_UUID_Type,
  91:Middlewares/ST/BlueNRG-2/hci/controller/bluenrg1_gatt_aci.c ****                                     Include_UUID_t *Include_UUID,
  92:Middlewares/ST/BlueNRG-2/hci/controller/bluenrg1_gatt_aci.c ****                                     uint16_t *Include_Handle)
  93:Middlewares/ST/BlueNRG-2/hci/controller/bluenrg1_gatt_aci.c **** {
 296              		.loc 1 93 1 is_stmt 1 view -0
 297              		.cfi_startproc
 298              		@ args = 8, pretend = 0, frame = 288
 299              		@ frame_needed = 0, uses_anonymous_args = 0
 300              		.loc 1 93 1 is_stmt 0 view .LVU89
 301 0000 10B5     		push	{r4, lr}
 302              		.cfi_def_cfa_offset 8
 303              		.cfi_offset 4, -8
ARM GAS  C:\Users\IAHERN~1\AppData\Local\Temp\ccP26j2c.s 			page 8


 304              		.cfi_offset 14, -4
 305 0002 C8B0     		sub	sp, sp, #288
 306              		.cfi_def_cfa_offset 296
  94:Middlewares/ST/BlueNRG-2/hci/controller/bluenrg1_gatt_aci.c ****   struct hci_request rq;
 307              		.loc 1 94 3 is_stmt 1 view .LVU90
  95:Middlewares/ST/BlueNRG-2/hci/controller/bluenrg1_gatt_aci.c ****   uint8_t cmd_buffer[258];
 308              		.loc 1 95 3 view .LVU91
  96:Middlewares/ST/BlueNRG-2/hci/controller/bluenrg1_gatt_aci.c ****   aci_gatt_include_service_cp0 *cp0 = (aci_gatt_include_service_cp0*)(cmd_buffer);
 309              		.loc 1 96 3 view .LVU92
 310              	.LVL24:
  97:Middlewares/ST/BlueNRG-2/hci/controller/bluenrg1_gatt_aci.c ****   aci_gatt_include_service_rp0 resp;
 311              		.loc 1 97 3 view .LVU93
  98:Middlewares/ST/BlueNRG-2/hci/controller/bluenrg1_gatt_aci.c ****   BLUENRG_memset(&resp, 0, sizeof(resp));
 312              		.loc 1 98 3 view .LVU94
 313 0004 0024     		movs	r4, #0
 314 0006 ADF80040 		strh	r4, [sp]	@ movhi
 315 000a 8DF80240 		strb	r4, [sp, #2]
  99:Middlewares/ST/BlueNRG-2/hci/controller/bluenrg1_gatt_aci.c ****   uint8_t index_input = 0;
 316              		.loc 1 99 3 view .LVU95
 317              	.LVL25:
 100:Middlewares/ST/BlueNRG-2/hci/controller/bluenrg1_gatt_aci.c ****   cp0->Service_Handle = htob(Service_Handle, 2);
 318              		.loc 1 100 3 view .LVU96
 319              		.loc 1 100 23 is_stmt 0 view .LVU97
 320 000e ADF80400 		strh	r0, [sp, #4]	@ movhi
 101:Middlewares/ST/BlueNRG-2/hci/controller/bluenrg1_gatt_aci.c ****   index_input += 2;
 321              		.loc 1 101 3 is_stmt 1 view .LVU98
 322              	.LVL26:
 102:Middlewares/ST/BlueNRG-2/hci/controller/bluenrg1_gatt_aci.c ****   cp0->Include_Start_Handle = htob(Include_Start_Handle, 2);
 323              		.loc 1 102 3 view .LVU99
 324              		.loc 1 102 29 is_stmt 0 view .LVU100
 325 0012 ADF80610 		strh	r1, [sp, #6]	@ movhi
 103:Middlewares/ST/BlueNRG-2/hci/controller/bluenrg1_gatt_aci.c ****   index_input += 2;
 326              		.loc 1 103 3 is_stmt 1 view .LVU101
 327              	.LVL27:
 104:Middlewares/ST/BlueNRG-2/hci/controller/bluenrg1_gatt_aci.c ****   cp0->Include_End_Handle = htob(Include_End_Handle, 2);
 328              		.loc 1 104 3 view .LVU102
 329              		.loc 1 104 27 is_stmt 0 view .LVU103
 330 0016 ADF80820 		strh	r2, [sp, #8]	@ movhi
 105:Middlewares/ST/BlueNRG-2/hci/controller/bluenrg1_gatt_aci.c ****   index_input += 2;
 331              		.loc 1 105 3 is_stmt 1 view .LVU104
 332              	.LVL28:
 106:Middlewares/ST/BlueNRG-2/hci/controller/bluenrg1_gatt_aci.c ****   cp0->Include_UUID_Type = htob(Include_UUID_Type, 1);
 333              		.loc 1 106 3 view .LVU105
 334              		.loc 1 106 26 is_stmt 0 view .LVU106
 335 001a 8DF80A30 		strb	r3, [sp, #10]
 107:Middlewares/ST/BlueNRG-2/hci/controller/bluenrg1_gatt_aci.c ****   index_input += 1;
 336              		.loc 1 107 3 is_stmt 1 view .LVU107
 337              	.LVL29:
 338              	.LBB5:
 108:Middlewares/ST/BlueNRG-2/hci/controller/bluenrg1_gatt_aci.c ****   /* var_len_data input */
 109:Middlewares/ST/BlueNRG-2/hci/controller/bluenrg1_gatt_aci.c ****   {
 110:Middlewares/ST/BlueNRG-2/hci/controller/bluenrg1_gatt_aci.c ****     uint8_t size;
 339              		.loc 1 110 5 view .LVU108
 111:Middlewares/ST/BlueNRG-2/hci/controller/bluenrg1_gatt_aci.c ****     switch (Include_UUID_Type) {
 340              		.loc 1 111 5 view .LVU109
 341 001e 012B     		cmp	r3, #1
 342 0020 03D0     		beq	.L19
ARM GAS  C:\Users\IAHERN~1\AppData\Local\Temp\ccP26j2c.s 			page 9


 343 0022 022B     		cmp	r3, #2
 344 0024 2CD1     		bne	.L20
 112:Middlewares/ST/BlueNRG-2/hci/controller/bluenrg1_gatt_aci.c ****       case 1: size = 2; break;
 113:Middlewares/ST/BlueNRG-2/hci/controller/bluenrg1_gatt_aci.c ****       case 2: size = 16; break;
 345              		.loc 1 113 20 is_stmt 0 view .LVU110
 346 0026 1024     		movs	r4, #16
 347 0028 00E0     		b	.L17
 348              	.L19:
 111:Middlewares/ST/BlueNRG-2/hci/controller/bluenrg1_gatt_aci.c ****     switch (Include_UUID_Type) {
 349              		.loc 1 111 5 view .LVU111
 350 002a 0224     		movs	r4, #2
 351              	.L17:
 352              	.LVL30:
 114:Middlewares/ST/BlueNRG-2/hci/controller/bluenrg1_gatt_aci.c ****       default: return BLE_STATUS_ERROR;
 115:Middlewares/ST/BlueNRG-2/hci/controller/bluenrg1_gatt_aci.c ****     }
 116:Middlewares/ST/BlueNRG-2/hci/controller/bluenrg1_gatt_aci.c ****     BLUENRG_memcpy((void *) &cp0->Include_UUID, (const void *) Include_UUID, size);
 353              		.loc 1 116 5 is_stmt 1 view .LVU112
 354 002c 2246     		mov	r2, r4
 355              	.LVL31:
 356              		.loc 1 116 5 is_stmt 0 view .LVU113
 357 002e 4A99     		ldr	r1, [sp, #296]
 358              	.LVL32:
 359              		.loc 1 116 5 view .LVU114
 360 0030 0DF10B00 		add	r0, sp, #11
 361              	.LVL33:
 362              		.loc 1 116 5 view .LVU115
 363 0034 FFF7FEFF 		bl	memcpy
 364              	.LVL34:
 117:Middlewares/ST/BlueNRG-2/hci/controller/bluenrg1_gatt_aci.c ****     index_input += size;
 365              		.loc 1 117 5 is_stmt 1 view .LVU116
 366              		.loc 1 117 17 is_stmt 0 view .LVU117
 367 0038 0734     		adds	r4, r4, #7
 368              	.LVL35:
 369              		.loc 1 117 17 view .LVU118
 370              	.LBE5:
 118:Middlewares/ST/BlueNRG-2/hci/controller/bluenrg1_gatt_aci.c ****   }
 119:Middlewares/ST/BlueNRG-2/hci/controller/bluenrg1_gatt_aci.c ****   BLUENRG_memset(&rq, 0, sizeof(rq));
 371              		.loc 1 119 3 is_stmt 1 view .LVU119
 372 003a 0021     		movs	r1, #0
 373 003c 4291     		str	r1, [sp, #264]
 374 003e 4391     		str	r1, [sp, #268]
 375 0040 4491     		str	r1, [sp, #272]
 376 0042 4591     		str	r1, [sp, #276]
 377 0044 4691     		str	r1, [sp, #280]
 378 0046 4791     		str	r1, [sp, #284]
 120:Middlewares/ST/BlueNRG-2/hci/controller/bluenrg1_gatt_aci.c ****   rq.ogf = 0x3f;
 379              		.loc 1 120 3 view .LVU120
 380              		.loc 1 120 10 is_stmt 0 view .LVU121
 381 0048 3F23     		movs	r3, #63
 382 004a ADF80831 		strh	r3, [sp, #264]	@ movhi
 121:Middlewares/ST/BlueNRG-2/hci/controller/bluenrg1_gatt_aci.c ****   rq.ocf = 0x103;
 383              		.loc 1 121 3 is_stmt 1 view .LVU122
 384              		.loc 1 121 10 is_stmt 0 view .LVU123
 385 004e 40F20313 		movw	r3, #259
 386 0052 ADF80A31 		strh	r3, [sp, #266]	@ movhi
 122:Middlewares/ST/BlueNRG-2/hci/controller/bluenrg1_gatt_aci.c ****   rq.cparam = cmd_buffer;
 387              		.loc 1 122 3 is_stmt 1 view .LVU124
ARM GAS  C:\Users\IAHERN~1\AppData\Local\Temp\ccP26j2c.s 			page 10


 388              		.loc 1 122 13 is_stmt 0 view .LVU125
 389 0056 01AB     		add	r3, sp, #4
 390              	.LVL36:
 391              		.loc 1 122 13 view .LVU126
 392 0058 4493     		str	r3, [sp, #272]
 123:Middlewares/ST/BlueNRG-2/hci/controller/bluenrg1_gatt_aci.c ****   rq.clen = index_input;
 393              		.loc 1 123 3 is_stmt 1 view .LVU127
 394              		.loc 1 123 11 is_stmt 0 view .LVU128
 395 005a 4594     		str	r4, [sp, #276]
 124:Middlewares/ST/BlueNRG-2/hci/controller/bluenrg1_gatt_aci.c ****   rq.rparam = &resp;
 396              		.loc 1 124 3 is_stmt 1 view .LVU129
 397              		.loc 1 124 13 is_stmt 0 view .LVU130
 398 005c CDF818D1 		str	sp, [sp, #280]
 125:Middlewares/ST/BlueNRG-2/hci/controller/bluenrg1_gatt_aci.c ****   rq.rlen = sizeof(resp);
 399              		.loc 1 125 3 is_stmt 1 view .LVU131
 400              		.loc 1 125 11 is_stmt 0 view .LVU132
 401 0060 0323     		movs	r3, #3
 402              	.LVL37:
 403              		.loc 1 125 11 view .LVU133
 404 0062 4793     		str	r3, [sp, #284]
 126:Middlewares/ST/BlueNRG-2/hci/controller/bluenrg1_gatt_aci.c ****   if (hci_send_req(&rq, FALSE) < 0)
 405              		.loc 1 126 3 is_stmt 1 view .LVU134
 406              		.loc 1 126 7 is_stmt 0 view .LVU135
 407 0064 42A8     		add	r0, sp, #264
 408 0066 FFF7FEFF 		bl	hci_send_req
 409              	.LVL38:
 410              		.loc 1 126 6 discriminator 1 view .LVU136
 411 006a 0028     		cmp	r0, #0
 412 006c 0ADB     		blt	.L21
 127:Middlewares/ST/BlueNRG-2/hci/controller/bluenrg1_gatt_aci.c ****     return BLE_STATUS_TIMEOUT;
 128:Middlewares/ST/BlueNRG-2/hci/controller/bluenrg1_gatt_aci.c ****   if (resp.Status) {
 413              		.loc 1 128 3 is_stmt 1 view .LVU137
 414              		.loc 1 128 11 is_stmt 0 view .LVU138
 415 006e 9DF80000 		ldrb	r0, [sp]	@ zero_extendqisi2
 416              		.loc 1 128 6 view .LVU139
 417 0072 18B9     		cbnz	r0, .L18
 129:Middlewares/ST/BlueNRG-2/hci/controller/bluenrg1_gatt_aci.c ****     return resp.Status;
 130:Middlewares/ST/BlueNRG-2/hci/controller/bluenrg1_gatt_aci.c ****   }
 131:Middlewares/ST/BlueNRG-2/hci/controller/bluenrg1_gatt_aci.c ****   *Include_Handle = btoh(resp.Include_Handle, 2);
 418              		.loc 1 131 3 is_stmt 1 view .LVU140
 419              		.loc 1 131 21 is_stmt 0 view .LVU141
 420 0074 BDF80120 		ldrh	r2, [sp, #1]	@ unaligned
 421              		.loc 1 131 19 view .LVU142
 422 0078 4B9B     		ldr	r3, [sp, #300]
 423 007a 1A80     		strh	r2, [r3]	@ movhi
 132:Middlewares/ST/BlueNRG-2/hci/controller/bluenrg1_gatt_aci.c ****   return BLE_STATUS_SUCCESS;
 424              		.loc 1 132 3 is_stmt 1 view .LVU143
 425              	.LVL39:
 426              	.L18:
 133:Middlewares/ST/BlueNRG-2/hci/controller/bluenrg1_gatt_aci.c **** }
 427              		.loc 1 133 1 is_stmt 0 view .LVU144
 428 007c 48B0     		add	sp, sp, #288
 429              		.cfi_remember_state
 430              		.cfi_def_cfa_offset 8
 431              		@ sp needed
 432 007e 10BD     		pop	{r4, pc}
 433              	.LVL40:
ARM GAS  C:\Users\IAHERN~1\AppData\Local\Temp\ccP26j2c.s 			page 11


 434              	.L20:
 435              		.cfi_restore_state
 436              	.LBB6:
 111:Middlewares/ST/BlueNRG-2/hci/controller/bluenrg1_gatt_aci.c ****       case 1: size = 2; break;
 437              		.loc 1 111 5 view .LVU145
 438 0080 4720     		movs	r0, #71
 439              	.LVL41:
 111:Middlewares/ST/BlueNRG-2/hci/controller/bluenrg1_gatt_aci.c ****       case 1: size = 2; break;
 440              		.loc 1 111 5 view .LVU146
 441 0082 FBE7     		b	.L18
 442              	.LVL42:
 443              	.L21:
 111:Middlewares/ST/BlueNRG-2/hci/controller/bluenrg1_gatt_aci.c ****       case 1: size = 2; break;
 444              		.loc 1 111 5 view .LVU147
 445              	.LBE6:
 127:Middlewares/ST/BlueNRG-2/hci/controller/bluenrg1_gatt_aci.c ****   if (resp.Status) {
 446              		.loc 1 127 12 view .LVU148
 447 0084 FF20     		movs	r0, #255
 448 0086 F9E7     		b	.L18
 449              		.cfi_endproc
 450              	.LFE139:
 452              		.section	.text.aci_gatt_add_char,"ax",%progbits
 453              		.align	1
 454              		.global	aci_gatt_add_char
 455              		.syntax unified
 456              		.thumb
 457              		.thumb_func
 459              	aci_gatt_add_char:
 460              	.LVL43:
 461              	.LFB140:
 134:Middlewares/ST/BlueNRG-2/hci/controller/bluenrg1_gatt_aci.c **** tBleStatus aci_gatt_add_char(uint16_t Service_Handle,
 135:Middlewares/ST/BlueNRG-2/hci/controller/bluenrg1_gatt_aci.c ****                              uint8_t Char_UUID_Type,
 136:Middlewares/ST/BlueNRG-2/hci/controller/bluenrg1_gatt_aci.c ****                              Char_UUID_t *Char_UUID,
 137:Middlewares/ST/BlueNRG-2/hci/controller/bluenrg1_gatt_aci.c ****                              uint16_t Char_Value_Length,
 138:Middlewares/ST/BlueNRG-2/hci/controller/bluenrg1_gatt_aci.c ****                              uint8_t Char_Properties,
 139:Middlewares/ST/BlueNRG-2/hci/controller/bluenrg1_gatt_aci.c ****                              uint8_t Security_Permissions,
 140:Middlewares/ST/BlueNRG-2/hci/controller/bluenrg1_gatt_aci.c ****                              uint8_t GATT_Evt_Mask,
 141:Middlewares/ST/BlueNRG-2/hci/controller/bluenrg1_gatt_aci.c ****                              uint8_t Enc_Key_Size,
 142:Middlewares/ST/BlueNRG-2/hci/controller/bluenrg1_gatt_aci.c ****                              uint8_t Is_Variable,
 143:Middlewares/ST/BlueNRG-2/hci/controller/bluenrg1_gatt_aci.c ****                              uint16_t *Char_Handle)
 144:Middlewares/ST/BlueNRG-2/hci/controller/bluenrg1_gatt_aci.c **** {
 462              		.loc 1 144 1 is_stmt 1 view -0
 463              		.cfi_startproc
 464              		@ args = 24, pretend = 0, frame = 288
 465              		@ frame_needed = 0, uses_anonymous_args = 0
 466              		.loc 1 144 1 is_stmt 0 view .LVU150
 467 0000 70B5     		push	{r4, r5, r6, lr}
 468              		.cfi_def_cfa_offset 16
 469              		.cfi_offset 4, -16
 470              		.cfi_offset 5, -12
 471              		.cfi_offset 6, -8
 472              		.cfi_offset 14, -4
 473 0002 C8B0     		sub	sp, sp, #288
 474              		.cfi_def_cfa_offset 304
 475 0004 8C46     		mov	ip, r1
 476 0006 1146     		mov	r1, r2
 477              	.LVL44:
ARM GAS  C:\Users\IAHERN~1\AppData\Local\Temp\ccP26j2c.s 			page 12


 478              		.loc 1 144 1 view .LVU151
 479 0008 1D46     		mov	r5, r3
 145:Middlewares/ST/BlueNRG-2/hci/controller/bluenrg1_gatt_aci.c ****   struct hci_request rq;
 480              		.loc 1 145 3 is_stmt 1 view .LVU152
 146:Middlewares/ST/BlueNRG-2/hci/controller/bluenrg1_gatt_aci.c ****   uint8_t cmd_buffer[258];
 481              		.loc 1 146 3 view .LVU153
 147:Middlewares/ST/BlueNRG-2/hci/controller/bluenrg1_gatt_aci.c ****   aci_gatt_add_char_cp0 *cp0 = (aci_gatt_add_char_cp0*)(cmd_buffer);
 482              		.loc 1 147 3 view .LVU154
 483              	.LVL45:
 148:Middlewares/ST/BlueNRG-2/hci/controller/bluenrg1_gatt_aci.c ****   aci_gatt_add_char_cp1 *cp1 = (aci_gatt_add_char_cp1*)(cmd_buffer + 2 + 1 + (Char_UUID_Type == 1 ?
 484              		.loc 1 148 3 view .LVU155
 485              		.loc 1 148 76 is_stmt 0 view .LVU156
 486 000a BCF1010F 		cmp	ip, #1
 487 000e 18D0     		beq	.L27
 488              		.loc 1 148 76 discriminator 1 view .LVU157
 489 0010 BCF1020F 		cmp	ip, #2
 490 0014 13D0     		beq	.L33
 491              		.loc 1 148 76 discriminator 4 view .LVU158
 492 0016 0324     		movs	r4, #3
 493              	.L24:
 494              		.loc 1 148 26 discriminator 8 view .LVU159
 495 0018 01AB     		add	r3, sp, #4
 496              	.LVL46:
 497              		.loc 1 148 26 discriminator 8 view .LVU160
 498 001a 1C44     		add	r4, r4, r3
 499              	.LVL47:
 149:Middlewares/ST/BlueNRG-2/hci/controller/bluenrg1_gatt_aci.c ****   aci_gatt_add_char_rp0 resp;
 500              		.loc 1 149 3 is_stmt 1 view .LVU161
 150:Middlewares/ST/BlueNRG-2/hci/controller/bluenrg1_gatt_aci.c ****   BLUENRG_memset(&resp, 0, sizeof(resp));
 501              		.loc 1 150 3 view .LVU162
 502 001c 0023     		movs	r3, #0
 503              	.LVL48:
 504              		.loc 1 150 3 is_stmt 0 view .LVU163
 505 001e ADF80030 		strh	r3, [sp]	@ movhi
 506 0022 8DF80230 		strb	r3, [sp, #2]
 151:Middlewares/ST/BlueNRG-2/hci/controller/bluenrg1_gatt_aci.c ****   uint8_t index_input = 0;
 507              		.loc 1 151 3 is_stmt 1 view .LVU164
 508              	.LVL49:
 152:Middlewares/ST/BlueNRG-2/hci/controller/bluenrg1_gatt_aci.c ****   cp0->Service_Handle = htob(Service_Handle, 2);
 509              		.loc 1 152 3 view .LVU165
 510              		.loc 1 152 23 is_stmt 0 view .LVU166
 511 0026 ADF80400 		strh	r0, [sp, #4]	@ movhi
 153:Middlewares/ST/BlueNRG-2/hci/controller/bluenrg1_gatt_aci.c ****   index_input += 2;
 512              		.loc 1 153 3 is_stmt 1 view .LVU167
 513              	.LVL50:
 154:Middlewares/ST/BlueNRG-2/hci/controller/bluenrg1_gatt_aci.c ****   cp0->Char_UUID_Type = htob(Char_UUID_Type, 1);
 514              		.loc 1 154 3 view .LVU168
 515              		.loc 1 154 23 is_stmt 0 view .LVU169
 516 002a 8DF806C0 		strb	ip, [sp, #6]
 155:Middlewares/ST/BlueNRG-2/hci/controller/bluenrg1_gatt_aci.c ****   index_input += 1;
 517              		.loc 1 155 3 is_stmt 1 view .LVU170
 518              	.LVL51:
 519              	.LBB7:
 156:Middlewares/ST/BlueNRG-2/hci/controller/bluenrg1_gatt_aci.c ****   /* var_len_data input */
 157:Middlewares/ST/BlueNRG-2/hci/controller/bluenrg1_gatt_aci.c ****   {
 158:Middlewares/ST/BlueNRG-2/hci/controller/bluenrg1_gatt_aci.c ****     uint8_t size;
 520              		.loc 1 158 5 view .LVU171
ARM GAS  C:\Users\IAHERN~1\AppData\Local\Temp\ccP26j2c.s 			page 13


 159:Middlewares/ST/BlueNRG-2/hci/controller/bluenrg1_gatt_aci.c ****     switch (Char_UUID_Type) {
 521              		.loc 1 159 5 view .LVU172
 522 002e BCF1010F 		cmp	ip, #1
 523 0032 08D0     		beq	.L29
 524              		.loc 1 159 5 is_stmt 0 view .LVU173
 525 0034 BCF1020F 		cmp	ip, #2
 526 0038 3FD1     		bne	.L30
 160:Middlewares/ST/BlueNRG-2/hci/controller/bluenrg1_gatt_aci.c ****       case 1: size = 2; break;
 161:Middlewares/ST/BlueNRG-2/hci/controller/bluenrg1_gatt_aci.c ****       case 2: size = 16; break;
 527              		.loc 1 161 20 view .LVU174
 528 003a 1026     		movs	r6, #16
 529 003c 04E0     		b	.L25
 530              	.LVL52:
 531              	.L33:
 532              		.loc 1 161 20 view .LVU175
 533              	.LBE7:
 148:Middlewares/ST/BlueNRG-2/hci/controller/bluenrg1_gatt_aci.c ****   aci_gatt_add_char_rp0 resp;
 534              		.loc 1 148 76 discriminator 3 view .LVU176
 535 003e 1324     		movs	r4, #19
 536 0040 EAE7     		b	.L24
 537              	.L27:
 148:Middlewares/ST/BlueNRG-2/hci/controller/bluenrg1_gatt_aci.c ****   aci_gatt_add_char_rp0 resp;
 538              		.loc 1 148 76 discriminator 2 view .LVU177
 539 0042 0524     		movs	r4, #5
 540 0044 E8E7     		b	.L24
 541              	.LVL53:
 542              	.L29:
 543              	.LBB8:
 159:Middlewares/ST/BlueNRG-2/hci/controller/bluenrg1_gatt_aci.c ****     switch (Char_UUID_Type) {
 544              		.loc 1 159 5 view .LVU178
 545 0046 0226     		movs	r6, #2
 546              	.L25:
 547              	.LVL54:
 162:Middlewares/ST/BlueNRG-2/hci/controller/bluenrg1_gatt_aci.c ****       default: return BLE_STATUS_ERROR;
 163:Middlewares/ST/BlueNRG-2/hci/controller/bluenrg1_gatt_aci.c ****     }
 164:Middlewares/ST/BlueNRG-2/hci/controller/bluenrg1_gatt_aci.c ****     BLUENRG_memcpy((void *) &cp0->Char_UUID, (const void *) Char_UUID, size);
 548              		.loc 1 164 5 is_stmt 1 view .LVU179
 549 0048 3246     		mov	r2, r6
 550              	.LVL55:
 551              		.loc 1 164 5 is_stmt 0 view .LVU180
 552 004a 0DF10700 		add	r0, sp, #7
 553              	.LVL56:
 554              		.loc 1 164 5 view .LVU181
 555 004e FFF7FEFF 		bl	memcpy
 556              	.LVL57:
 165:Middlewares/ST/BlueNRG-2/hci/controller/bluenrg1_gatt_aci.c ****     index_input += size;
 557              		.loc 1 165 5 is_stmt 1 view .LVU182
 166:Middlewares/ST/BlueNRG-2/hci/controller/bluenrg1_gatt_aci.c ****     {
 167:Middlewares/ST/BlueNRG-2/hci/controller/bluenrg1_gatt_aci.c ****       cp1->Char_Value_Length = htob(Char_Value_Length, 2);
 558              		.loc 1 167 7 view .LVU183
 559              		.loc 1 167 30 is_stmt 0 view .LVU184
 560 0052 2580     		strh	r5, [r4]	@ unaligned
 168:Middlewares/ST/BlueNRG-2/hci/controller/bluenrg1_gatt_aci.c ****     }
 169:Middlewares/ST/BlueNRG-2/hci/controller/bluenrg1_gatt_aci.c ****     index_input += 2;
 561              		.loc 1 169 5 is_stmt 1 view .LVU185
 562              	.LVL58:
 170:Middlewares/ST/BlueNRG-2/hci/controller/bluenrg1_gatt_aci.c ****     {
ARM GAS  C:\Users\IAHERN~1\AppData\Local\Temp\ccP26j2c.s 			page 14


 171:Middlewares/ST/BlueNRG-2/hci/controller/bluenrg1_gatt_aci.c ****       cp1->Char_Properties = htob(Char_Properties, 1);
 563              		.loc 1 171 7 view .LVU186
 564              		.loc 1 171 28 is_stmt 0 view .LVU187
 565 0054 9DF83031 		ldrb	r3, [sp, #304]	@ zero_extendqisi2
 566 0058 A370     		strb	r3, [r4, #2]
 172:Middlewares/ST/BlueNRG-2/hci/controller/bluenrg1_gatt_aci.c ****     }
 173:Middlewares/ST/BlueNRG-2/hci/controller/bluenrg1_gatt_aci.c ****     index_input += 1;
 567              		.loc 1 173 5 is_stmt 1 view .LVU188
 568              	.LVL59:
 174:Middlewares/ST/BlueNRG-2/hci/controller/bluenrg1_gatt_aci.c ****     {
 175:Middlewares/ST/BlueNRG-2/hci/controller/bluenrg1_gatt_aci.c ****       cp1->Security_Permissions = htob(Security_Permissions, 1);
 569              		.loc 1 175 7 view .LVU189
 570              		.loc 1 175 33 is_stmt 0 view .LVU190
 571 005a 9DF83431 		ldrb	r3, [sp, #308]	@ zero_extendqisi2
 572 005e E370     		strb	r3, [r4, #3]
 176:Middlewares/ST/BlueNRG-2/hci/controller/bluenrg1_gatt_aci.c ****     }
 177:Middlewares/ST/BlueNRG-2/hci/controller/bluenrg1_gatt_aci.c ****     index_input += 1;
 573              		.loc 1 177 5 is_stmt 1 view .LVU191
 574              	.LVL60:
 178:Middlewares/ST/BlueNRG-2/hci/controller/bluenrg1_gatt_aci.c ****     {
 179:Middlewares/ST/BlueNRG-2/hci/controller/bluenrg1_gatt_aci.c ****       cp1->GATT_Evt_Mask = htob(GATT_Evt_Mask, 1);
 575              		.loc 1 179 7 view .LVU192
 576              		.loc 1 179 26 is_stmt 0 view .LVU193
 577 0060 9DF83831 		ldrb	r3, [sp, #312]	@ zero_extendqisi2
 578 0064 2371     		strb	r3, [r4, #4]
 180:Middlewares/ST/BlueNRG-2/hci/controller/bluenrg1_gatt_aci.c ****     }
 181:Middlewares/ST/BlueNRG-2/hci/controller/bluenrg1_gatt_aci.c ****     index_input += 1;
 579              		.loc 1 181 5 is_stmt 1 view .LVU194
 580              	.LVL61:
 182:Middlewares/ST/BlueNRG-2/hci/controller/bluenrg1_gatt_aci.c ****     {
 183:Middlewares/ST/BlueNRG-2/hci/controller/bluenrg1_gatt_aci.c ****       cp1->Enc_Key_Size = htob(Enc_Key_Size, 1);
 581              		.loc 1 183 7 view .LVU195
 582              		.loc 1 183 25 is_stmt 0 view .LVU196
 583 0066 9DF83C31 		ldrb	r3, [sp, #316]	@ zero_extendqisi2
 584 006a 6371     		strb	r3, [r4, #5]
 184:Middlewares/ST/BlueNRG-2/hci/controller/bluenrg1_gatt_aci.c ****     }
 185:Middlewares/ST/BlueNRG-2/hci/controller/bluenrg1_gatt_aci.c ****     index_input += 1;
 585              		.loc 1 185 5 is_stmt 1 view .LVU197
 586              	.LVL62:
 186:Middlewares/ST/BlueNRG-2/hci/controller/bluenrg1_gatt_aci.c ****     {
 187:Middlewares/ST/BlueNRG-2/hci/controller/bluenrg1_gatt_aci.c ****       cp1->Is_Variable = htob(Is_Variable, 1);
 587              		.loc 1 187 7 view .LVU198
 588              		.loc 1 187 24 is_stmt 0 view .LVU199
 589 006c 9DF84031 		ldrb	r3, [sp, #320]	@ zero_extendqisi2
 590 0070 A371     		strb	r3, [r4, #6]
 188:Middlewares/ST/BlueNRG-2/hci/controller/bluenrg1_gatt_aci.c ****     }
 189:Middlewares/ST/BlueNRG-2/hci/controller/bluenrg1_gatt_aci.c ****     index_input += 1;
 591              		.loc 1 189 5 is_stmt 1 view .LVU200
 592              		.loc 1 189 17 is_stmt 0 view .LVU201
 593 0072 0A36     		adds	r6, r6, #10
 594              	.LVL63:
 595              		.loc 1 189 17 view .LVU202
 596              	.LBE8:
 190:Middlewares/ST/BlueNRG-2/hci/controller/bluenrg1_gatt_aci.c ****   }
 191:Middlewares/ST/BlueNRG-2/hci/controller/bluenrg1_gatt_aci.c ****   BLUENRG_memset(&rq, 0, sizeof(rq));
 597              		.loc 1 191 3 is_stmt 1 view .LVU203
 598 0074 0021     		movs	r1, #0
ARM GAS  C:\Users\IAHERN~1\AppData\Local\Temp\ccP26j2c.s 			page 15


 599 0076 4291     		str	r1, [sp, #264]
 600 0078 4391     		str	r1, [sp, #268]
 601 007a 4491     		str	r1, [sp, #272]
 602 007c 4591     		str	r1, [sp, #276]
 603 007e 4691     		str	r1, [sp, #280]
 604 0080 4791     		str	r1, [sp, #284]
 192:Middlewares/ST/BlueNRG-2/hci/controller/bluenrg1_gatt_aci.c ****   rq.ogf = 0x3f;
 605              		.loc 1 192 3 view .LVU204
 606              		.loc 1 192 10 is_stmt 0 view .LVU205
 607 0082 3F23     		movs	r3, #63
 608 0084 ADF80831 		strh	r3, [sp, #264]	@ movhi
 193:Middlewares/ST/BlueNRG-2/hci/controller/bluenrg1_gatt_aci.c ****   rq.ocf = 0x104;
 609              		.loc 1 193 3 is_stmt 1 view .LVU206
 610              		.loc 1 193 10 is_stmt 0 view .LVU207
 611 0088 4FF48273 		mov	r3, #260
 612 008c ADF80A31 		strh	r3, [sp, #266]	@ movhi
 194:Middlewares/ST/BlueNRG-2/hci/controller/bluenrg1_gatt_aci.c ****   rq.cparam = cmd_buffer;
 613              		.loc 1 194 3 is_stmt 1 view .LVU208
 614              		.loc 1 194 13 is_stmt 0 view .LVU209
 615 0090 01AB     		add	r3, sp, #4
 616              	.LVL64:
 617              		.loc 1 194 13 view .LVU210
 618 0092 4493     		str	r3, [sp, #272]
 195:Middlewares/ST/BlueNRG-2/hci/controller/bluenrg1_gatt_aci.c ****   rq.clen = index_input;
 619              		.loc 1 195 3 is_stmt 1 view .LVU211
 620              		.loc 1 195 11 is_stmt 0 view .LVU212
 621 0094 4596     		str	r6, [sp, #276]
 196:Middlewares/ST/BlueNRG-2/hci/controller/bluenrg1_gatt_aci.c ****   rq.rparam = &resp;
 622              		.loc 1 196 3 is_stmt 1 view .LVU213
 623              		.loc 1 196 13 is_stmt 0 view .LVU214
 624 0096 CDF818D1 		str	sp, [sp, #280]
 197:Middlewares/ST/BlueNRG-2/hci/controller/bluenrg1_gatt_aci.c ****   rq.rlen = sizeof(resp);
 625              		.loc 1 197 3 is_stmt 1 view .LVU215
 626              		.loc 1 197 11 is_stmt 0 view .LVU216
 627 009a 0323     		movs	r3, #3
 628              	.LVL65:
 629              		.loc 1 197 11 view .LVU217
 630 009c 4793     		str	r3, [sp, #284]
 198:Middlewares/ST/BlueNRG-2/hci/controller/bluenrg1_gatt_aci.c ****   if (hci_send_req(&rq, FALSE) < 0)
 631              		.loc 1 198 3 is_stmt 1 view .LVU218
 632              		.loc 1 198 7 is_stmt 0 view .LVU219
 633 009e 42A8     		add	r0, sp, #264
 634 00a0 FFF7FEFF 		bl	hci_send_req
 635              	.LVL66:
 636              		.loc 1 198 6 discriminator 1 view .LVU220
 637 00a4 0028     		cmp	r0, #0
 638 00a6 0ADB     		blt	.L31
 199:Middlewares/ST/BlueNRG-2/hci/controller/bluenrg1_gatt_aci.c ****     return BLE_STATUS_TIMEOUT;
 200:Middlewares/ST/BlueNRG-2/hci/controller/bluenrg1_gatt_aci.c ****   if (resp.Status) {
 639              		.loc 1 200 3 is_stmt 1 view .LVU221
 640              		.loc 1 200 11 is_stmt 0 view .LVU222
 641 00a8 9DF80000 		ldrb	r0, [sp]	@ zero_extendqisi2
 642              		.loc 1 200 6 view .LVU223
 643 00ac 18B9     		cbnz	r0, .L26
 201:Middlewares/ST/BlueNRG-2/hci/controller/bluenrg1_gatt_aci.c ****     return resp.Status;
 202:Middlewares/ST/BlueNRG-2/hci/controller/bluenrg1_gatt_aci.c ****   }
 203:Middlewares/ST/BlueNRG-2/hci/controller/bluenrg1_gatt_aci.c ****   *Char_Handle = btoh(resp.Char_Handle, 2);
ARM GAS  C:\Users\IAHERN~1\AppData\Local\Temp\ccP26j2c.s 			page 16


 644              		.loc 1 203 3 is_stmt 1 view .LVU224
 645              		.loc 1 203 18 is_stmt 0 view .LVU225
 646 00ae BDF80120 		ldrh	r2, [sp, #1]	@ unaligned
 647              		.loc 1 203 16 view .LVU226
 648 00b2 519B     		ldr	r3, [sp, #324]
 649 00b4 1A80     		strh	r2, [r3]	@ movhi
 204:Middlewares/ST/BlueNRG-2/hci/controller/bluenrg1_gatt_aci.c ****   return BLE_STATUS_SUCCESS;
 650              		.loc 1 204 3 is_stmt 1 view .LVU227
 651              	.LVL67:
 652              	.L26:
 205:Middlewares/ST/BlueNRG-2/hci/controller/bluenrg1_gatt_aci.c **** }
 653              		.loc 1 205 1 is_stmt 0 view .LVU228
 654 00b6 48B0     		add	sp, sp, #288
 655              		.cfi_remember_state
 656              		.cfi_def_cfa_offset 16
 657              		@ sp needed
 658 00b8 70BD     		pop	{r4, r5, r6, pc}
 659              	.LVL68:
 660              	.L30:
 661              		.cfi_restore_state
 662              	.LBB9:
 159:Middlewares/ST/BlueNRG-2/hci/controller/bluenrg1_gatt_aci.c ****       case 1: size = 2; break;
 663              		.loc 1 159 5 view .LVU229
 664 00ba 4720     		movs	r0, #71
 665              	.LVL69:
 159:Middlewares/ST/BlueNRG-2/hci/controller/bluenrg1_gatt_aci.c ****       case 1: size = 2; break;
 666              		.loc 1 159 5 view .LVU230
 667 00bc FBE7     		b	.L26
 668              	.LVL70:
 669              	.L31:
 159:Middlewares/ST/BlueNRG-2/hci/controller/bluenrg1_gatt_aci.c ****       case 1: size = 2; break;
 670              		.loc 1 159 5 view .LVU231
 671              	.LBE9:
 199:Middlewares/ST/BlueNRG-2/hci/controller/bluenrg1_gatt_aci.c ****   if (resp.Status) {
 672              		.loc 1 199 12 view .LVU232
 673 00be FF20     		movs	r0, #255
 674 00c0 F9E7     		b	.L26
 675              		.cfi_endproc
 676              	.LFE140:
 678              		.section	.text.aci_gatt_add_char_desc,"ax",%progbits
 679              		.align	1
 680              		.global	aci_gatt_add_char_desc
 681              		.syntax unified
 682              		.thumb
 683              		.thumb_func
 685              	aci_gatt_add_char_desc:
 686              	.LVL71:
 687              	.LFB141:
 206:Middlewares/ST/BlueNRG-2/hci/controller/bluenrg1_gatt_aci.c **** tBleStatus aci_gatt_add_char_desc(uint16_t Service_Handle,
 207:Middlewares/ST/BlueNRG-2/hci/controller/bluenrg1_gatt_aci.c ****                                   uint16_t Char_Handle,
 208:Middlewares/ST/BlueNRG-2/hci/controller/bluenrg1_gatt_aci.c ****                                   uint8_t Char_Desc_Uuid_Type,
 209:Middlewares/ST/BlueNRG-2/hci/controller/bluenrg1_gatt_aci.c ****                                   Char_Desc_Uuid_t *Char_Desc_Uuid,
 210:Middlewares/ST/BlueNRG-2/hci/controller/bluenrg1_gatt_aci.c ****                                   uint8_t Char_Desc_Value_Max_Len,
 211:Middlewares/ST/BlueNRG-2/hci/controller/bluenrg1_gatt_aci.c ****                                   uint8_t Char_Desc_Value_Length,
 212:Middlewares/ST/BlueNRG-2/hci/controller/bluenrg1_gatt_aci.c ****                                   uint8_t Char_Desc_Value[],
 213:Middlewares/ST/BlueNRG-2/hci/controller/bluenrg1_gatt_aci.c ****                                   uint8_t Security_Permissions,
 214:Middlewares/ST/BlueNRG-2/hci/controller/bluenrg1_gatt_aci.c ****                                   uint8_t Access_Permissions,
ARM GAS  C:\Users\IAHERN~1\AppData\Local\Temp\ccP26j2c.s 			page 17


 215:Middlewares/ST/BlueNRG-2/hci/controller/bluenrg1_gatt_aci.c ****                                   uint8_t GATT_Evt_Mask,
 216:Middlewares/ST/BlueNRG-2/hci/controller/bluenrg1_gatt_aci.c ****                                   uint8_t Enc_Key_Size,
 217:Middlewares/ST/BlueNRG-2/hci/controller/bluenrg1_gatt_aci.c ****                                   uint8_t Is_Variable,
 218:Middlewares/ST/BlueNRG-2/hci/controller/bluenrg1_gatt_aci.c ****                                   uint16_t *Char_Desc_Handle)
 219:Middlewares/ST/BlueNRG-2/hci/controller/bluenrg1_gatt_aci.c **** {
 688              		.loc 1 219 1 is_stmt 1 view -0
 689              		.cfi_startproc
 690              		@ args = 36, pretend = 0, frame = 288
 691              		@ frame_needed = 0, uses_anonymous_args = 0
 692              		.loc 1 219 1 is_stmt 0 view .LVU234
 693 0000 2DE9F041 		push	{r4, r5, r6, r7, r8, lr}
 694              		.cfi_def_cfa_offset 24
 695              		.cfi_offset 4, -24
 696              		.cfi_offset 5, -20
 697              		.cfi_offset 6, -16
 698              		.cfi_offset 7, -12
 699              		.cfi_offset 8, -8
 700              		.cfi_offset 14, -4
 701 0004 C8B0     		sub	sp, sp, #288
 702              		.cfi_def_cfa_offset 312
 703 0006 8C46     		mov	ip, r1
 704 0008 1946     		mov	r1, r3
 705              	.LVL72:
 706              		.loc 1 219 1 view .LVU235
 707 000a 9DF83C41 		ldrb	r4, [sp, #316]	@ zero_extendqisi2
 220:Middlewares/ST/BlueNRG-2/hci/controller/bluenrg1_gatt_aci.c ****   struct hci_request rq;
 708              		.loc 1 220 3 is_stmt 1 view .LVU236
 221:Middlewares/ST/BlueNRG-2/hci/controller/bluenrg1_gatt_aci.c ****   uint8_t cmd_buffer[258];
 709              		.loc 1 221 3 view .LVU237
 222:Middlewares/ST/BlueNRG-2/hci/controller/bluenrg1_gatt_aci.c ****   aci_gatt_add_char_desc_cp0 *cp0 = (aci_gatt_add_char_desc_cp0*)(cmd_buffer);
 710              		.loc 1 222 3 view .LVU238
 711              	.LVL73:
 223:Middlewares/ST/BlueNRG-2/hci/controller/bluenrg1_gatt_aci.c ****   aci_gatt_add_char_desc_cp1 *cp1 = (aci_gatt_add_char_desc_cp1*)(cmd_buffer + 2 + 2 + 1 + (Char_De
 712              		.loc 1 223 3 view .LVU239
 713              		.loc 1 223 90 is_stmt 0 view .LVU240
 714 000e 012A     		cmp	r2, #1
 715 0010 20D0     		beq	.L39
 716              		.loc 1 223 90 discriminator 1 view .LVU241
 717 0012 022A     		cmp	r2, #2
 718 0014 1CD0     		beq	.L47
 719              		.loc 1 223 90 discriminator 4 view .LVU242
 720 0016 0523     		movs	r3, #5
 721              	.LVL74:
 722              	.L35:
 723              		.loc 1 223 31 discriminator 8 view .LVU243
 724 0018 01AD     		add	r5, sp, #4
 725              	.LVL75:
 726              		.loc 1 223 31 discriminator 8 view .LVU244
 727 001a 1D44     		add	r5, r5, r3
 728              	.LVL76:
 224:Middlewares/ST/BlueNRG-2/hci/controller/bluenrg1_gatt_aci.c ****   aci_gatt_add_char_desc_cp2 *cp2 = (aci_gatt_add_char_desc_cp2*)(cmd_buffer + 2 + 2 + 1 + (Char_De
 729              		.loc 1 224 3 is_stmt 1 view .LVU245
 730              		.loc 1 224 165 is_stmt 0 view .LVU246
 731 001c 012A     		cmp	r2, #1
 732 001e 1DD0     		beq	.L41
 733              		.loc 1 224 165 discriminator 1 view .LVU247
 734 0020 022A     		cmp	r2, #2
ARM GAS  C:\Users\IAHERN~1\AppData\Local\Temp\ccP26j2c.s 			page 18


 735 0022 19D0     		beq	.L48
 736              		.loc 1 224 165 discriminator 4 view .LVU248
 737 0024 0726     		movs	r6, #7
 738              	.L36:
 739              		.loc 1 224 169 discriminator 8 view .LVU249
 740 0026 2644     		add	r6, r6, r4
 741              		.loc 1 224 31 discriminator 8 view .LVU250
 742 0028 01AB     		add	r3, sp, #4
 743              	.LVL77:
 744              		.loc 1 224 31 discriminator 8 view .LVU251
 745 002a 9F19     		adds	r7, r3, r6
 746              	.LVL78:
 225:Middlewares/ST/BlueNRG-2/hci/controller/bluenrg1_gatt_aci.c ****   aci_gatt_add_char_desc_rp0 resp;
 747              		.loc 1 225 3 is_stmt 1 view .LVU252
 226:Middlewares/ST/BlueNRG-2/hci/controller/bluenrg1_gatt_aci.c ****   BLUENRG_memset(&resp, 0, sizeof(resp));
 748              		.loc 1 226 3 view .LVU253
 749 002c 0023     		movs	r3, #0
 750              	.LVL79:
 751              		.loc 1 226 3 is_stmt 0 view .LVU254
 752 002e ADF80030 		strh	r3, [sp]	@ movhi
 753 0032 8DF80230 		strb	r3, [sp, #2]
 227:Middlewares/ST/BlueNRG-2/hci/controller/bluenrg1_gatt_aci.c ****   uint8_t index_input = 0;
 754              		.loc 1 227 3 is_stmt 1 view .LVU255
 755              	.LVL80:
 228:Middlewares/ST/BlueNRG-2/hci/controller/bluenrg1_gatt_aci.c ****   cp0->Service_Handle = htob(Service_Handle, 2);
 756              		.loc 1 228 3 view .LVU256
 757              		.loc 1 228 23 is_stmt 0 view .LVU257
 758 0036 ADF80400 		strh	r0, [sp, #4]	@ movhi
 229:Middlewares/ST/BlueNRG-2/hci/controller/bluenrg1_gatt_aci.c ****   index_input += 2;
 759              		.loc 1 229 3 is_stmt 1 view .LVU258
 760              	.LVL81:
 230:Middlewares/ST/BlueNRG-2/hci/controller/bluenrg1_gatt_aci.c ****   cp0->Char_Handle = htob(Char_Handle, 2);
 761              		.loc 1 230 3 view .LVU259
 762              		.loc 1 230 20 is_stmt 0 view .LVU260
 763 003a ADF806C0 		strh	ip, [sp, #6]	@ movhi
 231:Middlewares/ST/BlueNRG-2/hci/controller/bluenrg1_gatt_aci.c ****   index_input += 2;
 764              		.loc 1 231 3 is_stmt 1 view .LVU261
 765              	.LVL82:
 232:Middlewares/ST/BlueNRG-2/hci/controller/bluenrg1_gatt_aci.c ****   cp0->Char_Desc_Uuid_Type = htob(Char_Desc_Uuid_Type, 1);
 766              		.loc 1 232 3 view .LVU262
 767              		.loc 1 232 28 is_stmt 0 view .LVU263
 768 003e 8DF80820 		strb	r2, [sp, #8]
 233:Middlewares/ST/BlueNRG-2/hci/controller/bluenrg1_gatt_aci.c ****   index_input += 1;
 769              		.loc 1 233 3 is_stmt 1 view .LVU264
 770              	.LVL83:
 771              	.LBB10:
 234:Middlewares/ST/BlueNRG-2/hci/controller/bluenrg1_gatt_aci.c ****   /* var_len_data input */
 235:Middlewares/ST/BlueNRG-2/hci/controller/bluenrg1_gatt_aci.c ****   {
 236:Middlewares/ST/BlueNRG-2/hci/controller/bluenrg1_gatt_aci.c ****     uint8_t size;
 772              		.loc 1 236 5 view .LVU265
 237:Middlewares/ST/BlueNRG-2/hci/controller/bluenrg1_gatt_aci.c ****     switch (Char_Desc_Uuid_Type) {
 773              		.loc 1 237 5 view .LVU266
 774 0042 012A     		cmp	r2, #1
 775 0044 0CD0     		beq	.L43
 776              		.loc 1 237 5 is_stmt 0 view .LVU267
 777 0046 022A     		cmp	r2, #2
 778 0048 53D1     		bne	.L44
ARM GAS  C:\Users\IAHERN~1\AppData\Local\Temp\ccP26j2c.s 			page 19


 238:Middlewares/ST/BlueNRG-2/hci/controller/bluenrg1_gatt_aci.c ****       case 1: size = 2; break;
 239:Middlewares/ST/BlueNRG-2/hci/controller/bluenrg1_gatt_aci.c ****       case 2: size = 16; break;
 779              		.loc 1 239 20 view .LVU268
 780 004a 4FF01008 		mov	r8, #16
 781 004e 09E0     		b	.L37
 782              	.LVL84:
 783              	.L47:
 784              		.loc 1 239 20 view .LVU269
 785              	.LBE10:
 223:Middlewares/ST/BlueNRG-2/hci/controller/bluenrg1_gatt_aci.c ****   aci_gatt_add_char_desc_cp2 *cp2 = (aci_gatt_add_char_desc_cp2*)(cmd_buffer + 2 + 2 + 1 + (Char_De
 786              		.loc 1 223 90 discriminator 3 view .LVU270
 787 0050 1523     		movs	r3, #21
 788 0052 E1E7     		b	.L35
 789              	.L39:
 223:Middlewares/ST/BlueNRG-2/hci/controller/bluenrg1_gatt_aci.c ****   aci_gatt_add_char_desc_cp2 *cp2 = (aci_gatt_add_char_desc_cp2*)(cmd_buffer + 2 + 2 + 1 + (Char_De
 790              		.loc 1 223 90 discriminator 2 view .LVU271
 791 0054 0723     		movs	r3, #7
 792 0056 DFE7     		b	.L35
 793              	.LVL85:
 794              	.L48:
 224:Middlewares/ST/BlueNRG-2/hci/controller/bluenrg1_gatt_aci.c ****   aci_gatt_add_char_desc_rp0 resp;
 795              		.loc 1 224 165 discriminator 3 view .LVU272
 796 0058 1726     		movs	r6, #23
 797 005a E4E7     		b	.L36
 798              	.L41:
 224:Middlewares/ST/BlueNRG-2/hci/controller/bluenrg1_gatt_aci.c ****   aci_gatt_add_char_desc_rp0 resp;
 799              		.loc 1 224 165 discriminator 2 view .LVU273
 800 005c 0926     		movs	r6, #9
 801 005e E2E7     		b	.L36
 802              	.LVL86:
 803              	.L43:
 804              	.LBB11:
 237:Middlewares/ST/BlueNRG-2/hci/controller/bluenrg1_gatt_aci.c ****       case 1: size = 2; break;
 805              		.loc 1 237 5 view .LVU274
 806 0060 4FF00208 		mov	r8, #2
 807              	.L37:
 808              	.LVL87:
 240:Middlewares/ST/BlueNRG-2/hci/controller/bluenrg1_gatt_aci.c ****       default: return BLE_STATUS_ERROR;
 241:Middlewares/ST/BlueNRG-2/hci/controller/bluenrg1_gatt_aci.c ****     }
 242:Middlewares/ST/BlueNRG-2/hci/controller/bluenrg1_gatt_aci.c ****     BLUENRG_memcpy((void *) &cp0->Char_Desc_Uuid, (const void *) Char_Desc_Uuid, size);
 809              		.loc 1 242 5 is_stmt 1 view .LVU275
 810 0064 4246     		mov	r2, r8
 811              	.LVL88:
 812              		.loc 1 242 5 is_stmt 0 view .LVU276
 813 0066 0DF10900 		add	r0, sp, #9
 814              	.LVL89:
 815              		.loc 1 242 5 view .LVU277
 816 006a FFF7FEFF 		bl	memcpy
 817              	.LVL90:
 243:Middlewares/ST/BlueNRG-2/hci/controller/bluenrg1_gatt_aci.c ****     index_input += size;
 818              		.loc 1 243 5 is_stmt 1 view .LVU278
 244:Middlewares/ST/BlueNRG-2/hci/controller/bluenrg1_gatt_aci.c ****     {
 245:Middlewares/ST/BlueNRG-2/hci/controller/bluenrg1_gatt_aci.c ****       cp1->Char_Desc_Value_Max_Len = htob(Char_Desc_Value_Max_Len, 1);
 819              		.loc 1 245 7 view .LVU279
 820              		.loc 1 245 36 is_stmt 0 view .LVU280
 821 006e 9DF83831 		ldrb	r3, [sp, #312]	@ zero_extendqisi2
 822 0072 2B70     		strb	r3, [r5]
ARM GAS  C:\Users\IAHERN~1\AppData\Local\Temp\ccP26j2c.s 			page 20


 246:Middlewares/ST/BlueNRG-2/hci/controller/bluenrg1_gatt_aci.c ****     }
 247:Middlewares/ST/BlueNRG-2/hci/controller/bluenrg1_gatt_aci.c ****     index_input += 1;
 823              		.loc 1 247 5 is_stmt 1 view .LVU281
 824              	.LVL91:
 248:Middlewares/ST/BlueNRG-2/hci/controller/bluenrg1_gatt_aci.c ****     {
 249:Middlewares/ST/BlueNRG-2/hci/controller/bluenrg1_gatt_aci.c ****       cp1->Char_Desc_Value_Length = htob(Char_Desc_Value_Length, 1);
 825              		.loc 1 249 7 view .LVU282
 826              		.loc 1 249 35 is_stmt 0 view .LVU283
 827 0074 6C70     		strb	r4, [r5, #1]
 250:Middlewares/ST/BlueNRG-2/hci/controller/bluenrg1_gatt_aci.c ****     }
 251:Middlewares/ST/BlueNRG-2/hci/controller/bluenrg1_gatt_aci.c ****     index_input += 1;
 828              		.loc 1 251 5 is_stmt 1 view .LVU284
 829              		.loc 1 251 17 is_stmt 0 view .LVU285
 830 0076 08F10708 		add	r8, r8, #7
 831              	.LVL92:
 252:Middlewares/ST/BlueNRG-2/hci/controller/bluenrg1_gatt_aci.c ****     BLUENRG_memcpy((void *) &cp1->Char_Desc_Value, (const void *) Char_Desc_Value, Char_Desc_Value_
 832              		.loc 1 252 5 is_stmt 1 view .LVU286
 833 007a 2246     		mov	r2, r4
 834 007c 5099     		ldr	r1, [sp, #320]
 835 007e A81C     		adds	r0, r5, #2
 836 0080 FFF7FEFF 		bl	memcpy
 837              	.LVL93:
 253:Middlewares/ST/BlueNRG-2/hci/controller/bluenrg1_gatt_aci.c ****     index_input += Char_Desc_Value_Length*sizeof(uint8_t);
 838              		.loc 1 253 5 view .LVU287
 839              		.loc 1 253 17 is_stmt 0 view .LVU288
 840 0084 4444     		add	r4, r4, r8
 841 0086 E4B2     		uxtb	r4, r4
 842              	.LVL94:
 254:Middlewares/ST/BlueNRG-2/hci/controller/bluenrg1_gatt_aci.c ****     {
 255:Middlewares/ST/BlueNRG-2/hci/controller/bluenrg1_gatt_aci.c ****       cp2->Security_Permissions = htob(Security_Permissions, 1);
 843              		.loc 1 255 7 is_stmt 1 view .LVU289
 844              		.loc 1 255 33 is_stmt 0 view .LVU290
 845 0088 9DF84431 		ldrb	r3, [sp, #324]	@ zero_extendqisi2
 846 008c 01AA     		add	r2, sp, #4
 847              	.LVL95:
 848              		.loc 1 255 33 view .LVU291
 849 008e 9355     		strb	r3, [r2, r6]
 256:Middlewares/ST/BlueNRG-2/hci/controller/bluenrg1_gatt_aci.c ****     }
 257:Middlewares/ST/BlueNRG-2/hci/controller/bluenrg1_gatt_aci.c ****     index_input += 1;
 850              		.loc 1 257 5 is_stmt 1 view .LVU292
 851              	.LVL96:
 258:Middlewares/ST/BlueNRG-2/hci/controller/bluenrg1_gatt_aci.c ****     {
 259:Middlewares/ST/BlueNRG-2/hci/controller/bluenrg1_gatt_aci.c ****       cp2->Access_Permissions = htob(Access_Permissions, 1);
 852              		.loc 1 259 7 view .LVU293
 853              		.loc 1 259 31 is_stmt 0 view .LVU294
 854 0090 9DF84831 		ldrb	r3, [sp, #328]	@ zero_extendqisi2
 855 0094 7B70     		strb	r3, [r7, #1]
 260:Middlewares/ST/BlueNRG-2/hci/controller/bluenrg1_gatt_aci.c ****     }
 261:Middlewares/ST/BlueNRG-2/hci/controller/bluenrg1_gatt_aci.c ****     index_input += 1;
 856              		.loc 1 261 5 is_stmt 1 view .LVU295
 857              	.LVL97:
 262:Middlewares/ST/BlueNRG-2/hci/controller/bluenrg1_gatt_aci.c ****     {
 263:Middlewares/ST/BlueNRG-2/hci/controller/bluenrg1_gatt_aci.c ****       cp2->GATT_Evt_Mask = htob(GATT_Evt_Mask, 1);
 858              		.loc 1 263 7 view .LVU296
 859              		.loc 1 263 26 is_stmt 0 view .LVU297
 860 0096 9DF84C31 		ldrb	r3, [sp, #332]	@ zero_extendqisi2
 861 009a BB70     		strb	r3, [r7, #2]
ARM GAS  C:\Users\IAHERN~1\AppData\Local\Temp\ccP26j2c.s 			page 21


 264:Middlewares/ST/BlueNRG-2/hci/controller/bluenrg1_gatt_aci.c ****     }
 265:Middlewares/ST/BlueNRG-2/hci/controller/bluenrg1_gatt_aci.c ****     index_input += 1;
 862              		.loc 1 265 5 is_stmt 1 view .LVU298
 863              	.LVL98:
 266:Middlewares/ST/BlueNRG-2/hci/controller/bluenrg1_gatt_aci.c ****     {
 267:Middlewares/ST/BlueNRG-2/hci/controller/bluenrg1_gatt_aci.c ****       cp2->Enc_Key_Size = htob(Enc_Key_Size, 1);
 864              		.loc 1 267 7 view .LVU299
 865              		.loc 1 267 25 is_stmt 0 view .LVU300
 866 009c 9DF85031 		ldrb	r3, [sp, #336]	@ zero_extendqisi2
 867 00a0 FB70     		strb	r3, [r7, #3]
 268:Middlewares/ST/BlueNRG-2/hci/controller/bluenrg1_gatt_aci.c ****     }
 269:Middlewares/ST/BlueNRG-2/hci/controller/bluenrg1_gatt_aci.c ****     index_input += 1;
 868              		.loc 1 269 5 is_stmt 1 view .LVU301
 869              	.LVL99:
 270:Middlewares/ST/BlueNRG-2/hci/controller/bluenrg1_gatt_aci.c ****     {
 271:Middlewares/ST/BlueNRG-2/hci/controller/bluenrg1_gatt_aci.c ****       cp2->Is_Variable = htob(Is_Variable, 1);
 870              		.loc 1 271 7 view .LVU302
 871              		.loc 1 271 24 is_stmt 0 view .LVU303
 872 00a2 9DF85431 		ldrb	r3, [sp, #340]	@ zero_extendqisi2
 873 00a6 3B71     		strb	r3, [r7, #4]
 272:Middlewares/ST/BlueNRG-2/hci/controller/bluenrg1_gatt_aci.c ****     }
 273:Middlewares/ST/BlueNRG-2/hci/controller/bluenrg1_gatt_aci.c ****     index_input += 1;
 874              		.loc 1 273 5 is_stmt 1 view .LVU304
 875              		.loc 1 273 17 is_stmt 0 view .LVU305
 876 00a8 0534     		adds	r4, r4, #5
 877              	.LVL100:
 878              		.loc 1 273 17 view .LVU306
 879 00aa E4B2     		uxtb	r4, r4
 880              	.LVL101:
 881              		.loc 1 273 17 view .LVU307
 882              	.LBE11:
 274:Middlewares/ST/BlueNRG-2/hci/controller/bluenrg1_gatt_aci.c ****   }
 275:Middlewares/ST/BlueNRG-2/hci/controller/bluenrg1_gatt_aci.c ****   BLUENRG_memset(&rq, 0, sizeof(rq));
 883              		.loc 1 275 3 is_stmt 1 view .LVU308
 884 00ac 0021     		movs	r1, #0
 885 00ae 4291     		str	r1, [sp, #264]
 886 00b0 4391     		str	r1, [sp, #268]
 887 00b2 4491     		str	r1, [sp, #272]
 888 00b4 4591     		str	r1, [sp, #276]
 889 00b6 4691     		str	r1, [sp, #280]
 890 00b8 4791     		str	r1, [sp, #284]
 276:Middlewares/ST/BlueNRG-2/hci/controller/bluenrg1_gatt_aci.c ****   rq.ogf = 0x3f;
 891              		.loc 1 276 3 view .LVU309
 892              		.loc 1 276 10 is_stmt 0 view .LVU310
 893 00ba 3F23     		movs	r3, #63
 894 00bc ADF80831 		strh	r3, [sp, #264]	@ movhi
 277:Middlewares/ST/BlueNRG-2/hci/controller/bluenrg1_gatt_aci.c ****   rq.ocf = 0x105;
 895              		.loc 1 277 3 is_stmt 1 view .LVU311
 896              		.loc 1 277 10 is_stmt 0 view .LVU312
 897 00c0 40F20513 		movw	r3, #261
 898 00c4 ADF80A31 		strh	r3, [sp, #266]	@ movhi
 278:Middlewares/ST/BlueNRG-2/hci/controller/bluenrg1_gatt_aci.c ****   rq.cparam = cmd_buffer;
 899              		.loc 1 278 3 is_stmt 1 view .LVU313
 900              		.loc 1 278 13 is_stmt 0 view .LVU314
 901 00c8 4492     		str	r2, [sp, #272]
 279:Middlewares/ST/BlueNRG-2/hci/controller/bluenrg1_gatt_aci.c ****   rq.clen = index_input;
 902              		.loc 1 279 3 is_stmt 1 view .LVU315
ARM GAS  C:\Users\IAHERN~1\AppData\Local\Temp\ccP26j2c.s 			page 22


 903              		.loc 1 279 11 is_stmt 0 view .LVU316
 904 00ca 4594     		str	r4, [sp, #276]
 280:Middlewares/ST/BlueNRG-2/hci/controller/bluenrg1_gatt_aci.c ****   rq.rparam = &resp;
 905              		.loc 1 280 3 is_stmt 1 view .LVU317
 906              		.loc 1 280 13 is_stmt 0 view .LVU318
 907 00cc CDF818D1 		str	sp, [sp, #280]
 281:Middlewares/ST/BlueNRG-2/hci/controller/bluenrg1_gatt_aci.c ****   rq.rlen = sizeof(resp);
 908              		.loc 1 281 3 is_stmt 1 view .LVU319
 909              		.loc 1 281 11 is_stmt 0 view .LVU320
 910 00d0 0323     		movs	r3, #3
 911 00d2 4793     		str	r3, [sp, #284]
 282:Middlewares/ST/BlueNRG-2/hci/controller/bluenrg1_gatt_aci.c ****   if (hci_send_req(&rq, FALSE) < 0)
 912              		.loc 1 282 3 is_stmt 1 view .LVU321
 913              		.loc 1 282 7 is_stmt 0 view .LVU322
 914 00d4 42A8     		add	r0, sp, #264
 915 00d6 FFF7FEFF 		bl	hci_send_req
 916              	.LVL102:
 917              		.loc 1 282 6 discriminator 1 view .LVU323
 918 00da 0028     		cmp	r0, #0
 919 00dc 0BDB     		blt	.L45
 283:Middlewares/ST/BlueNRG-2/hci/controller/bluenrg1_gatt_aci.c ****     return BLE_STATUS_TIMEOUT;
 284:Middlewares/ST/BlueNRG-2/hci/controller/bluenrg1_gatt_aci.c ****   if (resp.Status) {
 920              		.loc 1 284 3 is_stmt 1 view .LVU324
 921              		.loc 1 284 11 is_stmt 0 view .LVU325
 922 00de 9DF80000 		ldrb	r0, [sp]	@ zero_extendqisi2
 923              		.loc 1 284 6 view .LVU326
 924 00e2 18B9     		cbnz	r0, .L38
 285:Middlewares/ST/BlueNRG-2/hci/controller/bluenrg1_gatt_aci.c ****     return resp.Status;
 286:Middlewares/ST/BlueNRG-2/hci/controller/bluenrg1_gatt_aci.c ****   }
 287:Middlewares/ST/BlueNRG-2/hci/controller/bluenrg1_gatt_aci.c ****   *Char_Desc_Handle = btoh(resp.Char_Desc_Handle, 2);
 925              		.loc 1 287 3 is_stmt 1 view .LVU327
 926              		.loc 1 287 23 is_stmt 0 view .LVU328
 927 00e4 BDF80120 		ldrh	r2, [sp, #1]	@ unaligned
 928              		.loc 1 287 21 view .LVU329
 929 00e8 569B     		ldr	r3, [sp, #344]
 930 00ea 1A80     		strh	r2, [r3]	@ movhi
 288:Middlewares/ST/BlueNRG-2/hci/controller/bluenrg1_gatt_aci.c ****   return BLE_STATUS_SUCCESS;
 931              		.loc 1 288 3 is_stmt 1 view .LVU330
 932              	.LVL103:
 933              	.L38:
 289:Middlewares/ST/BlueNRG-2/hci/controller/bluenrg1_gatt_aci.c **** }
 934              		.loc 1 289 1 is_stmt 0 view .LVU331
 935 00ec 48B0     		add	sp, sp, #288
 936              		.cfi_remember_state
 937              		.cfi_def_cfa_offset 24
 938              		@ sp needed
 939 00ee BDE8F081 		pop	{r4, r5, r6, r7, r8, pc}
 940              	.LVL104:
 941              	.L44:
 942              		.cfi_restore_state
 943              	.LBB12:
 237:Middlewares/ST/BlueNRG-2/hci/controller/bluenrg1_gatt_aci.c ****       case 1: size = 2; break;
 944              		.loc 1 237 5 view .LVU332
 945 00f2 4720     		movs	r0, #71
 946              	.LVL105:
 237:Middlewares/ST/BlueNRG-2/hci/controller/bluenrg1_gatt_aci.c ****       case 1: size = 2; break;
 947              		.loc 1 237 5 view .LVU333
ARM GAS  C:\Users\IAHERN~1\AppData\Local\Temp\ccP26j2c.s 			page 23


 948 00f4 FAE7     		b	.L38
 949              	.LVL106:
 950              	.L45:
 237:Middlewares/ST/BlueNRG-2/hci/controller/bluenrg1_gatt_aci.c ****       case 1: size = 2; break;
 951              		.loc 1 237 5 view .LVU334
 952              	.LBE12:
 283:Middlewares/ST/BlueNRG-2/hci/controller/bluenrg1_gatt_aci.c ****   if (resp.Status) {
 953              		.loc 1 283 12 view .LVU335
 954 00f6 FF20     		movs	r0, #255
 955 00f8 F8E7     		b	.L38
 956              		.cfi_endproc
 957              	.LFE141:
 959              		.section	.text.aci_gatt_update_char_value,"ax",%progbits
 960              		.align	1
 961              		.global	aci_gatt_update_char_value
 962              		.syntax unified
 963              		.thumb
 964              		.thumb_func
 966              	aci_gatt_update_char_value:
 967              	.LVL107:
 968              	.LFB142:
 290:Middlewares/ST/BlueNRG-2/hci/controller/bluenrg1_gatt_aci.c **** tBleStatus aci_gatt_update_char_value(uint16_t Service_Handle,
 291:Middlewares/ST/BlueNRG-2/hci/controller/bluenrg1_gatt_aci.c ****                                       uint16_t Char_Handle,
 292:Middlewares/ST/BlueNRG-2/hci/controller/bluenrg1_gatt_aci.c ****                                       uint8_t Val_Offset,
 293:Middlewares/ST/BlueNRG-2/hci/controller/bluenrg1_gatt_aci.c ****                                       uint8_t Char_Value_Length,
 294:Middlewares/ST/BlueNRG-2/hci/controller/bluenrg1_gatt_aci.c ****                                       uint8_t Char_Value[])
 295:Middlewares/ST/BlueNRG-2/hci/controller/bluenrg1_gatt_aci.c **** {
 969              		.loc 1 295 1 is_stmt 1 view -0
 970              		.cfi_startproc
 971              		@ args = 4, pretend = 0, frame = 288
 972              		@ frame_needed = 0, uses_anonymous_args = 0
 973              		.loc 1 295 1 is_stmt 0 view .LVU337
 974 0000 F0B5     		push	{r4, r5, r6, r7, lr}
 975              		.cfi_def_cfa_offset 20
 976              		.cfi_offset 4, -20
 977              		.cfi_offset 5, -16
 978              		.cfi_offset 6, -12
 979              		.cfi_offset 7, -8
 980              		.cfi_offset 14, -4
 981 0002 C9B0     		sub	sp, sp, #292
 982              		.cfi_def_cfa_offset 312
 983 0004 1C46     		mov	r4, r3
 296:Middlewares/ST/BlueNRG-2/hci/controller/bluenrg1_gatt_aci.c ****   struct hci_request rq;
 984              		.loc 1 296 3 is_stmt 1 view .LVU338
 297:Middlewares/ST/BlueNRG-2/hci/controller/bluenrg1_gatt_aci.c ****   uint8_t cmd_buffer[258];
 985              		.loc 1 297 3 view .LVU339
 298:Middlewares/ST/BlueNRG-2/hci/controller/bluenrg1_gatt_aci.c ****   aci_gatt_update_char_value_cp0 *cp0 = (aci_gatt_update_char_value_cp0*)(cmd_buffer);
 986              		.loc 1 298 3 view .LVU340
 987              	.LVL108:
 299:Middlewares/ST/BlueNRG-2/hci/controller/bluenrg1_gatt_aci.c ****   tBleStatus status = 0;
 988              		.loc 1 299 3 view .LVU341
 989              		.loc 1 299 14 is_stmt 0 view .LVU342
 990 0006 0DF10307 		add	r7, sp, #3
 991 000a 0025     		movs	r5, #0
 992 000c 8DF80350 		strb	r5, [sp, #3]
 300:Middlewares/ST/BlueNRG-2/hci/controller/bluenrg1_gatt_aci.c ****   uint8_t index_input = 0;
 993              		.loc 1 300 3 is_stmt 1 view .LVU343
ARM GAS  C:\Users\IAHERN~1\AppData\Local\Temp\ccP26j2c.s 			page 24


 994              	.LVL109:
 301:Middlewares/ST/BlueNRG-2/hci/controller/bluenrg1_gatt_aci.c ****   cp0->Service_Handle = htob(Service_Handle, 2);
 995              		.loc 1 301 3 view .LVU344
 996              		.loc 1 301 23 is_stmt 0 view .LVU345
 997 0010 01AE     		add	r6, sp, #4
 998              	.LVL110:
 999              		.loc 1 301 23 view .LVU346
 1000 0012 ADF80400 		strh	r0, [sp, #4]	@ movhi
 302:Middlewares/ST/BlueNRG-2/hci/controller/bluenrg1_gatt_aci.c ****   index_input += 2;
 1001              		.loc 1 302 3 is_stmt 1 view .LVU347
 1002              	.LVL111:
 303:Middlewares/ST/BlueNRG-2/hci/controller/bluenrg1_gatt_aci.c ****   cp0->Char_Handle = htob(Char_Handle, 2);
 1003              		.loc 1 303 3 view .LVU348
 1004              		.loc 1 303 20 is_stmt 0 view .LVU349
 1005 0016 ADF80610 		strh	r1, [sp, #6]	@ movhi
 304:Middlewares/ST/BlueNRG-2/hci/controller/bluenrg1_gatt_aci.c ****   index_input += 2;
 1006              		.loc 1 304 3 is_stmt 1 view .LVU350
 1007              	.LVL112:
 305:Middlewares/ST/BlueNRG-2/hci/controller/bluenrg1_gatt_aci.c ****   cp0->Val_Offset = htob(Val_Offset, 1);
 1008              		.loc 1 305 3 view .LVU351
 1009              		.loc 1 305 19 is_stmt 0 view .LVU352
 1010 001a 8DF80820 		strb	r2, [sp, #8]
 306:Middlewares/ST/BlueNRG-2/hci/controller/bluenrg1_gatt_aci.c ****   index_input += 1;
 1011              		.loc 1 306 3 is_stmt 1 view .LVU353
 1012              	.LVL113:
 307:Middlewares/ST/BlueNRG-2/hci/controller/bluenrg1_gatt_aci.c ****   cp0->Char_Value_Length = htob(Char_Value_Length, 1);
 1013              		.loc 1 307 3 view .LVU354
 1014              		.loc 1 307 26 is_stmt 0 view .LVU355
 1015 001e 8DF80930 		strb	r3, [sp, #9]
 308:Middlewares/ST/BlueNRG-2/hci/controller/bluenrg1_gatt_aci.c ****   index_input += 1;
 1016              		.loc 1 308 3 is_stmt 1 view .LVU356
 1017              	.LVL114:
 309:Middlewares/ST/BlueNRG-2/hci/controller/bluenrg1_gatt_aci.c ****   /* var_len_data input */
 310:Middlewares/ST/BlueNRG-2/hci/controller/bluenrg1_gatt_aci.c ****   {
 311:Middlewares/ST/BlueNRG-2/hci/controller/bluenrg1_gatt_aci.c ****     BLUENRG_memcpy((void *) &cp0->Char_Value, (const void *) Char_Value, Char_Value_Length*sizeof(u
 1018              		.loc 1 311 5 view .LVU357
 1019 0022 1A46     		mov	r2, r3
 1020              	.LVL115:
 1021              		.loc 1 311 5 is_stmt 0 view .LVU358
 1022 0024 4E99     		ldr	r1, [sp, #312]
 1023              	.LVL116:
 1024              		.loc 1 311 5 view .LVU359
 1025 0026 0DF10A00 		add	r0, sp, #10
 1026              	.LVL117:
 1027              		.loc 1 311 5 view .LVU360
 1028 002a FFF7FEFF 		bl	memcpy
 1029              	.LVL118:
 312:Middlewares/ST/BlueNRG-2/hci/controller/bluenrg1_gatt_aci.c ****     index_input += Char_Value_Length*sizeof(uint8_t);
 1030              		.loc 1 312 5 is_stmt 1 view .LVU361
 1031              		.loc 1 312 17 is_stmt 0 view .LVU362
 1032 002e 0634     		adds	r4, r4, #6
 1033              	.LVL119:
 1034              		.loc 1 312 17 view .LVU363
 1035 0030 E4B2     		uxtb	r4, r4
 1036              	.LVL120:
 313:Middlewares/ST/BlueNRG-2/hci/controller/bluenrg1_gatt_aci.c ****   }
 314:Middlewares/ST/BlueNRG-2/hci/controller/bluenrg1_gatt_aci.c ****   BLUENRG_memset(&rq, 0, sizeof(rq));
ARM GAS  C:\Users\IAHERN~1\AppData\Local\Temp\ccP26j2c.s 			page 25


 1037              		.loc 1 314 3 is_stmt 1 view .LVU364
 1038 0032 4295     		str	r5, [sp, #264]
 1039 0034 4395     		str	r5, [sp, #268]
 1040 0036 4495     		str	r5, [sp, #272]
 1041 0038 4595     		str	r5, [sp, #276]
 1042 003a 4695     		str	r5, [sp, #280]
 1043 003c 4795     		str	r5, [sp, #284]
 315:Middlewares/ST/BlueNRG-2/hci/controller/bluenrg1_gatt_aci.c ****   rq.ogf = 0x3f;
 1044              		.loc 1 315 3 view .LVU365
 1045              		.loc 1 315 10 is_stmt 0 view .LVU366
 1046 003e 3F23     		movs	r3, #63
 1047 0040 ADF80831 		strh	r3, [sp, #264]	@ movhi
 316:Middlewares/ST/BlueNRG-2/hci/controller/bluenrg1_gatt_aci.c ****   rq.ocf = 0x106;
 1048              		.loc 1 316 3 is_stmt 1 view .LVU367
 1049              		.loc 1 316 10 is_stmt 0 view .LVU368
 1050 0044 4FF48373 		mov	r3, #262
 1051 0048 ADF80A31 		strh	r3, [sp, #266]	@ movhi
 317:Middlewares/ST/BlueNRG-2/hci/controller/bluenrg1_gatt_aci.c ****   rq.cparam = cmd_buffer;
 1052              		.loc 1 317 3 is_stmt 1 view .LVU369
 1053              		.loc 1 317 13 is_stmt 0 view .LVU370
 1054 004c 4496     		str	r6, [sp, #272]
 318:Middlewares/ST/BlueNRG-2/hci/controller/bluenrg1_gatt_aci.c ****   rq.clen = index_input;
 1055              		.loc 1 318 3 is_stmt 1 view .LVU371
 1056              		.loc 1 318 11 is_stmt 0 view .LVU372
 1057 004e 4594     		str	r4, [sp, #276]
 319:Middlewares/ST/BlueNRG-2/hci/controller/bluenrg1_gatt_aci.c ****   rq.rparam = &status;
 1058              		.loc 1 319 3 is_stmt 1 view .LVU373
 1059              		.loc 1 319 13 is_stmt 0 view .LVU374
 1060 0050 4697     		str	r7, [sp, #280]
 320:Middlewares/ST/BlueNRG-2/hci/controller/bluenrg1_gatt_aci.c ****   rq.rlen = 1;
 1061              		.loc 1 320 3 is_stmt 1 view .LVU375
 1062              		.loc 1 320 11 is_stmt 0 view .LVU376
 1063 0052 0123     		movs	r3, #1
 1064 0054 4793     		str	r3, [sp, #284]
 321:Middlewares/ST/BlueNRG-2/hci/controller/bluenrg1_gatt_aci.c ****   if (hci_send_req(&rq, FALSE) < 0)
 1065              		.loc 1 321 3 is_stmt 1 view .LVU377
 1066              		.loc 1 321 7 is_stmt 0 view .LVU378
 1067 0056 2946     		mov	r1, r5
 1068 0058 42A8     		add	r0, sp, #264
 1069 005a FFF7FEFF 		bl	hci_send_req
 1070              	.LVL121:
 1071              		.loc 1 321 6 discriminator 1 view .LVU379
 1072 005e A842     		cmp	r0, r5
 1073 0060 03DB     		blt	.L51
 322:Middlewares/ST/BlueNRG-2/hci/controller/bluenrg1_gatt_aci.c ****     return BLE_STATUS_TIMEOUT;
 323:Middlewares/ST/BlueNRG-2/hci/controller/bluenrg1_gatt_aci.c ****   if (status) {
 1074              		.loc 1 323 3 is_stmt 1 view .LVU380
 1075              		.loc 1 323 7 is_stmt 0 view .LVU381
 1076 0062 9DF80300 		ldrb	r0, [sp, #3]	@ zero_extendqisi2
 1077              	.L50:
 324:Middlewares/ST/BlueNRG-2/hci/controller/bluenrg1_gatt_aci.c ****     return status;
 325:Middlewares/ST/BlueNRG-2/hci/controller/bluenrg1_gatt_aci.c ****   }
 326:Middlewares/ST/BlueNRG-2/hci/controller/bluenrg1_gatt_aci.c ****   return BLE_STATUS_SUCCESS;
 327:Middlewares/ST/BlueNRG-2/hci/controller/bluenrg1_gatt_aci.c **** }
 1078              		.loc 1 327 1 view .LVU382
 1079 0066 49B0     		add	sp, sp, #292
 1080              		.cfi_remember_state
ARM GAS  C:\Users\IAHERN~1\AppData\Local\Temp\ccP26j2c.s 			page 26


 1081              		.cfi_def_cfa_offset 20
 1082              		@ sp needed
 1083 0068 F0BD     		pop	{r4, r5, r6, r7, pc}
 1084              	.LVL122:
 1085              	.L51:
 1086              		.cfi_restore_state
 322:Middlewares/ST/BlueNRG-2/hci/controller/bluenrg1_gatt_aci.c ****     return BLE_STATUS_TIMEOUT;
 1087              		.loc 1 322 12 view .LVU383
 1088 006a FF20     		movs	r0, #255
 1089 006c FBE7     		b	.L50
 1090              		.cfi_endproc
 1091              	.LFE142:
 1093              		.section	.text.aci_gatt_del_char,"ax",%progbits
 1094              		.align	1
 1095              		.global	aci_gatt_del_char
 1096              		.syntax unified
 1097              		.thumb
 1098              		.thumb_func
 1100              	aci_gatt_del_char:
 1101              	.LVL123:
 1102              	.LFB143:
 328:Middlewares/ST/BlueNRG-2/hci/controller/bluenrg1_gatt_aci.c **** tBleStatus aci_gatt_del_char(uint16_t Serv_Handle,
 329:Middlewares/ST/BlueNRG-2/hci/controller/bluenrg1_gatt_aci.c ****                              uint16_t Char_Handle)
 330:Middlewares/ST/BlueNRG-2/hci/controller/bluenrg1_gatt_aci.c **** {
 1103              		.loc 1 330 1 is_stmt 1 view -0
 1104              		.cfi_startproc
 1105              		@ args = 0, pretend = 0, frame = 288
 1106              		@ frame_needed = 0, uses_anonymous_args = 0
 1107              		.loc 1 330 1 is_stmt 0 view .LVU385
 1108 0000 10B5     		push	{r4, lr}
 1109              		.cfi_def_cfa_offset 8
 1110              		.cfi_offset 4, -8
 1111              		.cfi_offset 14, -4
 1112 0002 C8B0     		sub	sp, sp, #288
 1113              		.cfi_def_cfa_offset 296
 331:Middlewares/ST/BlueNRG-2/hci/controller/bluenrg1_gatt_aci.c ****   struct hci_request rq;
 1114              		.loc 1 331 3 is_stmt 1 view .LVU386
 332:Middlewares/ST/BlueNRG-2/hci/controller/bluenrg1_gatt_aci.c ****   uint8_t cmd_buffer[258];
 1115              		.loc 1 332 3 view .LVU387
 333:Middlewares/ST/BlueNRG-2/hci/controller/bluenrg1_gatt_aci.c ****   aci_gatt_del_char_cp0 *cp0 = (aci_gatt_del_char_cp0*)(cmd_buffer);
 1116              		.loc 1 333 3 view .LVU388
 1117              	.LVL124:
 334:Middlewares/ST/BlueNRG-2/hci/controller/bluenrg1_gatt_aci.c ****   tBleStatus status = 0;
 1118              		.loc 1 334 3 view .LVU389
 1119              		.loc 1 334 14 is_stmt 0 view .LVU390
 1120 0004 0DF10304 		add	r4, sp, #3
 1121 0008 0023     		movs	r3, #0
 1122 000a 8DF80330 		strb	r3, [sp, #3]
 335:Middlewares/ST/BlueNRG-2/hci/controller/bluenrg1_gatt_aci.c ****   uint8_t index_input = 0;
 1123              		.loc 1 335 3 is_stmt 1 view .LVU391
 1124              	.LVL125:
 336:Middlewares/ST/BlueNRG-2/hci/controller/bluenrg1_gatt_aci.c ****   cp0->Serv_Handle = htob(Serv_Handle, 2);
 1125              		.loc 1 336 3 view .LVU392
 1126              		.loc 1 336 20 is_stmt 0 view .LVU393
 1127 000e 01AA     		add	r2, sp, #4
 1128              	.LVL126:
 1129              		.loc 1 336 20 view .LVU394
ARM GAS  C:\Users\IAHERN~1\AppData\Local\Temp\ccP26j2c.s 			page 27


 1130 0010 ADF80400 		strh	r0, [sp, #4]	@ movhi
 337:Middlewares/ST/BlueNRG-2/hci/controller/bluenrg1_gatt_aci.c ****   index_input += 2;
 1131              		.loc 1 337 3 is_stmt 1 view .LVU395
 1132              	.LVL127:
 338:Middlewares/ST/BlueNRG-2/hci/controller/bluenrg1_gatt_aci.c ****   cp0->Char_Handle = htob(Char_Handle, 2);
 1133              		.loc 1 338 3 view .LVU396
 1134              		.loc 1 338 20 is_stmt 0 view .LVU397
 1135 0014 ADF80610 		strh	r1, [sp, #6]	@ movhi
 339:Middlewares/ST/BlueNRG-2/hci/controller/bluenrg1_gatt_aci.c ****   index_input += 2;
 1136              		.loc 1 339 3 is_stmt 1 view .LVU398
 1137              	.LVL128:
 340:Middlewares/ST/BlueNRG-2/hci/controller/bluenrg1_gatt_aci.c ****   BLUENRG_memset(&rq, 0, sizeof(rq));
 1138              		.loc 1 340 3 view .LVU399
 1139 0018 4293     		str	r3, [sp, #264]
 1140 001a 4393     		str	r3, [sp, #268]
 1141 001c 4493     		str	r3, [sp, #272]
 1142 001e 4593     		str	r3, [sp, #276]
 1143 0020 4693     		str	r3, [sp, #280]
 1144 0022 4793     		str	r3, [sp, #284]
 341:Middlewares/ST/BlueNRG-2/hci/controller/bluenrg1_gatt_aci.c ****   rq.ogf = 0x3f;
 1145              		.loc 1 341 3 view .LVU400
 1146              		.loc 1 341 10 is_stmt 0 view .LVU401
 1147 0024 3F21     		movs	r1, #63
 1148              	.LVL129:
 1149              		.loc 1 341 10 view .LVU402
 1150 0026 ADF80811 		strh	r1, [sp, #264]	@ movhi
 342:Middlewares/ST/BlueNRG-2/hci/controller/bluenrg1_gatt_aci.c ****   rq.ocf = 0x107;
 1151              		.loc 1 342 3 is_stmt 1 view .LVU403
 1152              		.loc 1 342 10 is_stmt 0 view .LVU404
 1153 002a 40F20711 		movw	r1, #263
 1154 002e ADF80A11 		strh	r1, [sp, #266]	@ movhi
 343:Middlewares/ST/BlueNRG-2/hci/controller/bluenrg1_gatt_aci.c ****   rq.cparam = cmd_buffer;
 1155              		.loc 1 343 3 is_stmt 1 view .LVU405
 1156              		.loc 1 343 13 is_stmt 0 view .LVU406
 1157 0032 4492     		str	r2, [sp, #272]
 344:Middlewares/ST/BlueNRG-2/hci/controller/bluenrg1_gatt_aci.c ****   rq.clen = index_input;
 1158              		.loc 1 344 3 is_stmt 1 view .LVU407
 1159              		.loc 1 344 11 is_stmt 0 view .LVU408
 1160 0034 0422     		movs	r2, #4
 1161              	.LVL130:
 1162              		.loc 1 344 11 view .LVU409
 1163 0036 4592     		str	r2, [sp, #276]
 345:Middlewares/ST/BlueNRG-2/hci/controller/bluenrg1_gatt_aci.c ****   rq.rparam = &status;
 1164              		.loc 1 345 3 is_stmt 1 view .LVU410
 1165              		.loc 1 345 13 is_stmt 0 view .LVU411
 1166 0038 4694     		str	r4, [sp, #280]
 346:Middlewares/ST/BlueNRG-2/hci/controller/bluenrg1_gatt_aci.c ****   rq.rlen = 1;
 1167              		.loc 1 346 3 is_stmt 1 view .LVU412
 1168              		.loc 1 346 11 is_stmt 0 view .LVU413
 1169 003a 0122     		movs	r2, #1
 1170 003c 4792     		str	r2, [sp, #284]
 347:Middlewares/ST/BlueNRG-2/hci/controller/bluenrg1_gatt_aci.c ****   if (hci_send_req(&rq, FALSE) < 0)
 1171              		.loc 1 347 3 is_stmt 1 view .LVU414
 1172              		.loc 1 347 7 is_stmt 0 view .LVU415
 1173 003e 1946     		mov	r1, r3
 1174 0040 42A8     		add	r0, sp, #264
 1175              	.LVL131:
ARM GAS  C:\Users\IAHERN~1\AppData\Local\Temp\ccP26j2c.s 			page 28


 1176              		.loc 1 347 7 view .LVU416
 1177 0042 FFF7FEFF 		bl	hci_send_req
 1178              	.LVL132:
 1179              		.loc 1 347 6 discriminator 1 view .LVU417
 1180 0046 0028     		cmp	r0, #0
 1181 0048 03DB     		blt	.L55
 348:Middlewares/ST/BlueNRG-2/hci/controller/bluenrg1_gatt_aci.c ****     return BLE_STATUS_TIMEOUT;
 349:Middlewares/ST/BlueNRG-2/hci/controller/bluenrg1_gatt_aci.c ****   if (status) {
 1182              		.loc 1 349 3 is_stmt 1 view .LVU418
 1183              		.loc 1 349 7 is_stmt 0 view .LVU419
 1184 004a 9DF80300 		ldrb	r0, [sp, #3]	@ zero_extendqisi2
 1185              	.L54:
 350:Middlewares/ST/BlueNRG-2/hci/controller/bluenrg1_gatt_aci.c ****     return status;
 351:Middlewares/ST/BlueNRG-2/hci/controller/bluenrg1_gatt_aci.c ****   }
 352:Middlewares/ST/BlueNRG-2/hci/controller/bluenrg1_gatt_aci.c ****   return BLE_STATUS_SUCCESS;
 353:Middlewares/ST/BlueNRG-2/hci/controller/bluenrg1_gatt_aci.c **** }
 1186              		.loc 1 353 1 view .LVU420
 1187 004e 48B0     		add	sp, sp, #288
 1188              		.cfi_remember_state
 1189              		.cfi_def_cfa_offset 8
 1190              		@ sp needed
 1191 0050 10BD     		pop	{r4, pc}
 1192              	.LVL133:
 1193              	.L55:
 1194              		.cfi_restore_state
 348:Middlewares/ST/BlueNRG-2/hci/controller/bluenrg1_gatt_aci.c ****     return BLE_STATUS_TIMEOUT;
 1195              		.loc 1 348 12 view .LVU421
 1196 0052 FF20     		movs	r0, #255
 1197 0054 FBE7     		b	.L54
 1198              		.cfi_endproc
 1199              	.LFE143:
 1201              		.section	.text.aci_gatt_del_service,"ax",%progbits
 1202              		.align	1
 1203              		.global	aci_gatt_del_service
 1204              		.syntax unified
 1205              		.thumb
 1206              		.thumb_func
 1208              	aci_gatt_del_service:
 1209              	.LVL134:
 1210              	.LFB144:
 354:Middlewares/ST/BlueNRG-2/hci/controller/bluenrg1_gatt_aci.c **** tBleStatus aci_gatt_del_service(uint16_t Serv_Handle)
 355:Middlewares/ST/BlueNRG-2/hci/controller/bluenrg1_gatt_aci.c **** {
 1211              		.loc 1 355 1 is_stmt 1 view -0
 1212              		.cfi_startproc
 1213              		@ args = 0, pretend = 0, frame = 288
 1214              		@ frame_needed = 0, uses_anonymous_args = 0
 1215              		.loc 1 355 1 is_stmt 0 view .LVU423
 1216 0000 00B5     		push	{lr}
 1217              		.cfi_def_cfa_offset 4
 1218              		.cfi_offset 14, -4
 1219 0002 C9B0     		sub	sp, sp, #292
 1220              		.cfi_def_cfa_offset 296
 356:Middlewares/ST/BlueNRG-2/hci/controller/bluenrg1_gatt_aci.c ****   struct hci_request rq;
 1221              		.loc 1 356 3 is_stmt 1 view .LVU424
 357:Middlewares/ST/BlueNRG-2/hci/controller/bluenrg1_gatt_aci.c ****   uint8_t cmd_buffer[258];
 1222              		.loc 1 357 3 view .LVU425
 358:Middlewares/ST/BlueNRG-2/hci/controller/bluenrg1_gatt_aci.c ****   aci_gatt_del_service_cp0 *cp0 = (aci_gatt_del_service_cp0*)(cmd_buffer);
ARM GAS  C:\Users\IAHERN~1\AppData\Local\Temp\ccP26j2c.s 			page 29


 1223              		.loc 1 358 3 view .LVU426
 1224              	.LVL135:
 359:Middlewares/ST/BlueNRG-2/hci/controller/bluenrg1_gatt_aci.c ****   tBleStatus status = 0;
 1225              		.loc 1 359 3 view .LVU427
 1226              		.loc 1 359 14 is_stmt 0 view .LVU428
 1227 0004 0DF10303 		add	r3, sp, #3
 1228 0008 0021     		movs	r1, #0
 1229 000a 8DF80310 		strb	r1, [sp, #3]
 360:Middlewares/ST/BlueNRG-2/hci/controller/bluenrg1_gatt_aci.c ****   uint8_t index_input = 0;
 1230              		.loc 1 360 3 is_stmt 1 view .LVU429
 1231              	.LVL136:
 361:Middlewares/ST/BlueNRG-2/hci/controller/bluenrg1_gatt_aci.c ****   cp0->Serv_Handle = htob(Serv_Handle, 2);
 1232              		.loc 1 361 3 view .LVU430
 1233              		.loc 1 361 20 is_stmt 0 view .LVU431
 1234 000e 01AA     		add	r2, sp, #4
 1235              	.LVL137:
 1236              		.loc 1 361 20 view .LVU432
 1237 0010 ADF80400 		strh	r0, [sp, #4]	@ movhi
 362:Middlewares/ST/BlueNRG-2/hci/controller/bluenrg1_gatt_aci.c ****   index_input += 2;
 1238              		.loc 1 362 3 is_stmt 1 view .LVU433
 1239              	.LVL138:
 363:Middlewares/ST/BlueNRG-2/hci/controller/bluenrg1_gatt_aci.c ****   BLUENRG_memset(&rq, 0, sizeof(rq));
 1240              		.loc 1 363 3 view .LVU434
 1241 0014 4291     		str	r1, [sp, #264]
 1242 0016 4391     		str	r1, [sp, #268]
 1243 0018 4491     		str	r1, [sp, #272]
 1244 001a 4591     		str	r1, [sp, #276]
 1245 001c 4691     		str	r1, [sp, #280]
 1246 001e 4791     		str	r1, [sp, #284]
 364:Middlewares/ST/BlueNRG-2/hci/controller/bluenrg1_gatt_aci.c ****   rq.ogf = 0x3f;
 1247              		.loc 1 364 3 view .LVU435
 1248              		.loc 1 364 10 is_stmt 0 view .LVU436
 1249 0020 3F20     		movs	r0, #63
 1250              	.LVL139:
 1251              		.loc 1 364 10 view .LVU437
 1252 0022 ADF80801 		strh	r0, [sp, #264]	@ movhi
 365:Middlewares/ST/BlueNRG-2/hci/controller/bluenrg1_gatt_aci.c ****   rq.ocf = 0x108;
 1253              		.loc 1 365 3 is_stmt 1 view .LVU438
 1254              		.loc 1 365 10 is_stmt 0 view .LVU439
 1255 0026 4FF48470 		mov	r0, #264
 1256 002a ADF80A01 		strh	r0, [sp, #266]	@ movhi
 366:Middlewares/ST/BlueNRG-2/hci/controller/bluenrg1_gatt_aci.c ****   rq.cparam = cmd_buffer;
 1257              		.loc 1 366 3 is_stmt 1 view .LVU440
 1258              		.loc 1 366 13 is_stmt 0 view .LVU441
 1259 002e 4492     		str	r2, [sp, #272]
 367:Middlewares/ST/BlueNRG-2/hci/controller/bluenrg1_gatt_aci.c ****   rq.clen = index_input;
 1260              		.loc 1 367 3 is_stmt 1 view .LVU442
 1261              		.loc 1 367 11 is_stmt 0 view .LVU443
 1262 0030 0222     		movs	r2, #2
 1263              	.LVL140:
 1264              		.loc 1 367 11 view .LVU444
 1265 0032 4592     		str	r2, [sp, #276]
 368:Middlewares/ST/BlueNRG-2/hci/controller/bluenrg1_gatt_aci.c ****   rq.rparam = &status;
 1266              		.loc 1 368 3 is_stmt 1 view .LVU445
 1267              		.loc 1 368 13 is_stmt 0 view .LVU446
 1268 0034 4693     		str	r3, [sp, #280]
 369:Middlewares/ST/BlueNRG-2/hci/controller/bluenrg1_gatt_aci.c ****   rq.rlen = 1;
ARM GAS  C:\Users\IAHERN~1\AppData\Local\Temp\ccP26j2c.s 			page 30


 1269              		.loc 1 369 3 is_stmt 1 view .LVU447
 1270              		.loc 1 369 11 is_stmt 0 view .LVU448
 1271 0036 0123     		movs	r3, #1
 1272 0038 4793     		str	r3, [sp, #284]
 370:Middlewares/ST/BlueNRG-2/hci/controller/bluenrg1_gatt_aci.c ****   if (hci_send_req(&rq, FALSE) < 0)
 1273              		.loc 1 370 3 is_stmt 1 view .LVU449
 1274              		.loc 1 370 7 is_stmt 0 view .LVU450
 1275 003a 6844     		add	r0, sp, r0
 1276 003c FFF7FEFF 		bl	hci_send_req
 1277              	.LVL141:
 1278              		.loc 1 370 6 discriminator 1 view .LVU451
 1279 0040 0028     		cmp	r0, #0
 1280 0042 04DB     		blt	.L59
 371:Middlewares/ST/BlueNRG-2/hci/controller/bluenrg1_gatt_aci.c ****     return BLE_STATUS_TIMEOUT;
 372:Middlewares/ST/BlueNRG-2/hci/controller/bluenrg1_gatt_aci.c ****   if (status) {
 1281              		.loc 1 372 3 is_stmt 1 view .LVU452
 1282              		.loc 1 372 7 is_stmt 0 view .LVU453
 1283 0044 9DF80300 		ldrb	r0, [sp, #3]	@ zero_extendqisi2
 1284              	.L58:
 373:Middlewares/ST/BlueNRG-2/hci/controller/bluenrg1_gatt_aci.c ****     return status;
 374:Middlewares/ST/BlueNRG-2/hci/controller/bluenrg1_gatt_aci.c ****   }
 375:Middlewares/ST/BlueNRG-2/hci/controller/bluenrg1_gatt_aci.c ****   return BLE_STATUS_SUCCESS;
 376:Middlewares/ST/BlueNRG-2/hci/controller/bluenrg1_gatt_aci.c **** }
 1285              		.loc 1 376 1 view .LVU454
 1286 0048 49B0     		add	sp, sp, #292
 1287              		.cfi_remember_state
 1288              		.cfi_def_cfa_offset 4
 1289              		@ sp needed
 1290 004a 5DF804FB 		ldr	pc, [sp], #4
 1291              	.LVL142:
 1292              	.L59:
 1293              		.cfi_restore_state
 371:Middlewares/ST/BlueNRG-2/hci/controller/bluenrg1_gatt_aci.c ****     return BLE_STATUS_TIMEOUT;
 1294              		.loc 1 371 12 view .LVU455
 1295 004e FF20     		movs	r0, #255
 1296 0050 FAE7     		b	.L58
 1297              		.cfi_endproc
 1298              	.LFE144:
 1300              		.section	.text.aci_gatt_del_include_service,"ax",%progbits
 1301              		.align	1
 1302              		.global	aci_gatt_del_include_service
 1303              		.syntax unified
 1304              		.thumb
 1305              		.thumb_func
 1307              	aci_gatt_del_include_service:
 1308              	.LVL143:
 1309              	.LFB145:
 377:Middlewares/ST/BlueNRG-2/hci/controller/bluenrg1_gatt_aci.c **** tBleStatus aci_gatt_del_include_service(uint16_t Serv_Handle,
 378:Middlewares/ST/BlueNRG-2/hci/controller/bluenrg1_gatt_aci.c ****                                         uint16_t Include_Handle)
 379:Middlewares/ST/BlueNRG-2/hci/controller/bluenrg1_gatt_aci.c **** {
 1310              		.loc 1 379 1 is_stmt 1 view -0
 1311              		.cfi_startproc
 1312              		@ args = 0, pretend = 0, frame = 288
 1313              		@ frame_needed = 0, uses_anonymous_args = 0
 1314              		.loc 1 379 1 is_stmt 0 view .LVU457
 1315 0000 10B5     		push	{r4, lr}
 1316              		.cfi_def_cfa_offset 8
ARM GAS  C:\Users\IAHERN~1\AppData\Local\Temp\ccP26j2c.s 			page 31


 1317              		.cfi_offset 4, -8
 1318              		.cfi_offset 14, -4
 1319 0002 C8B0     		sub	sp, sp, #288
 1320              		.cfi_def_cfa_offset 296
 380:Middlewares/ST/BlueNRG-2/hci/controller/bluenrg1_gatt_aci.c ****   struct hci_request rq;
 1321              		.loc 1 380 3 is_stmt 1 view .LVU458
 381:Middlewares/ST/BlueNRG-2/hci/controller/bluenrg1_gatt_aci.c ****   uint8_t cmd_buffer[258];
 1322              		.loc 1 381 3 view .LVU459
 382:Middlewares/ST/BlueNRG-2/hci/controller/bluenrg1_gatt_aci.c ****   aci_gatt_del_include_service_cp0 *cp0 = (aci_gatt_del_include_service_cp0*)(cmd_buffer);
 1323              		.loc 1 382 3 view .LVU460
 1324              	.LVL144:
 383:Middlewares/ST/BlueNRG-2/hci/controller/bluenrg1_gatt_aci.c ****   tBleStatus status = 0;
 1325              		.loc 1 383 3 view .LVU461
 1326              		.loc 1 383 14 is_stmt 0 view .LVU462
 1327 0004 0DF10304 		add	r4, sp, #3
 1328 0008 0023     		movs	r3, #0
 1329 000a 8DF80330 		strb	r3, [sp, #3]
 384:Middlewares/ST/BlueNRG-2/hci/controller/bluenrg1_gatt_aci.c ****   uint8_t index_input = 0;
 1330              		.loc 1 384 3 is_stmt 1 view .LVU463
 1331              	.LVL145:
 385:Middlewares/ST/BlueNRG-2/hci/controller/bluenrg1_gatt_aci.c ****   cp0->Serv_Handle = htob(Serv_Handle, 2);
 1332              		.loc 1 385 3 view .LVU464
 1333              		.loc 1 385 20 is_stmt 0 view .LVU465
 1334 000e 01AA     		add	r2, sp, #4
 1335              	.LVL146:
 1336              		.loc 1 385 20 view .LVU466
 1337 0010 ADF80400 		strh	r0, [sp, #4]	@ movhi
 386:Middlewares/ST/BlueNRG-2/hci/controller/bluenrg1_gatt_aci.c ****   index_input += 2;
 1338              		.loc 1 386 3 is_stmt 1 view .LVU467
 1339              	.LVL147:
 387:Middlewares/ST/BlueNRG-2/hci/controller/bluenrg1_gatt_aci.c ****   cp0->Include_Handle = htob(Include_Handle, 2);
 1340              		.loc 1 387 3 view .LVU468
 1341              		.loc 1 387 23 is_stmt 0 view .LVU469
 1342 0014 ADF80610 		strh	r1, [sp, #6]	@ movhi
 388:Middlewares/ST/BlueNRG-2/hci/controller/bluenrg1_gatt_aci.c ****   index_input += 2;
 1343              		.loc 1 388 3 is_stmt 1 view .LVU470
 1344              	.LVL148:
 389:Middlewares/ST/BlueNRG-2/hci/controller/bluenrg1_gatt_aci.c ****   BLUENRG_memset(&rq, 0, sizeof(rq));
 1345              		.loc 1 389 3 view .LVU471
 1346 0018 4293     		str	r3, [sp, #264]
 1347 001a 4393     		str	r3, [sp, #268]
 1348 001c 4493     		str	r3, [sp, #272]
 1349 001e 4593     		str	r3, [sp, #276]
 1350 0020 4693     		str	r3, [sp, #280]
 1351 0022 4793     		str	r3, [sp, #284]
 390:Middlewares/ST/BlueNRG-2/hci/controller/bluenrg1_gatt_aci.c ****   rq.ogf = 0x3f;
 1352              		.loc 1 390 3 view .LVU472
 1353              		.loc 1 390 10 is_stmt 0 view .LVU473
 1354 0024 3F21     		movs	r1, #63
 1355              	.LVL149:
 1356              		.loc 1 390 10 view .LVU474
 1357 0026 ADF80811 		strh	r1, [sp, #264]	@ movhi
 391:Middlewares/ST/BlueNRG-2/hci/controller/bluenrg1_gatt_aci.c ****   rq.ocf = 0x109;
 1358              		.loc 1 391 3 is_stmt 1 view .LVU475
 1359              		.loc 1 391 10 is_stmt 0 view .LVU476
 1360 002a 40F20911 		movw	r1, #265
 1361 002e ADF80A11 		strh	r1, [sp, #266]	@ movhi
ARM GAS  C:\Users\IAHERN~1\AppData\Local\Temp\ccP26j2c.s 			page 32


 392:Middlewares/ST/BlueNRG-2/hci/controller/bluenrg1_gatt_aci.c ****   rq.cparam = cmd_buffer;
 1362              		.loc 1 392 3 is_stmt 1 view .LVU477
 1363              		.loc 1 392 13 is_stmt 0 view .LVU478
 1364 0032 4492     		str	r2, [sp, #272]
 393:Middlewares/ST/BlueNRG-2/hci/controller/bluenrg1_gatt_aci.c ****   rq.clen = index_input;
 1365              		.loc 1 393 3 is_stmt 1 view .LVU479
 1366              		.loc 1 393 11 is_stmt 0 view .LVU480
 1367 0034 0422     		movs	r2, #4
 1368              	.LVL150:
 1369              		.loc 1 393 11 view .LVU481
 1370 0036 4592     		str	r2, [sp, #276]
 394:Middlewares/ST/BlueNRG-2/hci/controller/bluenrg1_gatt_aci.c ****   rq.rparam = &status;
 1371              		.loc 1 394 3 is_stmt 1 view .LVU482
 1372              		.loc 1 394 13 is_stmt 0 view .LVU483
 1373 0038 4694     		str	r4, [sp, #280]
 395:Middlewares/ST/BlueNRG-2/hci/controller/bluenrg1_gatt_aci.c ****   rq.rlen = 1;
 1374              		.loc 1 395 3 is_stmt 1 view .LVU484
 1375              		.loc 1 395 11 is_stmt 0 view .LVU485
 1376 003a 0122     		movs	r2, #1
 1377 003c 4792     		str	r2, [sp, #284]
 396:Middlewares/ST/BlueNRG-2/hci/controller/bluenrg1_gatt_aci.c ****   if (hci_send_req(&rq, FALSE) < 0)
 1378              		.loc 1 396 3 is_stmt 1 view .LVU486
 1379              		.loc 1 396 7 is_stmt 0 view .LVU487
 1380 003e 1946     		mov	r1, r3
 1381 0040 42A8     		add	r0, sp, #264
 1382              	.LVL151:
 1383              		.loc 1 396 7 view .LVU488
 1384 0042 FFF7FEFF 		bl	hci_send_req
 1385              	.LVL152:
 1386              		.loc 1 396 6 discriminator 1 view .LVU489
 1387 0046 0028     		cmp	r0, #0
 1388 0048 03DB     		blt	.L63
 397:Middlewares/ST/BlueNRG-2/hci/controller/bluenrg1_gatt_aci.c ****     return BLE_STATUS_TIMEOUT;
 398:Middlewares/ST/BlueNRG-2/hci/controller/bluenrg1_gatt_aci.c ****   if (status) {
 1389              		.loc 1 398 3 is_stmt 1 view .LVU490
 1390              		.loc 1 398 7 is_stmt 0 view .LVU491
 1391 004a 9DF80300 		ldrb	r0, [sp, #3]	@ zero_extendqisi2
 1392              	.L62:
 399:Middlewares/ST/BlueNRG-2/hci/controller/bluenrg1_gatt_aci.c ****     return status;
 400:Middlewares/ST/BlueNRG-2/hci/controller/bluenrg1_gatt_aci.c ****   }
 401:Middlewares/ST/BlueNRG-2/hci/controller/bluenrg1_gatt_aci.c ****   return BLE_STATUS_SUCCESS;
 402:Middlewares/ST/BlueNRG-2/hci/controller/bluenrg1_gatt_aci.c **** }
 1393              		.loc 1 402 1 view .LVU492
 1394 004e 48B0     		add	sp, sp, #288
 1395              		.cfi_remember_state
 1396              		.cfi_def_cfa_offset 8
 1397              		@ sp needed
 1398 0050 10BD     		pop	{r4, pc}
 1399              	.LVL153:
 1400              	.L63:
 1401              		.cfi_restore_state
 397:Middlewares/ST/BlueNRG-2/hci/controller/bluenrg1_gatt_aci.c ****     return BLE_STATUS_TIMEOUT;
 1402              		.loc 1 397 12 view .LVU493
 1403 0052 FF20     		movs	r0, #255
 1404 0054 FBE7     		b	.L62
 1405              		.cfi_endproc
 1406              	.LFE145:
ARM GAS  C:\Users\IAHERN~1\AppData\Local\Temp\ccP26j2c.s 			page 33


 1408              		.section	.text.aci_gatt_set_event_mask,"ax",%progbits
 1409              		.align	1
 1410              		.global	aci_gatt_set_event_mask
 1411              		.syntax unified
 1412              		.thumb
 1413              		.thumb_func
 1415              	aci_gatt_set_event_mask:
 1416              	.LVL154:
 1417              	.LFB146:
 403:Middlewares/ST/BlueNRG-2/hci/controller/bluenrg1_gatt_aci.c **** tBleStatus aci_gatt_set_event_mask(uint32_t GATT_Evt_Mask)
 404:Middlewares/ST/BlueNRG-2/hci/controller/bluenrg1_gatt_aci.c **** {
 1418              		.loc 1 404 1 is_stmt 1 view -0
 1419              		.cfi_startproc
 1420              		@ args = 0, pretend = 0, frame = 288
 1421              		@ frame_needed = 0, uses_anonymous_args = 0
 1422              		.loc 1 404 1 is_stmt 0 view .LVU495
 1423 0000 00B5     		push	{lr}
 1424              		.cfi_def_cfa_offset 4
 1425              		.cfi_offset 14, -4
 1426 0002 C9B0     		sub	sp, sp, #292
 1427              		.cfi_def_cfa_offset 296
 405:Middlewares/ST/BlueNRG-2/hci/controller/bluenrg1_gatt_aci.c ****   struct hci_request rq;
 1428              		.loc 1 405 3 is_stmt 1 view .LVU496
 406:Middlewares/ST/BlueNRG-2/hci/controller/bluenrg1_gatt_aci.c ****   uint8_t cmd_buffer[258];
 1429              		.loc 1 406 3 view .LVU497
 407:Middlewares/ST/BlueNRG-2/hci/controller/bluenrg1_gatt_aci.c ****   aci_gatt_set_event_mask_cp0 *cp0 = (aci_gatt_set_event_mask_cp0*)(cmd_buffer);
 1430              		.loc 1 407 3 view .LVU498
 1431              	.LVL155:
 408:Middlewares/ST/BlueNRG-2/hci/controller/bluenrg1_gatt_aci.c ****   tBleStatus status = 0;
 1432              		.loc 1 408 3 view .LVU499
 1433              		.loc 1 408 14 is_stmt 0 view .LVU500
 1434 0004 0DF10303 		add	r3, sp, #3
 1435 0008 0021     		movs	r1, #0
 1436 000a 8DF80310 		strb	r1, [sp, #3]
 409:Middlewares/ST/BlueNRG-2/hci/controller/bluenrg1_gatt_aci.c ****   uint8_t index_input = 0;
 1437              		.loc 1 409 3 is_stmt 1 view .LVU501
 1438              	.LVL156:
 410:Middlewares/ST/BlueNRG-2/hci/controller/bluenrg1_gatt_aci.c ****   cp0->GATT_Evt_Mask = htob(GATT_Evt_Mask, 4);
 1439              		.loc 1 410 3 view .LVU502
 1440              		.loc 1 410 22 is_stmt 0 view .LVU503
 1441 000e 01AA     		add	r2, sp, #4
 1442              	.LVL157:
 1443              		.loc 1 410 22 view .LVU504
 1444 0010 0190     		str	r0, [sp, #4]
 411:Middlewares/ST/BlueNRG-2/hci/controller/bluenrg1_gatt_aci.c ****   index_input += 4;
 1445              		.loc 1 411 3 is_stmt 1 view .LVU505
 1446              	.LVL158:
 412:Middlewares/ST/BlueNRG-2/hci/controller/bluenrg1_gatt_aci.c ****   BLUENRG_memset(&rq, 0, sizeof(rq));
 1447              		.loc 1 412 3 view .LVU506
 1448 0012 4291     		str	r1, [sp, #264]
 1449 0014 4391     		str	r1, [sp, #268]
 1450 0016 4491     		str	r1, [sp, #272]
 1451 0018 4591     		str	r1, [sp, #276]
 1452 001a 4691     		str	r1, [sp, #280]
 1453 001c 4791     		str	r1, [sp, #284]
 413:Middlewares/ST/BlueNRG-2/hci/controller/bluenrg1_gatt_aci.c ****   rq.ogf = 0x3f;
 1454              		.loc 1 413 3 view .LVU507
ARM GAS  C:\Users\IAHERN~1\AppData\Local\Temp\ccP26j2c.s 			page 34


 1455              		.loc 1 413 10 is_stmt 0 view .LVU508
 1456 001e 3F20     		movs	r0, #63
 1457              	.LVL159:
 1458              		.loc 1 413 10 view .LVU509
 1459 0020 ADF80801 		strh	r0, [sp, #264]	@ movhi
 414:Middlewares/ST/BlueNRG-2/hci/controller/bluenrg1_gatt_aci.c ****   rq.ocf = 0x10a;
 1460              		.loc 1 414 3 is_stmt 1 view .LVU510
 1461              		.loc 1 414 10 is_stmt 0 view .LVU511
 1462 0024 4FF48570 		mov	r0, #266
 1463 0028 ADF80A01 		strh	r0, [sp, #266]	@ movhi
 415:Middlewares/ST/BlueNRG-2/hci/controller/bluenrg1_gatt_aci.c ****   rq.cparam = cmd_buffer;
 1464              		.loc 1 415 3 is_stmt 1 view .LVU512
 1465              		.loc 1 415 13 is_stmt 0 view .LVU513
 1466 002c 4492     		str	r2, [sp, #272]
 416:Middlewares/ST/BlueNRG-2/hci/controller/bluenrg1_gatt_aci.c ****   rq.clen = index_input;
 1467              		.loc 1 416 3 is_stmt 1 view .LVU514
 1468              		.loc 1 416 11 is_stmt 0 view .LVU515
 1469 002e 0422     		movs	r2, #4
 1470              	.LVL160:
 1471              		.loc 1 416 11 view .LVU516
 1472 0030 4592     		str	r2, [sp, #276]
 417:Middlewares/ST/BlueNRG-2/hci/controller/bluenrg1_gatt_aci.c ****   rq.rparam = &status;
 1473              		.loc 1 417 3 is_stmt 1 view .LVU517
 1474              		.loc 1 417 13 is_stmt 0 view .LVU518
 1475 0032 4693     		str	r3, [sp, #280]
 418:Middlewares/ST/BlueNRG-2/hci/controller/bluenrg1_gatt_aci.c ****   rq.rlen = 1;
 1476              		.loc 1 418 3 is_stmt 1 view .LVU519
 1477              		.loc 1 418 11 is_stmt 0 view .LVU520
 1478 0034 0123     		movs	r3, #1
 1479 0036 4793     		str	r3, [sp, #284]
 419:Middlewares/ST/BlueNRG-2/hci/controller/bluenrg1_gatt_aci.c ****   if (hci_send_req(&rq, FALSE) < 0)
 1480              		.loc 1 419 3 is_stmt 1 view .LVU521
 1481              		.loc 1 419 7 is_stmt 0 view .LVU522
 1482 0038 42A8     		add	r0, sp, #264
 1483 003a FFF7FEFF 		bl	hci_send_req
 1484              	.LVL161:
 1485              		.loc 1 419 6 discriminator 1 view .LVU523
 1486 003e 0028     		cmp	r0, #0
 1487 0040 04DB     		blt	.L67
 420:Middlewares/ST/BlueNRG-2/hci/controller/bluenrg1_gatt_aci.c ****     return BLE_STATUS_TIMEOUT;
 421:Middlewares/ST/BlueNRG-2/hci/controller/bluenrg1_gatt_aci.c ****   if (status) {
 1488              		.loc 1 421 3 is_stmt 1 view .LVU524
 1489              		.loc 1 421 7 is_stmt 0 view .LVU525
 1490 0042 9DF80300 		ldrb	r0, [sp, #3]	@ zero_extendqisi2
 1491              	.L66:
 422:Middlewares/ST/BlueNRG-2/hci/controller/bluenrg1_gatt_aci.c ****     return status;
 423:Middlewares/ST/BlueNRG-2/hci/controller/bluenrg1_gatt_aci.c ****   }
 424:Middlewares/ST/BlueNRG-2/hci/controller/bluenrg1_gatt_aci.c ****   return BLE_STATUS_SUCCESS;
 425:Middlewares/ST/BlueNRG-2/hci/controller/bluenrg1_gatt_aci.c **** }
 1492              		.loc 1 425 1 view .LVU526
 1493 0046 49B0     		add	sp, sp, #292
 1494              		.cfi_remember_state
 1495              		.cfi_def_cfa_offset 4
 1496              		@ sp needed
 1497 0048 5DF804FB 		ldr	pc, [sp], #4
 1498              	.LVL162:
 1499              	.L67:
ARM GAS  C:\Users\IAHERN~1\AppData\Local\Temp\ccP26j2c.s 			page 35


 1500              		.cfi_restore_state
 420:Middlewares/ST/BlueNRG-2/hci/controller/bluenrg1_gatt_aci.c ****     return BLE_STATUS_TIMEOUT;
 1501              		.loc 1 420 12 view .LVU527
 1502 004c FF20     		movs	r0, #255
 1503 004e FAE7     		b	.L66
 1504              		.cfi_endproc
 1505              	.LFE146:
 1507              		.section	.text.aci_gatt_exchange_config,"ax",%progbits
 1508              		.align	1
 1509              		.global	aci_gatt_exchange_config
 1510              		.syntax unified
 1511              		.thumb
 1512              		.thumb_func
 1514              	aci_gatt_exchange_config:
 1515              	.LVL163:
 1516              	.LFB147:
 426:Middlewares/ST/BlueNRG-2/hci/controller/bluenrg1_gatt_aci.c **** tBleStatus aci_gatt_exchange_config(uint16_t Connection_Handle)
 427:Middlewares/ST/BlueNRG-2/hci/controller/bluenrg1_gatt_aci.c **** {
 1517              		.loc 1 427 1 is_stmt 1 view -0
 1518              		.cfi_startproc
 1519              		@ args = 0, pretend = 0, frame = 288
 1520              		@ frame_needed = 0, uses_anonymous_args = 0
 1521              		.loc 1 427 1 is_stmt 0 view .LVU529
 1522 0000 00B5     		push	{lr}
 1523              		.cfi_def_cfa_offset 4
 1524              		.cfi_offset 14, -4
 1525 0002 C9B0     		sub	sp, sp, #292
 1526              		.cfi_def_cfa_offset 296
 428:Middlewares/ST/BlueNRG-2/hci/controller/bluenrg1_gatt_aci.c ****   struct hci_request rq;
 1527              		.loc 1 428 3 is_stmt 1 view .LVU530
 429:Middlewares/ST/BlueNRG-2/hci/controller/bluenrg1_gatt_aci.c ****   uint8_t cmd_buffer[258];
 1528              		.loc 1 429 3 view .LVU531
 430:Middlewares/ST/BlueNRG-2/hci/controller/bluenrg1_gatt_aci.c ****   aci_gatt_exchange_config_cp0 *cp0 = (aci_gatt_exchange_config_cp0*)(cmd_buffer);
 1529              		.loc 1 430 3 view .LVU532
 1530              	.LVL164:
 431:Middlewares/ST/BlueNRG-2/hci/controller/bluenrg1_gatt_aci.c ****   tBleStatus status = 0;
 1531              		.loc 1 431 3 view .LVU533
 1532              		.loc 1 431 14 is_stmt 0 view .LVU534
 1533 0004 0DF10303 		add	r3, sp, #3
 1534 0008 0021     		movs	r1, #0
 1535 000a 8DF80310 		strb	r1, [sp, #3]
 432:Middlewares/ST/BlueNRG-2/hci/controller/bluenrg1_gatt_aci.c ****   uint8_t index_input = 0;
 1536              		.loc 1 432 3 is_stmt 1 view .LVU535
 1537              	.LVL165:
 433:Middlewares/ST/BlueNRG-2/hci/controller/bluenrg1_gatt_aci.c ****   cp0->Connection_Handle = htob(Connection_Handle, 2);
 1538              		.loc 1 433 3 view .LVU536
 1539              		.loc 1 433 26 is_stmt 0 view .LVU537
 1540 000e 01AA     		add	r2, sp, #4
 1541              	.LVL166:
 1542              		.loc 1 433 26 view .LVU538
 1543 0010 ADF80400 		strh	r0, [sp, #4]	@ movhi
 434:Middlewares/ST/BlueNRG-2/hci/controller/bluenrg1_gatt_aci.c ****   index_input += 2;
 1544              		.loc 1 434 3 is_stmt 1 view .LVU539
 1545              	.LVL167:
 435:Middlewares/ST/BlueNRG-2/hci/controller/bluenrg1_gatt_aci.c ****   BLUENRG_memset(&rq, 0, sizeof(rq));
 1546              		.loc 1 435 3 view .LVU540
 1547 0014 4291     		str	r1, [sp, #264]
ARM GAS  C:\Users\IAHERN~1\AppData\Local\Temp\ccP26j2c.s 			page 36


 1548 0016 4391     		str	r1, [sp, #268]
 1549 0018 4491     		str	r1, [sp, #272]
 1550 001a 4591     		str	r1, [sp, #276]
 1551 001c 4691     		str	r1, [sp, #280]
 1552 001e 4791     		str	r1, [sp, #284]
 436:Middlewares/ST/BlueNRG-2/hci/controller/bluenrg1_gatt_aci.c ****   rq.ogf = 0x3f;
 1553              		.loc 1 436 3 view .LVU541
 1554              		.loc 1 436 10 is_stmt 0 view .LVU542
 1555 0020 3F20     		movs	r0, #63
 1556              	.LVL168:
 1557              		.loc 1 436 10 view .LVU543
 1558 0022 ADF80801 		strh	r0, [sp, #264]	@ movhi
 437:Middlewares/ST/BlueNRG-2/hci/controller/bluenrg1_gatt_aci.c ****   rq.ocf = 0x10b;
 1559              		.loc 1 437 3 is_stmt 1 view .LVU544
 1560              		.loc 1 437 10 is_stmt 0 view .LVU545
 1561 0026 40F20B10 		movw	r0, #267
 1562 002a ADF80A01 		strh	r0, [sp, #266]	@ movhi
 438:Middlewares/ST/BlueNRG-2/hci/controller/bluenrg1_gatt_aci.c ****   rq.event = 0x0F;
 1563              		.loc 1 438 3 is_stmt 1 view .LVU546
 1564              		.loc 1 438 12 is_stmt 0 view .LVU547
 1565 002e 0F20     		movs	r0, #15
 1566 0030 4390     		str	r0, [sp, #268]
 439:Middlewares/ST/BlueNRG-2/hci/controller/bluenrg1_gatt_aci.c ****   rq.cparam = cmd_buffer;
 1567              		.loc 1 439 3 is_stmt 1 view .LVU548
 1568              		.loc 1 439 13 is_stmt 0 view .LVU549
 1569 0032 4492     		str	r2, [sp, #272]
 440:Middlewares/ST/BlueNRG-2/hci/controller/bluenrg1_gatt_aci.c ****   rq.clen = index_input;
 1570              		.loc 1 440 3 is_stmt 1 view .LVU550
 1571              		.loc 1 440 11 is_stmt 0 view .LVU551
 1572 0034 0222     		movs	r2, #2
 1573              	.LVL169:
 1574              		.loc 1 440 11 view .LVU552
 1575 0036 4592     		str	r2, [sp, #276]
 441:Middlewares/ST/BlueNRG-2/hci/controller/bluenrg1_gatt_aci.c ****   rq.rparam = &status;
 1576              		.loc 1 441 3 is_stmt 1 view .LVU553
 1577              		.loc 1 441 13 is_stmt 0 view .LVU554
 1578 0038 4693     		str	r3, [sp, #280]
 442:Middlewares/ST/BlueNRG-2/hci/controller/bluenrg1_gatt_aci.c ****   rq.rlen = 1;
 1579              		.loc 1 442 3 is_stmt 1 view .LVU555
 1580              		.loc 1 442 11 is_stmt 0 view .LVU556
 1581 003a 0123     		movs	r3, #1
 1582 003c 4793     		str	r3, [sp, #284]
 443:Middlewares/ST/BlueNRG-2/hci/controller/bluenrg1_gatt_aci.c ****   if (hci_send_req(&rq, FALSE) < 0)
 1583              		.loc 1 443 3 is_stmt 1 view .LVU557
 1584              		.loc 1 443 7 is_stmt 0 view .LVU558
 1585 003e 42A8     		add	r0, sp, #264
 1586 0040 FFF7FEFF 		bl	hci_send_req
 1587              	.LVL170:
 1588              		.loc 1 443 6 discriminator 1 view .LVU559
 1589 0044 0028     		cmp	r0, #0
 1590 0046 04DB     		blt	.L71
 444:Middlewares/ST/BlueNRG-2/hci/controller/bluenrg1_gatt_aci.c ****     return BLE_STATUS_TIMEOUT;
 445:Middlewares/ST/BlueNRG-2/hci/controller/bluenrg1_gatt_aci.c ****   if (status) {
 1591              		.loc 1 445 3 is_stmt 1 view .LVU560
 1592              		.loc 1 445 7 is_stmt 0 view .LVU561
 1593 0048 9DF80300 		ldrb	r0, [sp, #3]	@ zero_extendqisi2
 1594              	.L70:
ARM GAS  C:\Users\IAHERN~1\AppData\Local\Temp\ccP26j2c.s 			page 37


 446:Middlewares/ST/BlueNRG-2/hci/controller/bluenrg1_gatt_aci.c ****     return status;
 447:Middlewares/ST/BlueNRG-2/hci/controller/bluenrg1_gatt_aci.c ****   }
 448:Middlewares/ST/BlueNRG-2/hci/controller/bluenrg1_gatt_aci.c ****   return BLE_STATUS_SUCCESS;
 449:Middlewares/ST/BlueNRG-2/hci/controller/bluenrg1_gatt_aci.c **** }
 1595              		.loc 1 449 1 view .LVU562
 1596 004c 49B0     		add	sp, sp, #292
 1597              		.cfi_remember_state
 1598              		.cfi_def_cfa_offset 4
 1599              		@ sp needed
 1600 004e 5DF804FB 		ldr	pc, [sp], #4
 1601              	.LVL171:
 1602              	.L71:
 1603              		.cfi_restore_state
 444:Middlewares/ST/BlueNRG-2/hci/controller/bluenrg1_gatt_aci.c ****     return BLE_STATUS_TIMEOUT;
 1604              		.loc 1 444 12 view .LVU563
 1605 0052 FF20     		movs	r0, #255
 1606 0054 FAE7     		b	.L70
 1607              		.cfi_endproc
 1608              	.LFE147:
 1610              		.section	.text.aci_att_find_info_req,"ax",%progbits
 1611              		.align	1
 1612              		.global	aci_att_find_info_req
 1613              		.syntax unified
 1614              		.thumb
 1615              		.thumb_func
 1617              	aci_att_find_info_req:
 1618              	.LVL172:
 1619              	.LFB148:
 450:Middlewares/ST/BlueNRG-2/hci/controller/bluenrg1_gatt_aci.c **** tBleStatus aci_att_find_info_req(uint16_t Connection_Handle,
 451:Middlewares/ST/BlueNRG-2/hci/controller/bluenrg1_gatt_aci.c ****                                  uint16_t Start_Handle,
 452:Middlewares/ST/BlueNRG-2/hci/controller/bluenrg1_gatt_aci.c ****                                  uint16_t End_Handle)
 453:Middlewares/ST/BlueNRG-2/hci/controller/bluenrg1_gatt_aci.c **** {
 1620              		.loc 1 453 1 is_stmt 1 view -0
 1621              		.cfi_startproc
 1622              		@ args = 0, pretend = 0, frame = 288
 1623              		@ frame_needed = 0, uses_anonymous_args = 0
 1624              		.loc 1 453 1 is_stmt 0 view .LVU565
 1625 0000 30B5     		push	{r4, r5, lr}
 1626              		.cfi_def_cfa_offset 12
 1627              		.cfi_offset 4, -12
 1628              		.cfi_offset 5, -8
 1629              		.cfi_offset 14, -4
 1630 0002 C9B0     		sub	sp, sp, #292
 1631              		.cfi_def_cfa_offset 304
 454:Middlewares/ST/BlueNRG-2/hci/controller/bluenrg1_gatt_aci.c ****   struct hci_request rq;
 1632              		.loc 1 454 3 is_stmt 1 view .LVU566
 455:Middlewares/ST/BlueNRG-2/hci/controller/bluenrg1_gatt_aci.c ****   uint8_t cmd_buffer[258];
 1633              		.loc 1 455 3 view .LVU567
 456:Middlewares/ST/BlueNRG-2/hci/controller/bluenrg1_gatt_aci.c ****   aci_att_find_info_req_cp0 *cp0 = (aci_att_find_info_req_cp0*)(cmd_buffer);
 1634              		.loc 1 456 3 view .LVU568
 1635              	.LVL173:
 457:Middlewares/ST/BlueNRG-2/hci/controller/bluenrg1_gatt_aci.c ****   tBleStatus status = 0;
 1636              		.loc 1 457 3 view .LVU569
 1637              		.loc 1 457 14 is_stmt 0 view .LVU570
 1638 0004 0DF10305 		add	r5, sp, #3
 1639 0008 0023     		movs	r3, #0
 1640 000a 8DF80330 		strb	r3, [sp, #3]
ARM GAS  C:\Users\IAHERN~1\AppData\Local\Temp\ccP26j2c.s 			page 38


 458:Middlewares/ST/BlueNRG-2/hci/controller/bluenrg1_gatt_aci.c ****   uint8_t index_input = 0;
 1641              		.loc 1 458 3 is_stmt 1 view .LVU571
 1642              	.LVL174:
 459:Middlewares/ST/BlueNRG-2/hci/controller/bluenrg1_gatt_aci.c ****   cp0->Connection_Handle = htob(Connection_Handle, 2);
 1643              		.loc 1 459 3 view .LVU572
 1644              		.loc 1 459 26 is_stmt 0 view .LVU573
 1645 000e 01AC     		add	r4, sp, #4
 1646              	.LVL175:
 1647              		.loc 1 459 26 view .LVU574
 1648 0010 ADF80400 		strh	r0, [sp, #4]	@ movhi
 460:Middlewares/ST/BlueNRG-2/hci/controller/bluenrg1_gatt_aci.c ****   index_input += 2;
 1649              		.loc 1 460 3 is_stmt 1 view .LVU575
 1650              	.LVL176:
 461:Middlewares/ST/BlueNRG-2/hci/controller/bluenrg1_gatt_aci.c ****   cp0->Start_Handle = htob(Start_Handle, 2);
 1651              		.loc 1 461 3 view .LVU576
 1652              		.loc 1 461 21 is_stmt 0 view .LVU577
 1653 0014 ADF80610 		strh	r1, [sp, #6]	@ movhi
 462:Middlewares/ST/BlueNRG-2/hci/controller/bluenrg1_gatt_aci.c ****   index_input += 2;
 1654              		.loc 1 462 3 is_stmt 1 view .LVU578
 1655              	.LVL177:
 463:Middlewares/ST/BlueNRG-2/hci/controller/bluenrg1_gatt_aci.c ****   cp0->End_Handle = htob(End_Handle, 2);
 1656              		.loc 1 463 3 view .LVU579
 1657              		.loc 1 463 19 is_stmt 0 view .LVU580
 1658 0018 ADF80820 		strh	r2, [sp, #8]	@ movhi
 464:Middlewares/ST/BlueNRG-2/hci/controller/bluenrg1_gatt_aci.c ****   index_input += 2;
 1659              		.loc 1 464 3 is_stmt 1 view .LVU581
 1660              	.LVL178:
 465:Middlewares/ST/BlueNRG-2/hci/controller/bluenrg1_gatt_aci.c ****   BLUENRG_memset(&rq, 0, sizeof(rq));
 1661              		.loc 1 465 3 view .LVU582
 1662 001c 4293     		str	r3, [sp, #264]
 1663 001e 4393     		str	r3, [sp, #268]
 1664 0020 4493     		str	r3, [sp, #272]
 1665 0022 4593     		str	r3, [sp, #276]
 1666 0024 4693     		str	r3, [sp, #280]
 1667 0026 4793     		str	r3, [sp, #284]
 466:Middlewares/ST/BlueNRG-2/hci/controller/bluenrg1_gatt_aci.c ****   rq.ogf = 0x3f;
 1668              		.loc 1 466 3 view .LVU583
 1669              		.loc 1 466 10 is_stmt 0 view .LVU584
 1670 0028 3F22     		movs	r2, #63
 1671              	.LVL179:
 1672              		.loc 1 466 10 view .LVU585
 1673 002a ADF80821 		strh	r2, [sp, #264]	@ movhi
 467:Middlewares/ST/BlueNRG-2/hci/controller/bluenrg1_gatt_aci.c ****   rq.ocf = 0x10c;
 1674              		.loc 1 467 3 is_stmt 1 view .LVU586
 1675              		.loc 1 467 10 is_stmt 0 view .LVU587
 1676 002e 4FF48672 		mov	r2, #268
 1677 0032 ADF80A21 		strh	r2, [sp, #266]	@ movhi
 468:Middlewares/ST/BlueNRG-2/hci/controller/bluenrg1_gatt_aci.c ****   rq.event = 0x0F;
 1678              		.loc 1 468 3 is_stmt 1 view .LVU588
 1679              		.loc 1 468 12 is_stmt 0 view .LVU589
 1680 0036 0F22     		movs	r2, #15
 1681 0038 4392     		str	r2, [sp, #268]
 469:Middlewares/ST/BlueNRG-2/hci/controller/bluenrg1_gatt_aci.c ****   rq.cparam = cmd_buffer;
 1682              		.loc 1 469 3 is_stmt 1 view .LVU590
 1683              		.loc 1 469 13 is_stmt 0 view .LVU591
 1684 003a 4494     		str	r4, [sp, #272]
 470:Middlewares/ST/BlueNRG-2/hci/controller/bluenrg1_gatt_aci.c ****   rq.clen = index_input;
ARM GAS  C:\Users\IAHERN~1\AppData\Local\Temp\ccP26j2c.s 			page 39


 1685              		.loc 1 470 3 is_stmt 1 view .LVU592
 1686              		.loc 1 470 11 is_stmt 0 view .LVU593
 1687 003c 0622     		movs	r2, #6
 1688 003e 4592     		str	r2, [sp, #276]
 471:Middlewares/ST/BlueNRG-2/hci/controller/bluenrg1_gatt_aci.c ****   rq.rparam = &status;
 1689              		.loc 1 471 3 is_stmt 1 view .LVU594
 1690              		.loc 1 471 13 is_stmt 0 view .LVU595
 1691 0040 4695     		str	r5, [sp, #280]
 472:Middlewares/ST/BlueNRG-2/hci/controller/bluenrg1_gatt_aci.c ****   rq.rlen = 1;
 1692              		.loc 1 472 3 is_stmt 1 view .LVU596
 1693              		.loc 1 472 11 is_stmt 0 view .LVU597
 1694 0042 0122     		movs	r2, #1
 1695 0044 4792     		str	r2, [sp, #284]
 473:Middlewares/ST/BlueNRG-2/hci/controller/bluenrg1_gatt_aci.c ****   if (hci_send_req(&rq, FALSE) < 0)
 1696              		.loc 1 473 3 is_stmt 1 view .LVU598
 1697              		.loc 1 473 7 is_stmt 0 view .LVU599
 1698 0046 1946     		mov	r1, r3
 1699              	.LVL180:
 1700              		.loc 1 473 7 view .LVU600
 1701 0048 42A8     		add	r0, sp, #264
 1702              	.LVL181:
 1703              		.loc 1 473 7 view .LVU601
 1704 004a FFF7FEFF 		bl	hci_send_req
 1705              	.LVL182:
 1706              		.loc 1 473 6 discriminator 1 view .LVU602
 1707 004e 0028     		cmp	r0, #0
 1708 0050 03DB     		blt	.L75
 474:Middlewares/ST/BlueNRG-2/hci/controller/bluenrg1_gatt_aci.c ****     return BLE_STATUS_TIMEOUT;
 475:Middlewares/ST/BlueNRG-2/hci/controller/bluenrg1_gatt_aci.c ****   if (status) {
 1709              		.loc 1 475 3 is_stmt 1 view .LVU603
 1710              		.loc 1 475 7 is_stmt 0 view .LVU604
 1711 0052 9DF80300 		ldrb	r0, [sp, #3]	@ zero_extendqisi2
 1712              	.L74:
 476:Middlewares/ST/BlueNRG-2/hci/controller/bluenrg1_gatt_aci.c ****     return status;
 477:Middlewares/ST/BlueNRG-2/hci/controller/bluenrg1_gatt_aci.c ****   }
 478:Middlewares/ST/BlueNRG-2/hci/controller/bluenrg1_gatt_aci.c ****   return BLE_STATUS_SUCCESS;
 479:Middlewares/ST/BlueNRG-2/hci/controller/bluenrg1_gatt_aci.c **** }
 1713              		.loc 1 479 1 view .LVU605
 1714 0056 49B0     		add	sp, sp, #292
 1715              		.cfi_remember_state
 1716              		.cfi_def_cfa_offset 12
 1717              		@ sp needed
 1718 0058 30BD     		pop	{r4, r5, pc}
 1719              	.LVL183:
 1720              	.L75:
 1721              		.cfi_restore_state
 474:Middlewares/ST/BlueNRG-2/hci/controller/bluenrg1_gatt_aci.c ****     return BLE_STATUS_TIMEOUT;
 1722              		.loc 1 474 12 view .LVU606
 1723 005a FF20     		movs	r0, #255
 1724 005c FBE7     		b	.L74
 1725              		.cfi_endproc
 1726              	.LFE148:
 1728              		.section	.text.aci_att_find_by_type_value_req,"ax",%progbits
 1729              		.align	1
 1730              		.global	aci_att_find_by_type_value_req
 1731              		.syntax unified
 1732              		.thumb
ARM GAS  C:\Users\IAHERN~1\AppData\Local\Temp\ccP26j2c.s 			page 40


 1733              		.thumb_func
 1735              	aci_att_find_by_type_value_req:
 1736              	.LVL184:
 1737              	.LFB149:
 480:Middlewares/ST/BlueNRG-2/hci/controller/bluenrg1_gatt_aci.c **** tBleStatus aci_att_find_by_type_value_req(uint16_t Connection_Handle,
 481:Middlewares/ST/BlueNRG-2/hci/controller/bluenrg1_gatt_aci.c ****                                           uint16_t Start_Handle,
 482:Middlewares/ST/BlueNRG-2/hci/controller/bluenrg1_gatt_aci.c ****                                           uint16_t End_Handle,
 483:Middlewares/ST/BlueNRG-2/hci/controller/bluenrg1_gatt_aci.c ****                                           uint16_t UUID,
 484:Middlewares/ST/BlueNRG-2/hci/controller/bluenrg1_gatt_aci.c ****                                           uint8_t Attribute_Val_Length,
 485:Middlewares/ST/BlueNRG-2/hci/controller/bluenrg1_gatt_aci.c ****                                           uint8_t Attribute_Val[])
 486:Middlewares/ST/BlueNRG-2/hci/controller/bluenrg1_gatt_aci.c **** {
 1738              		.loc 1 486 1 is_stmt 1 view -0
 1739              		.cfi_startproc
 1740              		@ args = 8, pretend = 0, frame = 288
 1741              		@ frame_needed = 0, uses_anonymous_args = 0
 1742              		.loc 1 486 1 is_stmt 0 view .LVU608
 1743 0000 F0B5     		push	{r4, r5, r6, r7, lr}
 1744              		.cfi_def_cfa_offset 20
 1745              		.cfi_offset 4, -20
 1746              		.cfi_offset 5, -16
 1747              		.cfi_offset 6, -12
 1748              		.cfi_offset 7, -8
 1749              		.cfi_offset 14, -4
 1750 0002 C9B0     		sub	sp, sp, #292
 1751              		.cfi_def_cfa_offset 312
 1752 0004 9DF83851 		ldrb	r5, [sp, #312]	@ zero_extendqisi2
 487:Middlewares/ST/BlueNRG-2/hci/controller/bluenrg1_gatt_aci.c ****   struct hci_request rq;
 1753              		.loc 1 487 3 is_stmt 1 view .LVU609
 488:Middlewares/ST/BlueNRG-2/hci/controller/bluenrg1_gatt_aci.c ****   uint8_t cmd_buffer[258];
 1754              		.loc 1 488 3 view .LVU610
 489:Middlewares/ST/BlueNRG-2/hci/controller/bluenrg1_gatt_aci.c ****   aci_att_find_by_type_value_req_cp0 *cp0 = (aci_att_find_by_type_value_req_cp0*)(cmd_buffer);
 1755              		.loc 1 489 3 view .LVU611
 1756              	.LVL185:
 490:Middlewares/ST/BlueNRG-2/hci/controller/bluenrg1_gatt_aci.c ****   tBleStatus status = 0;
 1757              		.loc 1 490 3 view .LVU612
 1758              		.loc 1 490 14 is_stmt 0 view .LVU613
 1759 0008 0DF10307 		add	r7, sp, #3
 1760 000c 0024     		movs	r4, #0
 1761 000e 8DF80340 		strb	r4, [sp, #3]
 491:Middlewares/ST/BlueNRG-2/hci/controller/bluenrg1_gatt_aci.c ****   uint8_t index_input = 0;
 1762              		.loc 1 491 3 is_stmt 1 view .LVU614
 1763              	.LVL186:
 492:Middlewares/ST/BlueNRG-2/hci/controller/bluenrg1_gatt_aci.c ****   cp0->Connection_Handle = htob(Connection_Handle, 2);
 1764              		.loc 1 492 3 view .LVU615
 1765              		.loc 1 492 26 is_stmt 0 view .LVU616
 1766 0012 01AE     		add	r6, sp, #4
 1767              	.LVL187:
 1768              		.loc 1 492 26 view .LVU617
 1769 0014 ADF80400 		strh	r0, [sp, #4]	@ movhi
 493:Middlewares/ST/BlueNRG-2/hci/controller/bluenrg1_gatt_aci.c ****   index_input += 2;
 1770              		.loc 1 493 3 is_stmt 1 view .LVU618
 1771              	.LVL188:
 494:Middlewares/ST/BlueNRG-2/hci/controller/bluenrg1_gatt_aci.c ****   cp0->Start_Handle = htob(Start_Handle, 2);
 1772              		.loc 1 494 3 view .LVU619
 1773              		.loc 1 494 21 is_stmt 0 view .LVU620
 1774 0018 ADF80610 		strh	r1, [sp, #6]	@ movhi
 495:Middlewares/ST/BlueNRG-2/hci/controller/bluenrg1_gatt_aci.c ****   index_input += 2;
ARM GAS  C:\Users\IAHERN~1\AppData\Local\Temp\ccP26j2c.s 			page 41


 1775              		.loc 1 495 3 is_stmt 1 view .LVU621
 1776              	.LVL189:
 496:Middlewares/ST/BlueNRG-2/hci/controller/bluenrg1_gatt_aci.c ****   cp0->End_Handle = htob(End_Handle, 2);
 1777              		.loc 1 496 3 view .LVU622
 1778              		.loc 1 496 19 is_stmt 0 view .LVU623
 1779 001c ADF80820 		strh	r2, [sp, #8]	@ movhi
 497:Middlewares/ST/BlueNRG-2/hci/controller/bluenrg1_gatt_aci.c ****   index_input += 2;
 1780              		.loc 1 497 3 is_stmt 1 view .LVU624
 1781              	.LVL190:
 498:Middlewares/ST/BlueNRG-2/hci/controller/bluenrg1_gatt_aci.c ****   cp0->UUID = htob(UUID, 2);
 1782              		.loc 1 498 3 view .LVU625
 1783              		.loc 1 498 13 is_stmt 0 view .LVU626
 1784 0020 ADF80A30 		strh	r3, [sp, #10]	@ movhi
 499:Middlewares/ST/BlueNRG-2/hci/controller/bluenrg1_gatt_aci.c ****   index_input += 2;
 1785              		.loc 1 499 3 is_stmt 1 view .LVU627
 1786              	.LVL191:
 500:Middlewares/ST/BlueNRG-2/hci/controller/bluenrg1_gatt_aci.c ****   cp0->Attribute_Val_Length = htob(Attribute_Val_Length, 1);
 1787              		.loc 1 500 3 view .LVU628
 1788              		.loc 1 500 29 is_stmt 0 view .LVU629
 1789 0024 8DF80C50 		strb	r5, [sp, #12]
 501:Middlewares/ST/BlueNRG-2/hci/controller/bluenrg1_gatt_aci.c ****   index_input += 1;
 1790              		.loc 1 501 3 is_stmt 1 view .LVU630
 1791              	.LVL192:
 502:Middlewares/ST/BlueNRG-2/hci/controller/bluenrg1_gatt_aci.c ****   /* var_len_data input */
 503:Middlewares/ST/BlueNRG-2/hci/controller/bluenrg1_gatt_aci.c ****   {
 504:Middlewares/ST/BlueNRG-2/hci/controller/bluenrg1_gatt_aci.c ****     BLUENRG_memcpy((void *) &cp0->Attribute_Val, (const void *) Attribute_Val, Attribute_Val_Length
 1792              		.loc 1 504 5 view .LVU631
 1793 0028 2A46     		mov	r2, r5
 1794              	.LVL193:
 1795              		.loc 1 504 5 is_stmt 0 view .LVU632
 1796 002a 4F99     		ldr	r1, [sp, #316]
 1797              	.LVL194:
 1798              		.loc 1 504 5 view .LVU633
 1799 002c 0DF10D00 		add	r0, sp, #13
 1800              	.LVL195:
 1801              		.loc 1 504 5 view .LVU634
 1802 0030 FFF7FEFF 		bl	memcpy
 1803              	.LVL196:
 505:Middlewares/ST/BlueNRG-2/hci/controller/bluenrg1_gatt_aci.c ****     index_input += Attribute_Val_Length*sizeof(uint8_t);
 1804              		.loc 1 505 5 is_stmt 1 view .LVU635
 1805              		.loc 1 505 17 is_stmt 0 view .LVU636
 1806 0034 0935     		adds	r5, r5, #9
 1807 0036 EDB2     		uxtb	r5, r5
 1808              	.LVL197:
 506:Middlewares/ST/BlueNRG-2/hci/controller/bluenrg1_gatt_aci.c ****   }
 507:Middlewares/ST/BlueNRG-2/hci/controller/bluenrg1_gatt_aci.c ****   BLUENRG_memset(&rq, 0, sizeof(rq));
 1809              		.loc 1 507 3 is_stmt 1 view .LVU637
 1810 0038 4294     		str	r4, [sp, #264]
 1811 003a 4394     		str	r4, [sp, #268]
 1812 003c 4494     		str	r4, [sp, #272]
 1813 003e 4594     		str	r4, [sp, #276]
 1814 0040 4694     		str	r4, [sp, #280]
 1815 0042 4794     		str	r4, [sp, #284]
 508:Middlewares/ST/BlueNRG-2/hci/controller/bluenrg1_gatt_aci.c ****   rq.ogf = 0x3f;
 1816              		.loc 1 508 3 view .LVU638
 1817              		.loc 1 508 10 is_stmt 0 view .LVU639
 1818 0044 3F23     		movs	r3, #63
ARM GAS  C:\Users\IAHERN~1\AppData\Local\Temp\ccP26j2c.s 			page 42


 1819 0046 ADF80831 		strh	r3, [sp, #264]	@ movhi
 509:Middlewares/ST/BlueNRG-2/hci/controller/bluenrg1_gatt_aci.c ****   rq.ocf = 0x10d;
 1820              		.loc 1 509 3 is_stmt 1 view .LVU640
 1821              		.loc 1 509 10 is_stmt 0 view .LVU641
 1822 004a 40F20D13 		movw	r3, #269
 1823 004e ADF80A31 		strh	r3, [sp, #266]	@ movhi
 510:Middlewares/ST/BlueNRG-2/hci/controller/bluenrg1_gatt_aci.c ****   rq.event = 0x0F;
 1824              		.loc 1 510 3 is_stmt 1 view .LVU642
 1825              		.loc 1 510 12 is_stmt 0 view .LVU643
 1826 0052 0F23     		movs	r3, #15
 1827 0054 4393     		str	r3, [sp, #268]
 511:Middlewares/ST/BlueNRG-2/hci/controller/bluenrg1_gatt_aci.c ****   rq.cparam = cmd_buffer;
 1828              		.loc 1 511 3 is_stmt 1 view .LVU644
 1829              		.loc 1 511 13 is_stmt 0 view .LVU645
 1830 0056 4496     		str	r6, [sp, #272]
 512:Middlewares/ST/BlueNRG-2/hci/controller/bluenrg1_gatt_aci.c ****   rq.clen = index_input;
 1831              		.loc 1 512 3 is_stmt 1 view .LVU646
 1832              		.loc 1 512 11 is_stmt 0 view .LVU647
 1833 0058 4595     		str	r5, [sp, #276]
 513:Middlewares/ST/BlueNRG-2/hci/controller/bluenrg1_gatt_aci.c ****   rq.rparam = &status;
 1834              		.loc 1 513 3 is_stmt 1 view .LVU648
 1835              		.loc 1 513 13 is_stmt 0 view .LVU649
 1836 005a 4697     		str	r7, [sp, #280]
 514:Middlewares/ST/BlueNRG-2/hci/controller/bluenrg1_gatt_aci.c ****   rq.rlen = 1;
 1837              		.loc 1 514 3 is_stmt 1 view .LVU650
 1838              		.loc 1 514 11 is_stmt 0 view .LVU651
 1839 005c 0123     		movs	r3, #1
 1840 005e 4793     		str	r3, [sp, #284]
 515:Middlewares/ST/BlueNRG-2/hci/controller/bluenrg1_gatt_aci.c ****   if (hci_send_req(&rq, FALSE) < 0)
 1841              		.loc 1 515 3 is_stmt 1 view .LVU652
 1842              		.loc 1 515 7 is_stmt 0 view .LVU653
 1843 0060 2146     		mov	r1, r4
 1844 0062 42A8     		add	r0, sp, #264
 1845 0064 FFF7FEFF 		bl	hci_send_req
 1846              	.LVL198:
 1847              		.loc 1 515 6 discriminator 1 view .LVU654
 1848 0068 A042     		cmp	r0, r4
 1849 006a 03DB     		blt	.L79
 516:Middlewares/ST/BlueNRG-2/hci/controller/bluenrg1_gatt_aci.c ****     return BLE_STATUS_TIMEOUT;
 517:Middlewares/ST/BlueNRG-2/hci/controller/bluenrg1_gatt_aci.c ****   if (status) {
 1850              		.loc 1 517 3 is_stmt 1 view .LVU655
 1851              		.loc 1 517 7 is_stmt 0 view .LVU656
 1852 006c 9DF80300 		ldrb	r0, [sp, #3]	@ zero_extendqisi2
 1853              	.L78:
 518:Middlewares/ST/BlueNRG-2/hci/controller/bluenrg1_gatt_aci.c ****     return status;
 519:Middlewares/ST/BlueNRG-2/hci/controller/bluenrg1_gatt_aci.c ****   }
 520:Middlewares/ST/BlueNRG-2/hci/controller/bluenrg1_gatt_aci.c ****   return BLE_STATUS_SUCCESS;
 521:Middlewares/ST/BlueNRG-2/hci/controller/bluenrg1_gatt_aci.c **** }
 1854              		.loc 1 521 1 view .LVU657
 1855 0070 49B0     		add	sp, sp, #292
 1856              		.cfi_remember_state
 1857              		.cfi_def_cfa_offset 20
 1858              		@ sp needed
 1859 0072 F0BD     		pop	{r4, r5, r6, r7, pc}
 1860              	.LVL199:
 1861              	.L79:
 1862              		.cfi_restore_state
ARM GAS  C:\Users\IAHERN~1\AppData\Local\Temp\ccP26j2c.s 			page 43


 516:Middlewares/ST/BlueNRG-2/hci/controller/bluenrg1_gatt_aci.c ****     return BLE_STATUS_TIMEOUT;
 1863              		.loc 1 516 12 view .LVU658
 1864 0074 FF20     		movs	r0, #255
 1865 0076 FBE7     		b	.L78
 1866              		.cfi_endproc
 1867              	.LFE149:
 1869              		.section	.text.aci_att_read_by_type_req,"ax",%progbits
 1870              		.align	1
 1871              		.global	aci_att_read_by_type_req
 1872              		.syntax unified
 1873              		.thumb
 1874              		.thumb_func
 1876              	aci_att_read_by_type_req:
 1877              	.LVL200:
 1878              	.LFB150:
 522:Middlewares/ST/BlueNRG-2/hci/controller/bluenrg1_gatt_aci.c **** tBleStatus aci_att_read_by_type_req(uint16_t Connection_Handle,
 523:Middlewares/ST/BlueNRG-2/hci/controller/bluenrg1_gatt_aci.c ****                                     uint16_t Start_Handle,
 524:Middlewares/ST/BlueNRG-2/hci/controller/bluenrg1_gatt_aci.c ****                                     uint16_t End_Handle,
 525:Middlewares/ST/BlueNRG-2/hci/controller/bluenrg1_gatt_aci.c ****                                     uint8_t UUID_Type,
 526:Middlewares/ST/BlueNRG-2/hci/controller/bluenrg1_gatt_aci.c ****                                     UUID_t *UUID)
 527:Middlewares/ST/BlueNRG-2/hci/controller/bluenrg1_gatt_aci.c **** {
 1879              		.loc 1 527 1 is_stmt 1 view -0
 1880              		.cfi_startproc
 1881              		@ args = 4, pretend = 0, frame = 288
 1882              		@ frame_needed = 0, uses_anonymous_args = 0
 1883              		.loc 1 527 1 is_stmt 0 view .LVU660
 1884 0000 10B5     		push	{r4, lr}
 1885              		.cfi_def_cfa_offset 8
 1886              		.cfi_offset 4, -8
 1887              		.cfi_offset 14, -4
 1888 0002 C8B0     		sub	sp, sp, #288
 1889              		.cfi_def_cfa_offset 296
 528:Middlewares/ST/BlueNRG-2/hci/controller/bluenrg1_gatt_aci.c ****   struct hci_request rq;
 1890              		.loc 1 528 3 is_stmt 1 view .LVU661
 529:Middlewares/ST/BlueNRG-2/hci/controller/bluenrg1_gatt_aci.c ****   uint8_t cmd_buffer[258];
 1891              		.loc 1 529 3 view .LVU662
 530:Middlewares/ST/BlueNRG-2/hci/controller/bluenrg1_gatt_aci.c ****   aci_att_read_by_type_req_cp0 *cp0 = (aci_att_read_by_type_req_cp0*)(cmd_buffer);
 1892              		.loc 1 530 3 view .LVU663
 1893              	.LVL201:
 531:Middlewares/ST/BlueNRG-2/hci/controller/bluenrg1_gatt_aci.c ****   tBleStatus status = 0;
 1894              		.loc 1 531 3 view .LVU664
 1895              		.loc 1 531 14 is_stmt 0 view .LVU665
 1896 0004 0024     		movs	r4, #0
 1897 0006 8DF80340 		strb	r4, [sp, #3]
 532:Middlewares/ST/BlueNRG-2/hci/controller/bluenrg1_gatt_aci.c ****   uint8_t index_input = 0;
 1898              		.loc 1 532 3 is_stmt 1 view .LVU666
 1899              	.LVL202:
 533:Middlewares/ST/BlueNRG-2/hci/controller/bluenrg1_gatt_aci.c ****   cp0->Connection_Handle = htob(Connection_Handle, 2);
 1900              		.loc 1 533 3 view .LVU667
 1901              		.loc 1 533 26 is_stmt 0 view .LVU668
 1902 000a ADF80400 		strh	r0, [sp, #4]	@ movhi
 534:Middlewares/ST/BlueNRG-2/hci/controller/bluenrg1_gatt_aci.c ****   index_input += 2;
 1903              		.loc 1 534 3 is_stmt 1 view .LVU669
 1904              	.LVL203:
 535:Middlewares/ST/BlueNRG-2/hci/controller/bluenrg1_gatt_aci.c ****   cp0->Start_Handle = htob(Start_Handle, 2);
 1905              		.loc 1 535 3 view .LVU670
 1906              		.loc 1 535 21 is_stmt 0 view .LVU671
ARM GAS  C:\Users\IAHERN~1\AppData\Local\Temp\ccP26j2c.s 			page 44


 1907 000e ADF80610 		strh	r1, [sp, #6]	@ movhi
 536:Middlewares/ST/BlueNRG-2/hci/controller/bluenrg1_gatt_aci.c ****   index_input += 2;
 1908              		.loc 1 536 3 is_stmt 1 view .LVU672
 1909              	.LVL204:
 537:Middlewares/ST/BlueNRG-2/hci/controller/bluenrg1_gatt_aci.c ****   cp0->End_Handle = htob(End_Handle, 2);
 1910              		.loc 1 537 3 view .LVU673
 1911              		.loc 1 537 19 is_stmt 0 view .LVU674
 1912 0012 ADF80820 		strh	r2, [sp, #8]	@ movhi
 538:Middlewares/ST/BlueNRG-2/hci/controller/bluenrg1_gatt_aci.c ****   index_input += 2;
 1913              		.loc 1 538 3 is_stmt 1 view .LVU675
 1914              	.LVL205:
 539:Middlewares/ST/BlueNRG-2/hci/controller/bluenrg1_gatt_aci.c ****   cp0->UUID_Type = htob(UUID_Type, 1);
 1915              		.loc 1 539 3 view .LVU676
 1916              		.loc 1 539 18 is_stmt 0 view .LVU677
 1917 0016 8DF80A30 		strb	r3, [sp, #10]
 540:Middlewares/ST/BlueNRG-2/hci/controller/bluenrg1_gatt_aci.c ****   index_input += 1;
 1918              		.loc 1 540 3 is_stmt 1 view .LVU678
 1919              	.LVL206:
 1920              	.LBB13:
 541:Middlewares/ST/BlueNRG-2/hci/controller/bluenrg1_gatt_aci.c ****   /* var_len_data input */
 542:Middlewares/ST/BlueNRG-2/hci/controller/bluenrg1_gatt_aci.c ****   {
 543:Middlewares/ST/BlueNRG-2/hci/controller/bluenrg1_gatt_aci.c ****     uint8_t size;
 1921              		.loc 1 543 5 view .LVU679
 544:Middlewares/ST/BlueNRG-2/hci/controller/bluenrg1_gatt_aci.c ****     switch (UUID_Type) {
 1922              		.loc 1 544 5 view .LVU680
 1923 001a 012B     		cmp	r3, #1
 1924 001c 03D0     		beq	.L84
 1925 001e 022B     		cmp	r3, #2
 1926 0020 2AD1     		bne	.L85
 545:Middlewares/ST/BlueNRG-2/hci/controller/bluenrg1_gatt_aci.c ****       case 1: size = 2; break;
 546:Middlewares/ST/BlueNRG-2/hci/controller/bluenrg1_gatt_aci.c ****       case 2: size = 16; break;
 1927              		.loc 1 546 20 is_stmt 0 view .LVU681
 1928 0022 1024     		movs	r4, #16
 1929 0024 00E0     		b	.L82
 1930              	.L84:
 544:Middlewares/ST/BlueNRG-2/hci/controller/bluenrg1_gatt_aci.c ****     switch (UUID_Type) {
 1931              		.loc 1 544 5 view .LVU682
 1932 0026 0224     		movs	r4, #2
 1933              	.L82:
 1934              	.LVL207:
 547:Middlewares/ST/BlueNRG-2/hci/controller/bluenrg1_gatt_aci.c ****       default: return BLE_STATUS_ERROR;
 548:Middlewares/ST/BlueNRG-2/hci/controller/bluenrg1_gatt_aci.c ****     }
 549:Middlewares/ST/BlueNRG-2/hci/controller/bluenrg1_gatt_aci.c ****     BLUENRG_memcpy((void *) &cp0->UUID, (const void *) UUID, size);
 1935              		.loc 1 549 5 is_stmt 1 view .LVU683
 1936 0028 2246     		mov	r2, r4
 1937              	.LVL208:
 1938              		.loc 1 549 5 is_stmt 0 view .LVU684
 1939 002a 4A99     		ldr	r1, [sp, #296]
 1940              	.LVL209:
 1941              		.loc 1 549 5 view .LVU685
 1942 002c 0DF10B00 		add	r0, sp, #11
 1943              	.LVL210:
 1944              		.loc 1 549 5 view .LVU686
 1945 0030 FFF7FEFF 		bl	memcpy
 1946              	.LVL211:
 550:Middlewares/ST/BlueNRG-2/hci/controller/bluenrg1_gatt_aci.c ****     index_input += size;
 1947              		.loc 1 550 5 is_stmt 1 view .LVU687
ARM GAS  C:\Users\IAHERN~1\AppData\Local\Temp\ccP26j2c.s 			page 45


 1948              		.loc 1 550 17 is_stmt 0 view .LVU688
 1949 0034 0734     		adds	r4, r4, #7
 1950              	.LVL212:
 1951              		.loc 1 550 17 view .LVU689
 1952              	.LBE13:
 551:Middlewares/ST/BlueNRG-2/hci/controller/bluenrg1_gatt_aci.c ****   }
 552:Middlewares/ST/BlueNRG-2/hci/controller/bluenrg1_gatt_aci.c ****   BLUENRG_memset(&rq, 0, sizeof(rq));
 1953              		.loc 1 552 3 is_stmt 1 view .LVU690
 1954 0036 0021     		movs	r1, #0
 1955 0038 4291     		str	r1, [sp, #264]
 1956 003a 4391     		str	r1, [sp, #268]
 1957 003c 4491     		str	r1, [sp, #272]
 1958 003e 4591     		str	r1, [sp, #276]
 1959 0040 4691     		str	r1, [sp, #280]
 1960 0042 4791     		str	r1, [sp, #284]
 553:Middlewares/ST/BlueNRG-2/hci/controller/bluenrg1_gatt_aci.c ****   rq.ogf = 0x3f;
 1961              		.loc 1 553 3 view .LVU691
 1962              		.loc 1 553 10 is_stmt 0 view .LVU692
 1963 0044 3F23     		movs	r3, #63
 1964 0046 ADF80831 		strh	r3, [sp, #264]	@ movhi
 554:Middlewares/ST/BlueNRG-2/hci/controller/bluenrg1_gatt_aci.c ****   rq.ocf = 0x10e;
 1965              		.loc 1 554 3 is_stmt 1 view .LVU693
 1966              		.loc 1 554 10 is_stmt 0 view .LVU694
 1967 004a 4FF48773 		mov	r3, #270
 1968 004e ADF80A31 		strh	r3, [sp, #266]	@ movhi
 555:Middlewares/ST/BlueNRG-2/hci/controller/bluenrg1_gatt_aci.c ****   rq.event = 0x0F;
 1969              		.loc 1 555 3 is_stmt 1 view .LVU695
 1970              		.loc 1 555 12 is_stmt 0 view .LVU696
 1971 0052 0F23     		movs	r3, #15
 1972 0054 4393     		str	r3, [sp, #268]
 556:Middlewares/ST/BlueNRG-2/hci/controller/bluenrg1_gatt_aci.c ****   rq.cparam = cmd_buffer;
 1973              		.loc 1 556 3 is_stmt 1 view .LVU697
 1974              		.loc 1 556 13 is_stmt 0 view .LVU698
 1975 0056 01AB     		add	r3, sp, #4
 1976              	.LVL213:
 1977              		.loc 1 556 13 view .LVU699
 1978 0058 4493     		str	r3, [sp, #272]
 557:Middlewares/ST/BlueNRG-2/hci/controller/bluenrg1_gatt_aci.c ****   rq.clen = index_input;
 1979              		.loc 1 557 3 is_stmt 1 view .LVU700
 1980              		.loc 1 557 11 is_stmt 0 view .LVU701
 1981 005a 4594     		str	r4, [sp, #276]
 558:Middlewares/ST/BlueNRG-2/hci/controller/bluenrg1_gatt_aci.c ****   rq.rparam = &status;
 1982              		.loc 1 558 3 is_stmt 1 view .LVU702
 1983              		.loc 1 558 13 is_stmt 0 view .LVU703
 1984 005c 0DF10303 		add	r3, sp, #3
 1985              	.LVL214:
 1986              		.loc 1 558 13 view .LVU704
 1987 0060 4693     		str	r3, [sp, #280]
 559:Middlewares/ST/BlueNRG-2/hci/controller/bluenrg1_gatt_aci.c ****   rq.rlen = 1;
 1988              		.loc 1 559 3 is_stmt 1 view .LVU705
 1989              		.loc 1 559 11 is_stmt 0 view .LVU706
 1990 0062 0123     		movs	r3, #1
 1991 0064 4793     		str	r3, [sp, #284]
 560:Middlewares/ST/BlueNRG-2/hci/controller/bluenrg1_gatt_aci.c ****   if (hci_send_req(&rq, FALSE) < 0)
 1992              		.loc 1 560 3 is_stmt 1 view .LVU707
 1993              		.loc 1 560 7 is_stmt 0 view .LVU708
 1994 0066 42A8     		add	r0, sp, #264
ARM GAS  C:\Users\IAHERN~1\AppData\Local\Temp\ccP26j2c.s 			page 46


 1995 0068 FFF7FEFF 		bl	hci_send_req
 1996              	.LVL215:
 1997              		.loc 1 560 6 discriminator 1 view .LVU709
 1998 006c 0028     		cmp	r0, #0
 1999 006e 05DB     		blt	.L86
 561:Middlewares/ST/BlueNRG-2/hci/controller/bluenrg1_gatt_aci.c ****     return BLE_STATUS_TIMEOUT;
 562:Middlewares/ST/BlueNRG-2/hci/controller/bluenrg1_gatt_aci.c ****   if (status) {
 2000              		.loc 1 562 3 is_stmt 1 view .LVU710
 2001              		.loc 1 562 7 is_stmt 0 view .LVU711
 2002 0070 9DF80300 		ldrb	r0, [sp, #3]	@ zero_extendqisi2
 2003              	.LVL216:
 2004              	.L83:
 563:Middlewares/ST/BlueNRG-2/hci/controller/bluenrg1_gatt_aci.c ****     return status;
 564:Middlewares/ST/BlueNRG-2/hci/controller/bluenrg1_gatt_aci.c ****   }
 565:Middlewares/ST/BlueNRG-2/hci/controller/bluenrg1_gatt_aci.c ****   return BLE_STATUS_SUCCESS;
 566:Middlewares/ST/BlueNRG-2/hci/controller/bluenrg1_gatt_aci.c **** }
 2005              		.loc 1 566 1 view .LVU712
 2006 0074 48B0     		add	sp, sp, #288
 2007              		.cfi_remember_state
 2008              		.cfi_def_cfa_offset 8
 2009              		@ sp needed
 2010 0076 10BD     		pop	{r4, pc}
 2011              	.LVL217:
 2012              	.L85:
 2013              		.cfi_restore_state
 2014              	.LBB14:
 544:Middlewares/ST/BlueNRG-2/hci/controller/bluenrg1_gatt_aci.c ****       case 1: size = 2; break;
 2015              		.loc 1 544 5 view .LVU713
 2016 0078 4720     		movs	r0, #71
 2017              	.LVL218:
 544:Middlewares/ST/BlueNRG-2/hci/controller/bluenrg1_gatt_aci.c ****       case 1: size = 2; break;
 2018              		.loc 1 544 5 view .LVU714
 2019 007a FBE7     		b	.L83
 2020              	.LVL219:
 2021              	.L86:
 544:Middlewares/ST/BlueNRG-2/hci/controller/bluenrg1_gatt_aci.c ****       case 1: size = 2; break;
 2022              		.loc 1 544 5 view .LVU715
 2023              	.LBE14:
 561:Middlewares/ST/BlueNRG-2/hci/controller/bluenrg1_gatt_aci.c ****     return BLE_STATUS_TIMEOUT;
 2024              		.loc 1 561 12 view .LVU716
 2025 007c FF20     		movs	r0, #255
 2026 007e F9E7     		b	.L83
 2027              		.cfi_endproc
 2028              	.LFE150:
 2030              		.section	.text.aci_att_read_by_group_type_req,"ax",%progbits
 2031              		.align	1
 2032              		.global	aci_att_read_by_group_type_req
 2033              		.syntax unified
 2034              		.thumb
 2035              		.thumb_func
 2037              	aci_att_read_by_group_type_req:
 2038              	.LVL220:
 2039              	.LFB151:
 567:Middlewares/ST/BlueNRG-2/hci/controller/bluenrg1_gatt_aci.c **** tBleStatus aci_att_read_by_group_type_req(uint16_t Connection_Handle,
 568:Middlewares/ST/BlueNRG-2/hci/controller/bluenrg1_gatt_aci.c ****                                           uint16_t Start_Handle,
 569:Middlewares/ST/BlueNRG-2/hci/controller/bluenrg1_gatt_aci.c ****                                           uint16_t End_Handle,
 570:Middlewares/ST/BlueNRG-2/hci/controller/bluenrg1_gatt_aci.c ****                                           uint8_t UUID_Type,
ARM GAS  C:\Users\IAHERN~1\AppData\Local\Temp\ccP26j2c.s 			page 47


 571:Middlewares/ST/BlueNRG-2/hci/controller/bluenrg1_gatt_aci.c ****                                           UUID_t *UUID)
 572:Middlewares/ST/BlueNRG-2/hci/controller/bluenrg1_gatt_aci.c **** {
 2040              		.loc 1 572 1 is_stmt 1 view -0
 2041              		.cfi_startproc
 2042              		@ args = 4, pretend = 0, frame = 288
 2043              		@ frame_needed = 0, uses_anonymous_args = 0
 2044              		.loc 1 572 1 is_stmt 0 view .LVU718
 2045 0000 10B5     		push	{r4, lr}
 2046              		.cfi_def_cfa_offset 8
 2047              		.cfi_offset 4, -8
 2048              		.cfi_offset 14, -4
 2049 0002 C8B0     		sub	sp, sp, #288
 2050              		.cfi_def_cfa_offset 296
 573:Middlewares/ST/BlueNRG-2/hci/controller/bluenrg1_gatt_aci.c ****   struct hci_request rq;
 2051              		.loc 1 573 3 is_stmt 1 view .LVU719
 574:Middlewares/ST/BlueNRG-2/hci/controller/bluenrg1_gatt_aci.c ****   uint8_t cmd_buffer[258];
 2052              		.loc 1 574 3 view .LVU720
 575:Middlewares/ST/BlueNRG-2/hci/controller/bluenrg1_gatt_aci.c ****   aci_att_read_by_group_type_req_cp0 *cp0 = (aci_att_read_by_group_type_req_cp0*)(cmd_buffer);
 2053              		.loc 1 575 3 view .LVU721
 2054              	.LVL221:
 576:Middlewares/ST/BlueNRG-2/hci/controller/bluenrg1_gatt_aci.c ****   tBleStatus status = 0;
 2055              		.loc 1 576 3 view .LVU722
 2056              		.loc 1 576 14 is_stmt 0 view .LVU723
 2057 0004 0024     		movs	r4, #0
 2058 0006 8DF80340 		strb	r4, [sp, #3]
 577:Middlewares/ST/BlueNRG-2/hci/controller/bluenrg1_gatt_aci.c ****   uint8_t index_input = 0;
 2059              		.loc 1 577 3 is_stmt 1 view .LVU724
 2060              	.LVL222:
 578:Middlewares/ST/BlueNRG-2/hci/controller/bluenrg1_gatt_aci.c ****   cp0->Connection_Handle = htob(Connection_Handle, 2);
 2061              		.loc 1 578 3 view .LVU725
 2062              		.loc 1 578 26 is_stmt 0 view .LVU726
 2063 000a ADF80400 		strh	r0, [sp, #4]	@ movhi
 579:Middlewares/ST/BlueNRG-2/hci/controller/bluenrg1_gatt_aci.c ****   index_input += 2;
 2064              		.loc 1 579 3 is_stmt 1 view .LVU727
 2065              	.LVL223:
 580:Middlewares/ST/BlueNRG-2/hci/controller/bluenrg1_gatt_aci.c ****   cp0->Start_Handle = htob(Start_Handle, 2);
 2066              		.loc 1 580 3 view .LVU728
 2067              		.loc 1 580 21 is_stmt 0 view .LVU729
 2068 000e ADF80610 		strh	r1, [sp, #6]	@ movhi
 581:Middlewares/ST/BlueNRG-2/hci/controller/bluenrg1_gatt_aci.c ****   index_input += 2;
 2069              		.loc 1 581 3 is_stmt 1 view .LVU730
 2070              	.LVL224:
 582:Middlewares/ST/BlueNRG-2/hci/controller/bluenrg1_gatt_aci.c ****   cp0->End_Handle = htob(End_Handle, 2);
 2071              		.loc 1 582 3 view .LVU731
 2072              		.loc 1 582 19 is_stmt 0 view .LVU732
 2073 0012 ADF80820 		strh	r2, [sp, #8]	@ movhi
 583:Middlewares/ST/BlueNRG-2/hci/controller/bluenrg1_gatt_aci.c ****   index_input += 2;
 2074              		.loc 1 583 3 is_stmt 1 view .LVU733
 2075              	.LVL225:
 584:Middlewares/ST/BlueNRG-2/hci/controller/bluenrg1_gatt_aci.c ****   cp0->UUID_Type = htob(UUID_Type, 1);
 2076              		.loc 1 584 3 view .LVU734
 2077              		.loc 1 584 18 is_stmt 0 view .LVU735
 2078 0016 8DF80A30 		strb	r3, [sp, #10]
 585:Middlewares/ST/BlueNRG-2/hci/controller/bluenrg1_gatt_aci.c ****   index_input += 1;
 2079              		.loc 1 585 3 is_stmt 1 view .LVU736
 2080              	.LVL226:
 2081              	.LBB15:
ARM GAS  C:\Users\IAHERN~1\AppData\Local\Temp\ccP26j2c.s 			page 48


 586:Middlewares/ST/BlueNRG-2/hci/controller/bluenrg1_gatt_aci.c ****   /* var_len_data input */
 587:Middlewares/ST/BlueNRG-2/hci/controller/bluenrg1_gatt_aci.c ****   {
 588:Middlewares/ST/BlueNRG-2/hci/controller/bluenrg1_gatt_aci.c ****     uint8_t size;
 2082              		.loc 1 588 5 view .LVU737
 589:Middlewares/ST/BlueNRG-2/hci/controller/bluenrg1_gatt_aci.c ****     switch (UUID_Type) {
 2083              		.loc 1 589 5 view .LVU738
 2084 001a 012B     		cmp	r3, #1
 2085 001c 03D0     		beq	.L91
 2086 001e 022B     		cmp	r3, #2
 2087 0020 2AD1     		bne	.L92
 590:Middlewares/ST/BlueNRG-2/hci/controller/bluenrg1_gatt_aci.c ****       case 1: size = 2; break;
 591:Middlewares/ST/BlueNRG-2/hci/controller/bluenrg1_gatt_aci.c ****       case 2: size = 16; break;
 2088              		.loc 1 591 20 is_stmt 0 view .LVU739
 2089 0022 1024     		movs	r4, #16
 2090 0024 00E0     		b	.L89
 2091              	.L91:
 589:Middlewares/ST/BlueNRG-2/hci/controller/bluenrg1_gatt_aci.c ****     switch (UUID_Type) {
 2092              		.loc 1 589 5 view .LVU740
 2093 0026 0224     		movs	r4, #2
 2094              	.L89:
 2095              	.LVL227:
 592:Middlewares/ST/BlueNRG-2/hci/controller/bluenrg1_gatt_aci.c ****       default: return BLE_STATUS_ERROR;
 593:Middlewares/ST/BlueNRG-2/hci/controller/bluenrg1_gatt_aci.c ****     }
 594:Middlewares/ST/BlueNRG-2/hci/controller/bluenrg1_gatt_aci.c ****     BLUENRG_memcpy((void *) &cp0->UUID, (const void *) UUID, size);
 2096              		.loc 1 594 5 is_stmt 1 view .LVU741
 2097 0028 2246     		mov	r2, r4
 2098              	.LVL228:
 2099              		.loc 1 594 5 is_stmt 0 view .LVU742
 2100 002a 4A99     		ldr	r1, [sp, #296]
 2101              	.LVL229:
 2102              		.loc 1 594 5 view .LVU743
 2103 002c 0DF10B00 		add	r0, sp, #11
 2104              	.LVL230:
 2105              		.loc 1 594 5 view .LVU744
 2106 0030 FFF7FEFF 		bl	memcpy
 2107              	.LVL231:
 595:Middlewares/ST/BlueNRG-2/hci/controller/bluenrg1_gatt_aci.c ****     index_input += size;
 2108              		.loc 1 595 5 is_stmt 1 view .LVU745
 2109              		.loc 1 595 17 is_stmt 0 view .LVU746
 2110 0034 0734     		adds	r4, r4, #7
 2111              	.LVL232:
 2112              		.loc 1 595 17 view .LVU747
 2113              	.LBE15:
 596:Middlewares/ST/BlueNRG-2/hci/controller/bluenrg1_gatt_aci.c ****   }
 597:Middlewares/ST/BlueNRG-2/hci/controller/bluenrg1_gatt_aci.c ****   BLUENRG_memset(&rq, 0, sizeof(rq));
 2114              		.loc 1 597 3 is_stmt 1 view .LVU748
 2115 0036 0021     		movs	r1, #0
 2116 0038 4291     		str	r1, [sp, #264]
 2117 003a 4391     		str	r1, [sp, #268]
 2118 003c 4491     		str	r1, [sp, #272]
 2119 003e 4591     		str	r1, [sp, #276]
 2120 0040 4691     		str	r1, [sp, #280]
 2121 0042 4791     		str	r1, [sp, #284]
 598:Middlewares/ST/BlueNRG-2/hci/controller/bluenrg1_gatt_aci.c ****   rq.ogf = 0x3f;
 2122              		.loc 1 598 3 view .LVU749
 2123              		.loc 1 598 10 is_stmt 0 view .LVU750
 2124 0044 3F23     		movs	r3, #63
ARM GAS  C:\Users\IAHERN~1\AppData\Local\Temp\ccP26j2c.s 			page 49


 2125 0046 ADF80831 		strh	r3, [sp, #264]	@ movhi
 599:Middlewares/ST/BlueNRG-2/hci/controller/bluenrg1_gatt_aci.c ****   rq.ocf = 0x10f;
 2126              		.loc 1 599 3 is_stmt 1 view .LVU751
 2127              		.loc 1 599 10 is_stmt 0 view .LVU752
 2128 004a 40F20F13 		movw	r3, #271
 2129 004e ADF80A31 		strh	r3, [sp, #266]	@ movhi
 600:Middlewares/ST/BlueNRG-2/hci/controller/bluenrg1_gatt_aci.c ****   rq.event = 0x0F;
 2130              		.loc 1 600 3 is_stmt 1 view .LVU753
 2131              		.loc 1 600 12 is_stmt 0 view .LVU754
 2132 0052 0F23     		movs	r3, #15
 2133 0054 4393     		str	r3, [sp, #268]
 601:Middlewares/ST/BlueNRG-2/hci/controller/bluenrg1_gatt_aci.c ****   rq.cparam = cmd_buffer;
 2134              		.loc 1 601 3 is_stmt 1 view .LVU755
 2135              		.loc 1 601 13 is_stmt 0 view .LVU756
 2136 0056 01AB     		add	r3, sp, #4
 2137              	.LVL233:
 2138              		.loc 1 601 13 view .LVU757
 2139 0058 4493     		str	r3, [sp, #272]
 602:Middlewares/ST/BlueNRG-2/hci/controller/bluenrg1_gatt_aci.c ****   rq.clen = index_input;
 2140              		.loc 1 602 3 is_stmt 1 view .LVU758
 2141              		.loc 1 602 11 is_stmt 0 view .LVU759
 2142 005a 4594     		str	r4, [sp, #276]
 603:Middlewares/ST/BlueNRG-2/hci/controller/bluenrg1_gatt_aci.c ****   rq.rparam = &status;
 2143              		.loc 1 603 3 is_stmt 1 view .LVU760
 2144              		.loc 1 603 13 is_stmt 0 view .LVU761
 2145 005c 0DF10303 		add	r3, sp, #3
 2146              	.LVL234:
 2147              		.loc 1 603 13 view .LVU762
 2148 0060 4693     		str	r3, [sp, #280]
 604:Middlewares/ST/BlueNRG-2/hci/controller/bluenrg1_gatt_aci.c ****   rq.rlen = 1;
 2149              		.loc 1 604 3 is_stmt 1 view .LVU763
 2150              		.loc 1 604 11 is_stmt 0 view .LVU764
 2151 0062 0123     		movs	r3, #1
 2152 0064 4793     		str	r3, [sp, #284]
 605:Middlewares/ST/BlueNRG-2/hci/controller/bluenrg1_gatt_aci.c ****   if (hci_send_req(&rq, FALSE) < 0)
 2153              		.loc 1 605 3 is_stmt 1 view .LVU765
 2154              		.loc 1 605 7 is_stmt 0 view .LVU766
 2155 0066 42A8     		add	r0, sp, #264
 2156 0068 FFF7FEFF 		bl	hci_send_req
 2157              	.LVL235:
 2158              		.loc 1 605 6 discriminator 1 view .LVU767
 2159 006c 0028     		cmp	r0, #0
 2160 006e 05DB     		blt	.L93
 606:Middlewares/ST/BlueNRG-2/hci/controller/bluenrg1_gatt_aci.c ****     return BLE_STATUS_TIMEOUT;
 607:Middlewares/ST/BlueNRG-2/hci/controller/bluenrg1_gatt_aci.c ****   if (status) {
 2161              		.loc 1 607 3 is_stmt 1 view .LVU768
 2162              		.loc 1 607 7 is_stmt 0 view .LVU769
 2163 0070 9DF80300 		ldrb	r0, [sp, #3]	@ zero_extendqisi2
 2164              	.LVL236:
 2165              	.L90:
 608:Middlewares/ST/BlueNRG-2/hci/controller/bluenrg1_gatt_aci.c ****     return status;
 609:Middlewares/ST/BlueNRG-2/hci/controller/bluenrg1_gatt_aci.c ****   }
 610:Middlewares/ST/BlueNRG-2/hci/controller/bluenrg1_gatt_aci.c ****   return BLE_STATUS_SUCCESS;
 611:Middlewares/ST/BlueNRG-2/hci/controller/bluenrg1_gatt_aci.c **** }
 2166              		.loc 1 611 1 view .LVU770
 2167 0074 48B0     		add	sp, sp, #288
 2168              		.cfi_remember_state
ARM GAS  C:\Users\IAHERN~1\AppData\Local\Temp\ccP26j2c.s 			page 50


 2169              		.cfi_def_cfa_offset 8
 2170              		@ sp needed
 2171 0076 10BD     		pop	{r4, pc}
 2172              	.LVL237:
 2173              	.L92:
 2174              		.cfi_restore_state
 2175              	.LBB16:
 589:Middlewares/ST/BlueNRG-2/hci/controller/bluenrg1_gatt_aci.c ****       case 1: size = 2; break;
 2176              		.loc 1 589 5 view .LVU771
 2177 0078 4720     		movs	r0, #71
 2178              	.LVL238:
 589:Middlewares/ST/BlueNRG-2/hci/controller/bluenrg1_gatt_aci.c ****       case 1: size = 2; break;
 2179              		.loc 1 589 5 view .LVU772
 2180 007a FBE7     		b	.L90
 2181              	.LVL239:
 2182              	.L93:
 589:Middlewares/ST/BlueNRG-2/hci/controller/bluenrg1_gatt_aci.c ****       case 1: size = 2; break;
 2183              		.loc 1 589 5 view .LVU773
 2184              	.LBE16:
 606:Middlewares/ST/BlueNRG-2/hci/controller/bluenrg1_gatt_aci.c ****     return BLE_STATUS_TIMEOUT;
 2185              		.loc 1 606 12 view .LVU774
 2186 007c FF20     		movs	r0, #255
 2187 007e F9E7     		b	.L90
 2188              		.cfi_endproc
 2189              	.LFE151:
 2191              		.section	.text.aci_att_prepare_write_req,"ax",%progbits
 2192              		.align	1
 2193              		.global	aci_att_prepare_write_req
 2194              		.syntax unified
 2195              		.thumb
 2196              		.thumb_func
 2198              	aci_att_prepare_write_req:
 2199              	.LVL240:
 2200              	.LFB152:
 612:Middlewares/ST/BlueNRG-2/hci/controller/bluenrg1_gatt_aci.c **** tBleStatus aci_att_prepare_write_req(uint16_t Connection_Handle,
 613:Middlewares/ST/BlueNRG-2/hci/controller/bluenrg1_gatt_aci.c ****                                      uint16_t Attr_Handle,
 614:Middlewares/ST/BlueNRG-2/hci/controller/bluenrg1_gatt_aci.c ****                                      uint16_t Val_Offset,
 615:Middlewares/ST/BlueNRG-2/hci/controller/bluenrg1_gatt_aci.c ****                                      uint8_t Attribute_Val_Length,
 616:Middlewares/ST/BlueNRG-2/hci/controller/bluenrg1_gatt_aci.c ****                                      uint8_t Attribute_Val[])
 617:Middlewares/ST/BlueNRG-2/hci/controller/bluenrg1_gatt_aci.c **** {
 2201              		.loc 1 617 1 is_stmt 1 view -0
 2202              		.cfi_startproc
 2203              		@ args = 4, pretend = 0, frame = 288
 2204              		@ frame_needed = 0, uses_anonymous_args = 0
 2205              		.loc 1 617 1 is_stmt 0 view .LVU776
 2206 0000 F0B5     		push	{r4, r5, r6, r7, lr}
 2207              		.cfi_def_cfa_offset 20
 2208              		.cfi_offset 4, -20
 2209              		.cfi_offset 5, -16
 2210              		.cfi_offset 6, -12
 2211              		.cfi_offset 7, -8
 2212              		.cfi_offset 14, -4
 2213 0002 C9B0     		sub	sp, sp, #292
 2214              		.cfi_def_cfa_offset 312
 2215 0004 1C46     		mov	r4, r3
 618:Middlewares/ST/BlueNRG-2/hci/controller/bluenrg1_gatt_aci.c ****   struct hci_request rq;
 2216              		.loc 1 618 3 is_stmt 1 view .LVU777
ARM GAS  C:\Users\IAHERN~1\AppData\Local\Temp\ccP26j2c.s 			page 51


 619:Middlewares/ST/BlueNRG-2/hci/controller/bluenrg1_gatt_aci.c ****   uint8_t cmd_buffer[258];
 2217              		.loc 1 619 3 view .LVU778
 620:Middlewares/ST/BlueNRG-2/hci/controller/bluenrg1_gatt_aci.c ****   aci_att_prepare_write_req_cp0 *cp0 = (aci_att_prepare_write_req_cp0*)(cmd_buffer);
 2218              		.loc 1 620 3 view .LVU779
 2219              	.LVL241:
 621:Middlewares/ST/BlueNRG-2/hci/controller/bluenrg1_gatt_aci.c ****   tBleStatus status = 0;
 2220              		.loc 1 621 3 view .LVU780
 2221              		.loc 1 621 14 is_stmt 0 view .LVU781
 2222 0006 0DF10307 		add	r7, sp, #3
 2223 000a 0025     		movs	r5, #0
 2224 000c 8DF80350 		strb	r5, [sp, #3]
 622:Middlewares/ST/BlueNRG-2/hci/controller/bluenrg1_gatt_aci.c ****   uint8_t index_input = 0;
 2225              		.loc 1 622 3 is_stmt 1 view .LVU782
 2226              	.LVL242:
 623:Middlewares/ST/BlueNRG-2/hci/controller/bluenrg1_gatt_aci.c ****   cp0->Connection_Handle = htob(Connection_Handle, 2);
 2227              		.loc 1 623 3 view .LVU783
 2228              		.loc 1 623 26 is_stmt 0 view .LVU784
 2229 0010 01AE     		add	r6, sp, #4
 2230              	.LVL243:
 2231              		.loc 1 623 26 view .LVU785
 2232 0012 ADF80400 		strh	r0, [sp, #4]	@ movhi
 624:Middlewares/ST/BlueNRG-2/hci/controller/bluenrg1_gatt_aci.c ****   index_input += 2;
 2233              		.loc 1 624 3 is_stmt 1 view .LVU786
 2234              	.LVL244:
 625:Middlewares/ST/BlueNRG-2/hci/controller/bluenrg1_gatt_aci.c ****   cp0->Attr_Handle = htob(Attr_Handle, 2);
 2235              		.loc 1 625 3 view .LVU787
 2236              		.loc 1 625 20 is_stmt 0 view .LVU788
 2237 0016 ADF80610 		strh	r1, [sp, #6]	@ movhi
 626:Middlewares/ST/BlueNRG-2/hci/controller/bluenrg1_gatt_aci.c ****   index_input += 2;
 2238              		.loc 1 626 3 is_stmt 1 view .LVU789
 2239              	.LVL245:
 627:Middlewares/ST/BlueNRG-2/hci/controller/bluenrg1_gatt_aci.c ****   cp0->Val_Offset = htob(Val_Offset, 2);
 2240              		.loc 1 627 3 view .LVU790
 2241              		.loc 1 627 19 is_stmt 0 view .LVU791
 2242 001a ADF80820 		strh	r2, [sp, #8]	@ movhi
 628:Middlewares/ST/BlueNRG-2/hci/controller/bluenrg1_gatt_aci.c ****   index_input += 2;
 2243              		.loc 1 628 3 is_stmt 1 view .LVU792
 2244              	.LVL246:
 629:Middlewares/ST/BlueNRG-2/hci/controller/bluenrg1_gatt_aci.c ****   cp0->Attribute_Val_Length = htob(Attribute_Val_Length, 1);
 2245              		.loc 1 629 3 view .LVU793
 2246              		.loc 1 629 29 is_stmt 0 view .LVU794
 2247 001e 8DF80A30 		strb	r3, [sp, #10]
 630:Middlewares/ST/BlueNRG-2/hci/controller/bluenrg1_gatt_aci.c ****   index_input += 1;
 2248              		.loc 1 630 3 is_stmt 1 view .LVU795
 2249              	.LVL247:
 631:Middlewares/ST/BlueNRG-2/hci/controller/bluenrg1_gatt_aci.c ****   /* var_len_data input */
 632:Middlewares/ST/BlueNRG-2/hci/controller/bluenrg1_gatt_aci.c ****   {
 633:Middlewares/ST/BlueNRG-2/hci/controller/bluenrg1_gatt_aci.c ****     BLUENRG_memcpy((void *) &cp0->Attribute_Val, (const void *) Attribute_Val, Attribute_Val_Length
 2250              		.loc 1 633 5 view .LVU796
 2251 0022 1A46     		mov	r2, r3
 2252              	.LVL248:
 2253              		.loc 1 633 5 is_stmt 0 view .LVU797
 2254 0024 4E99     		ldr	r1, [sp, #312]
 2255              	.LVL249:
 2256              		.loc 1 633 5 view .LVU798
 2257 0026 0DF10B00 		add	r0, sp, #11
 2258              	.LVL250:
ARM GAS  C:\Users\IAHERN~1\AppData\Local\Temp\ccP26j2c.s 			page 52


 2259              		.loc 1 633 5 view .LVU799
 2260 002a FFF7FEFF 		bl	memcpy
 2261              	.LVL251:
 634:Middlewares/ST/BlueNRG-2/hci/controller/bluenrg1_gatt_aci.c ****     index_input += Attribute_Val_Length*sizeof(uint8_t);
 2262              		.loc 1 634 5 is_stmt 1 view .LVU800
 2263              		.loc 1 634 17 is_stmt 0 view .LVU801
 2264 002e 0734     		adds	r4, r4, #7
 2265              	.LVL252:
 2266              		.loc 1 634 17 view .LVU802
 2267 0030 E4B2     		uxtb	r4, r4
 2268              	.LVL253:
 635:Middlewares/ST/BlueNRG-2/hci/controller/bluenrg1_gatt_aci.c ****   }
 636:Middlewares/ST/BlueNRG-2/hci/controller/bluenrg1_gatt_aci.c ****   BLUENRG_memset(&rq, 0, sizeof(rq));
 2269              		.loc 1 636 3 is_stmt 1 view .LVU803
 2270 0032 4295     		str	r5, [sp, #264]
 2271 0034 4395     		str	r5, [sp, #268]
 2272 0036 4495     		str	r5, [sp, #272]
 2273 0038 4595     		str	r5, [sp, #276]
 2274 003a 4695     		str	r5, [sp, #280]
 2275 003c 4795     		str	r5, [sp, #284]
 637:Middlewares/ST/BlueNRG-2/hci/controller/bluenrg1_gatt_aci.c ****   rq.ogf = 0x3f;
 2276              		.loc 1 637 3 view .LVU804
 2277              		.loc 1 637 10 is_stmt 0 view .LVU805
 2278 003e 3F23     		movs	r3, #63
 2279 0040 ADF80831 		strh	r3, [sp, #264]	@ movhi
 638:Middlewares/ST/BlueNRG-2/hci/controller/bluenrg1_gatt_aci.c ****   rq.ocf = 0x110;
 2280              		.loc 1 638 3 is_stmt 1 view .LVU806
 2281              		.loc 1 638 10 is_stmt 0 view .LVU807
 2282 0044 4FF48873 		mov	r3, #272
 2283 0048 ADF80A31 		strh	r3, [sp, #266]	@ movhi
 639:Middlewares/ST/BlueNRG-2/hci/controller/bluenrg1_gatt_aci.c ****   rq.event = 0x0F;
 2284              		.loc 1 639 3 is_stmt 1 view .LVU808
 2285              		.loc 1 639 12 is_stmt 0 view .LVU809
 2286 004c 0F23     		movs	r3, #15
 2287 004e 4393     		str	r3, [sp, #268]
 640:Middlewares/ST/BlueNRG-2/hci/controller/bluenrg1_gatt_aci.c ****   rq.cparam = cmd_buffer;
 2288              		.loc 1 640 3 is_stmt 1 view .LVU810
 2289              		.loc 1 640 13 is_stmt 0 view .LVU811
 2290 0050 4496     		str	r6, [sp, #272]
 641:Middlewares/ST/BlueNRG-2/hci/controller/bluenrg1_gatt_aci.c ****   rq.clen = index_input;
 2291              		.loc 1 641 3 is_stmt 1 view .LVU812
 2292              		.loc 1 641 11 is_stmt 0 view .LVU813
 2293 0052 4594     		str	r4, [sp, #276]
 642:Middlewares/ST/BlueNRG-2/hci/controller/bluenrg1_gatt_aci.c ****   rq.rparam = &status;
 2294              		.loc 1 642 3 is_stmt 1 view .LVU814
 2295              		.loc 1 642 13 is_stmt 0 view .LVU815
 2296 0054 4697     		str	r7, [sp, #280]
 643:Middlewares/ST/BlueNRG-2/hci/controller/bluenrg1_gatt_aci.c ****   rq.rlen = 1;
 2297              		.loc 1 643 3 is_stmt 1 view .LVU816
 2298              		.loc 1 643 11 is_stmt 0 view .LVU817
 2299 0056 0123     		movs	r3, #1
 2300 0058 4793     		str	r3, [sp, #284]
 644:Middlewares/ST/BlueNRG-2/hci/controller/bluenrg1_gatt_aci.c ****   if (hci_send_req(&rq, FALSE) < 0)
 2301              		.loc 1 644 3 is_stmt 1 view .LVU818
 2302              		.loc 1 644 7 is_stmt 0 view .LVU819
 2303 005a 2946     		mov	r1, r5
 2304 005c 42A8     		add	r0, sp, #264
ARM GAS  C:\Users\IAHERN~1\AppData\Local\Temp\ccP26j2c.s 			page 53


 2305 005e FFF7FEFF 		bl	hci_send_req
 2306              	.LVL254:
 2307              		.loc 1 644 6 discriminator 1 view .LVU820
 2308 0062 A842     		cmp	r0, r5
 2309 0064 03DB     		blt	.L97
 645:Middlewares/ST/BlueNRG-2/hci/controller/bluenrg1_gatt_aci.c ****     return BLE_STATUS_TIMEOUT;
 646:Middlewares/ST/BlueNRG-2/hci/controller/bluenrg1_gatt_aci.c ****   if (status) {
 2310              		.loc 1 646 3 is_stmt 1 view .LVU821
 2311              		.loc 1 646 7 is_stmt 0 view .LVU822
 2312 0066 9DF80300 		ldrb	r0, [sp, #3]	@ zero_extendqisi2
 2313              	.L96:
 647:Middlewares/ST/BlueNRG-2/hci/controller/bluenrg1_gatt_aci.c ****     return status;
 648:Middlewares/ST/BlueNRG-2/hci/controller/bluenrg1_gatt_aci.c ****   }
 649:Middlewares/ST/BlueNRG-2/hci/controller/bluenrg1_gatt_aci.c ****   return BLE_STATUS_SUCCESS;
 650:Middlewares/ST/BlueNRG-2/hci/controller/bluenrg1_gatt_aci.c **** }
 2314              		.loc 1 650 1 view .LVU823
 2315 006a 49B0     		add	sp, sp, #292
 2316              		.cfi_remember_state
 2317              		.cfi_def_cfa_offset 20
 2318              		@ sp needed
 2319 006c F0BD     		pop	{r4, r5, r6, r7, pc}
 2320              	.LVL255:
 2321              	.L97:
 2322              		.cfi_restore_state
 645:Middlewares/ST/BlueNRG-2/hci/controller/bluenrg1_gatt_aci.c ****     return BLE_STATUS_TIMEOUT;
 2323              		.loc 1 645 12 view .LVU824
 2324 006e FF20     		movs	r0, #255
 2325 0070 FBE7     		b	.L96
 2326              		.cfi_endproc
 2327              	.LFE152:
 2329              		.section	.text.aci_att_execute_write_req,"ax",%progbits
 2330              		.align	1
 2331              		.global	aci_att_execute_write_req
 2332              		.syntax unified
 2333              		.thumb
 2334              		.thumb_func
 2336              	aci_att_execute_write_req:
 2337              	.LVL256:
 2338              	.LFB153:
 651:Middlewares/ST/BlueNRG-2/hci/controller/bluenrg1_gatt_aci.c **** tBleStatus aci_att_execute_write_req(uint16_t Connection_Handle,
 652:Middlewares/ST/BlueNRG-2/hci/controller/bluenrg1_gatt_aci.c ****                                      uint8_t Execute)
 653:Middlewares/ST/BlueNRG-2/hci/controller/bluenrg1_gatt_aci.c **** {
 2339              		.loc 1 653 1 is_stmt 1 view -0
 2340              		.cfi_startproc
 2341              		@ args = 0, pretend = 0, frame = 288
 2342              		@ frame_needed = 0, uses_anonymous_args = 0
 2343              		.loc 1 653 1 is_stmt 0 view .LVU826
 2344 0000 10B5     		push	{r4, lr}
 2345              		.cfi_def_cfa_offset 8
 2346              		.cfi_offset 4, -8
 2347              		.cfi_offset 14, -4
 2348 0002 C8B0     		sub	sp, sp, #288
 2349              		.cfi_def_cfa_offset 296
 654:Middlewares/ST/BlueNRG-2/hci/controller/bluenrg1_gatt_aci.c ****   struct hci_request rq;
 2350              		.loc 1 654 3 is_stmt 1 view .LVU827
 655:Middlewares/ST/BlueNRG-2/hci/controller/bluenrg1_gatt_aci.c ****   uint8_t cmd_buffer[258];
 2351              		.loc 1 655 3 view .LVU828
ARM GAS  C:\Users\IAHERN~1\AppData\Local\Temp\ccP26j2c.s 			page 54


 656:Middlewares/ST/BlueNRG-2/hci/controller/bluenrg1_gatt_aci.c ****   aci_att_execute_write_req_cp0 *cp0 = (aci_att_execute_write_req_cp0*)(cmd_buffer);
 2352              		.loc 1 656 3 view .LVU829
 2353              	.LVL257:
 657:Middlewares/ST/BlueNRG-2/hci/controller/bluenrg1_gatt_aci.c ****   tBleStatus status = 0;
 2354              		.loc 1 657 3 view .LVU830
 2355              		.loc 1 657 14 is_stmt 0 view .LVU831
 2356 0004 0DF10304 		add	r4, sp, #3
 2357 0008 0023     		movs	r3, #0
 2358 000a 8DF80330 		strb	r3, [sp, #3]
 658:Middlewares/ST/BlueNRG-2/hci/controller/bluenrg1_gatt_aci.c ****   uint8_t index_input = 0;
 2359              		.loc 1 658 3 is_stmt 1 view .LVU832
 2360              	.LVL258:
 659:Middlewares/ST/BlueNRG-2/hci/controller/bluenrg1_gatt_aci.c ****   cp0->Connection_Handle = htob(Connection_Handle, 2);
 2361              		.loc 1 659 3 view .LVU833
 2362              		.loc 1 659 26 is_stmt 0 view .LVU834
 2363 000e 01AA     		add	r2, sp, #4
 2364              	.LVL259:
 2365              		.loc 1 659 26 view .LVU835
 2366 0010 ADF80400 		strh	r0, [sp, #4]	@ movhi
 660:Middlewares/ST/BlueNRG-2/hci/controller/bluenrg1_gatt_aci.c ****   index_input += 2;
 2367              		.loc 1 660 3 is_stmt 1 view .LVU836
 2368              	.LVL260:
 661:Middlewares/ST/BlueNRG-2/hci/controller/bluenrg1_gatt_aci.c ****   cp0->Execute = htob(Execute, 1);
 2369              		.loc 1 661 3 view .LVU837
 2370              		.loc 1 661 16 is_stmt 0 view .LVU838
 2371 0014 8DF80610 		strb	r1, [sp, #6]
 662:Middlewares/ST/BlueNRG-2/hci/controller/bluenrg1_gatt_aci.c ****   index_input += 1;
 2372              		.loc 1 662 3 is_stmt 1 view .LVU839
 2373              	.LVL261:
 663:Middlewares/ST/BlueNRG-2/hci/controller/bluenrg1_gatt_aci.c ****   BLUENRG_memset(&rq, 0, sizeof(rq));
 2374              		.loc 1 663 3 view .LVU840
 2375 0018 4293     		str	r3, [sp, #264]
 2376 001a 4393     		str	r3, [sp, #268]
 2377 001c 4493     		str	r3, [sp, #272]
 2378 001e 4593     		str	r3, [sp, #276]
 2379 0020 4693     		str	r3, [sp, #280]
 2380 0022 4793     		str	r3, [sp, #284]
 664:Middlewares/ST/BlueNRG-2/hci/controller/bluenrg1_gatt_aci.c ****   rq.ogf = 0x3f;
 2381              		.loc 1 664 3 view .LVU841
 2382              		.loc 1 664 10 is_stmt 0 view .LVU842
 2383 0024 3F21     		movs	r1, #63
 2384              	.LVL262:
 2385              		.loc 1 664 10 view .LVU843
 2386 0026 ADF80811 		strh	r1, [sp, #264]	@ movhi
 665:Middlewares/ST/BlueNRG-2/hci/controller/bluenrg1_gatt_aci.c ****   rq.ocf = 0x111;
 2387              		.loc 1 665 3 is_stmt 1 view .LVU844
 2388              		.loc 1 665 10 is_stmt 0 view .LVU845
 2389 002a 40F21111 		movw	r1, #273
 2390 002e ADF80A11 		strh	r1, [sp, #266]	@ movhi
 666:Middlewares/ST/BlueNRG-2/hci/controller/bluenrg1_gatt_aci.c ****   rq.event = 0x0F;
 2391              		.loc 1 666 3 is_stmt 1 view .LVU846
 2392              		.loc 1 666 12 is_stmt 0 view .LVU847
 2393 0032 0F21     		movs	r1, #15
 2394 0034 4391     		str	r1, [sp, #268]
 667:Middlewares/ST/BlueNRG-2/hci/controller/bluenrg1_gatt_aci.c ****   rq.cparam = cmd_buffer;
 2395              		.loc 1 667 3 is_stmt 1 view .LVU848
 2396              		.loc 1 667 13 is_stmt 0 view .LVU849
ARM GAS  C:\Users\IAHERN~1\AppData\Local\Temp\ccP26j2c.s 			page 55


 2397 0036 4492     		str	r2, [sp, #272]
 668:Middlewares/ST/BlueNRG-2/hci/controller/bluenrg1_gatt_aci.c ****   rq.clen = index_input;
 2398              		.loc 1 668 3 is_stmt 1 view .LVU850
 2399              		.loc 1 668 11 is_stmt 0 view .LVU851
 2400 0038 0322     		movs	r2, #3
 2401              	.LVL263:
 2402              		.loc 1 668 11 view .LVU852
 2403 003a 4592     		str	r2, [sp, #276]
 669:Middlewares/ST/BlueNRG-2/hci/controller/bluenrg1_gatt_aci.c ****   rq.rparam = &status;
 2404              		.loc 1 669 3 is_stmt 1 view .LVU853
 2405              		.loc 1 669 13 is_stmt 0 view .LVU854
 2406 003c 4694     		str	r4, [sp, #280]
 670:Middlewares/ST/BlueNRG-2/hci/controller/bluenrg1_gatt_aci.c ****   rq.rlen = 1;
 2407              		.loc 1 670 3 is_stmt 1 view .LVU855
 2408              		.loc 1 670 11 is_stmt 0 view .LVU856
 2409 003e 0122     		movs	r2, #1
 2410 0040 4792     		str	r2, [sp, #284]
 671:Middlewares/ST/BlueNRG-2/hci/controller/bluenrg1_gatt_aci.c ****   if (hci_send_req(&rq, FALSE) < 0)
 2411              		.loc 1 671 3 is_stmt 1 view .LVU857
 2412              		.loc 1 671 7 is_stmt 0 view .LVU858
 2413 0042 1946     		mov	r1, r3
 2414 0044 42A8     		add	r0, sp, #264
 2415              	.LVL264:
 2416              		.loc 1 671 7 view .LVU859
 2417 0046 FFF7FEFF 		bl	hci_send_req
 2418              	.LVL265:
 2419              		.loc 1 671 6 discriminator 1 view .LVU860
 2420 004a 0028     		cmp	r0, #0
 2421 004c 03DB     		blt	.L101
 672:Middlewares/ST/BlueNRG-2/hci/controller/bluenrg1_gatt_aci.c ****     return BLE_STATUS_TIMEOUT;
 673:Middlewares/ST/BlueNRG-2/hci/controller/bluenrg1_gatt_aci.c ****   if (status) {
 2422              		.loc 1 673 3 is_stmt 1 view .LVU861
 2423              		.loc 1 673 7 is_stmt 0 view .LVU862
 2424 004e 9DF80300 		ldrb	r0, [sp, #3]	@ zero_extendqisi2
 2425              	.L100:
 674:Middlewares/ST/BlueNRG-2/hci/controller/bluenrg1_gatt_aci.c ****     return status;
 675:Middlewares/ST/BlueNRG-2/hci/controller/bluenrg1_gatt_aci.c ****   }
 676:Middlewares/ST/BlueNRG-2/hci/controller/bluenrg1_gatt_aci.c ****   return BLE_STATUS_SUCCESS;
 677:Middlewares/ST/BlueNRG-2/hci/controller/bluenrg1_gatt_aci.c **** }
 2426              		.loc 1 677 1 view .LVU863
 2427 0052 48B0     		add	sp, sp, #288
 2428              		.cfi_remember_state
 2429              		.cfi_def_cfa_offset 8
 2430              		@ sp needed
 2431 0054 10BD     		pop	{r4, pc}
 2432              	.LVL266:
 2433              	.L101:
 2434              		.cfi_restore_state
 672:Middlewares/ST/BlueNRG-2/hci/controller/bluenrg1_gatt_aci.c ****     return BLE_STATUS_TIMEOUT;
 2435              		.loc 1 672 12 view .LVU864
 2436 0056 FF20     		movs	r0, #255
 2437 0058 FBE7     		b	.L100
 2438              		.cfi_endproc
 2439              	.LFE153:
 2441              		.section	.text.aci_gatt_disc_all_primary_services,"ax",%progbits
 2442              		.align	1
 2443              		.global	aci_gatt_disc_all_primary_services
ARM GAS  C:\Users\IAHERN~1\AppData\Local\Temp\ccP26j2c.s 			page 56


 2444              		.syntax unified
 2445              		.thumb
 2446              		.thumb_func
 2448              	aci_gatt_disc_all_primary_services:
 2449              	.LVL267:
 2450              	.LFB154:
 678:Middlewares/ST/BlueNRG-2/hci/controller/bluenrg1_gatt_aci.c **** tBleStatus aci_gatt_disc_all_primary_services(uint16_t Connection_Handle)
 679:Middlewares/ST/BlueNRG-2/hci/controller/bluenrg1_gatt_aci.c **** {
 2451              		.loc 1 679 1 is_stmt 1 view -0
 2452              		.cfi_startproc
 2453              		@ args = 0, pretend = 0, frame = 288
 2454              		@ frame_needed = 0, uses_anonymous_args = 0
 2455              		.loc 1 679 1 is_stmt 0 view .LVU866
 2456 0000 00B5     		push	{lr}
 2457              		.cfi_def_cfa_offset 4
 2458              		.cfi_offset 14, -4
 2459 0002 C9B0     		sub	sp, sp, #292
 2460              		.cfi_def_cfa_offset 296
 680:Middlewares/ST/BlueNRG-2/hci/controller/bluenrg1_gatt_aci.c ****   struct hci_request rq;
 2461              		.loc 1 680 3 is_stmt 1 view .LVU867
 681:Middlewares/ST/BlueNRG-2/hci/controller/bluenrg1_gatt_aci.c ****   uint8_t cmd_buffer[258];
 2462              		.loc 1 681 3 view .LVU868
 682:Middlewares/ST/BlueNRG-2/hci/controller/bluenrg1_gatt_aci.c ****   aci_gatt_disc_all_primary_services_cp0 *cp0 = (aci_gatt_disc_all_primary_services_cp0*)(cmd_buffe
 2463              		.loc 1 682 3 view .LVU869
 2464              	.LVL268:
 683:Middlewares/ST/BlueNRG-2/hci/controller/bluenrg1_gatt_aci.c ****   tBleStatus status = 0;
 2465              		.loc 1 683 3 view .LVU870
 2466              		.loc 1 683 14 is_stmt 0 view .LVU871
 2467 0004 0DF10303 		add	r3, sp, #3
 2468 0008 0021     		movs	r1, #0
 2469 000a 8DF80310 		strb	r1, [sp, #3]
 684:Middlewares/ST/BlueNRG-2/hci/controller/bluenrg1_gatt_aci.c ****   uint8_t index_input = 0;
 2470              		.loc 1 684 3 is_stmt 1 view .LVU872
 2471              	.LVL269:
 685:Middlewares/ST/BlueNRG-2/hci/controller/bluenrg1_gatt_aci.c ****   cp0->Connection_Handle = htob(Connection_Handle, 2);
 2472              		.loc 1 685 3 view .LVU873
 2473              		.loc 1 685 26 is_stmt 0 view .LVU874
 2474 000e 01AA     		add	r2, sp, #4
 2475              	.LVL270:
 2476              		.loc 1 685 26 view .LVU875
 2477 0010 ADF80400 		strh	r0, [sp, #4]	@ movhi
 686:Middlewares/ST/BlueNRG-2/hci/controller/bluenrg1_gatt_aci.c ****   index_input += 2;
 2478              		.loc 1 686 3 is_stmt 1 view .LVU876
 2479              	.LVL271:
 687:Middlewares/ST/BlueNRG-2/hci/controller/bluenrg1_gatt_aci.c ****   BLUENRG_memset(&rq, 0, sizeof(rq));
 2480              		.loc 1 687 3 view .LVU877
 2481 0014 4291     		str	r1, [sp, #264]
 2482 0016 4391     		str	r1, [sp, #268]
 2483 0018 4491     		str	r1, [sp, #272]
 2484 001a 4591     		str	r1, [sp, #276]
 2485 001c 4691     		str	r1, [sp, #280]
 2486 001e 4791     		str	r1, [sp, #284]
 688:Middlewares/ST/BlueNRG-2/hci/controller/bluenrg1_gatt_aci.c ****   rq.ogf = 0x3f;
 2487              		.loc 1 688 3 view .LVU878
 2488              		.loc 1 688 10 is_stmt 0 view .LVU879
 2489 0020 3F20     		movs	r0, #63
 2490              	.LVL272:
ARM GAS  C:\Users\IAHERN~1\AppData\Local\Temp\ccP26j2c.s 			page 57


 2491              		.loc 1 688 10 view .LVU880
 2492 0022 ADF80801 		strh	r0, [sp, #264]	@ movhi
 689:Middlewares/ST/BlueNRG-2/hci/controller/bluenrg1_gatt_aci.c ****   rq.ocf = 0x112;
 2493              		.loc 1 689 3 is_stmt 1 view .LVU881
 2494              		.loc 1 689 10 is_stmt 0 view .LVU882
 2495 0026 4FF48970 		mov	r0, #274
 2496 002a ADF80A01 		strh	r0, [sp, #266]	@ movhi
 690:Middlewares/ST/BlueNRG-2/hci/controller/bluenrg1_gatt_aci.c ****   rq.event = 0x0F;
 2497              		.loc 1 690 3 is_stmt 1 view .LVU883
 2498              		.loc 1 690 12 is_stmt 0 view .LVU884
 2499 002e 0F20     		movs	r0, #15
 2500 0030 4390     		str	r0, [sp, #268]
 691:Middlewares/ST/BlueNRG-2/hci/controller/bluenrg1_gatt_aci.c ****   rq.cparam = cmd_buffer;
 2501              		.loc 1 691 3 is_stmt 1 view .LVU885
 2502              		.loc 1 691 13 is_stmt 0 view .LVU886
 2503 0032 4492     		str	r2, [sp, #272]
 692:Middlewares/ST/BlueNRG-2/hci/controller/bluenrg1_gatt_aci.c ****   rq.clen = index_input;
 2504              		.loc 1 692 3 is_stmt 1 view .LVU887
 2505              		.loc 1 692 11 is_stmt 0 view .LVU888
 2506 0034 0222     		movs	r2, #2
 2507              	.LVL273:
 2508              		.loc 1 692 11 view .LVU889
 2509 0036 4592     		str	r2, [sp, #276]
 693:Middlewares/ST/BlueNRG-2/hci/controller/bluenrg1_gatt_aci.c ****   rq.rparam = &status;
 2510              		.loc 1 693 3 is_stmt 1 view .LVU890
 2511              		.loc 1 693 13 is_stmt 0 view .LVU891
 2512 0038 4693     		str	r3, [sp, #280]
 694:Middlewares/ST/BlueNRG-2/hci/controller/bluenrg1_gatt_aci.c ****   rq.rlen = 1;
 2513              		.loc 1 694 3 is_stmt 1 view .LVU892
 2514              		.loc 1 694 11 is_stmt 0 view .LVU893
 2515 003a 0123     		movs	r3, #1
 2516 003c 4793     		str	r3, [sp, #284]
 695:Middlewares/ST/BlueNRG-2/hci/controller/bluenrg1_gatt_aci.c ****   if (hci_send_req(&rq, FALSE) < 0)
 2517              		.loc 1 695 3 is_stmt 1 view .LVU894
 2518              		.loc 1 695 7 is_stmt 0 view .LVU895
 2519 003e 42A8     		add	r0, sp, #264
 2520 0040 FFF7FEFF 		bl	hci_send_req
 2521              	.LVL274:
 2522              		.loc 1 695 6 discriminator 1 view .LVU896
 2523 0044 0028     		cmp	r0, #0
 2524 0046 04DB     		blt	.L105
 696:Middlewares/ST/BlueNRG-2/hci/controller/bluenrg1_gatt_aci.c ****     return BLE_STATUS_TIMEOUT;
 697:Middlewares/ST/BlueNRG-2/hci/controller/bluenrg1_gatt_aci.c ****   if (status) {
 2525              		.loc 1 697 3 is_stmt 1 view .LVU897
 2526              		.loc 1 697 7 is_stmt 0 view .LVU898
 2527 0048 9DF80300 		ldrb	r0, [sp, #3]	@ zero_extendqisi2
 2528              	.L104:
 698:Middlewares/ST/BlueNRG-2/hci/controller/bluenrg1_gatt_aci.c ****     return status;
 699:Middlewares/ST/BlueNRG-2/hci/controller/bluenrg1_gatt_aci.c ****   }
 700:Middlewares/ST/BlueNRG-2/hci/controller/bluenrg1_gatt_aci.c ****   return BLE_STATUS_SUCCESS;
 701:Middlewares/ST/BlueNRG-2/hci/controller/bluenrg1_gatt_aci.c **** }
 2529              		.loc 1 701 1 view .LVU899
 2530 004c 49B0     		add	sp, sp, #292
 2531              		.cfi_remember_state
 2532              		.cfi_def_cfa_offset 4
 2533              		@ sp needed
 2534 004e 5DF804FB 		ldr	pc, [sp], #4
ARM GAS  C:\Users\IAHERN~1\AppData\Local\Temp\ccP26j2c.s 			page 58


 2535              	.LVL275:
 2536              	.L105:
 2537              		.cfi_restore_state
 696:Middlewares/ST/BlueNRG-2/hci/controller/bluenrg1_gatt_aci.c ****     return BLE_STATUS_TIMEOUT;
 2538              		.loc 1 696 12 view .LVU900
 2539 0052 FF20     		movs	r0, #255
 2540 0054 FAE7     		b	.L104
 2541              		.cfi_endproc
 2542              	.LFE154:
 2544              		.section	.text.aci_gatt_disc_primary_service_by_uuid,"ax",%progbits
 2545              		.align	1
 2546              		.global	aci_gatt_disc_primary_service_by_uuid
 2547              		.syntax unified
 2548              		.thumb
 2549              		.thumb_func
 2551              	aci_gatt_disc_primary_service_by_uuid:
 2552              	.LVL276:
 2553              	.LFB155:
 702:Middlewares/ST/BlueNRG-2/hci/controller/bluenrg1_gatt_aci.c **** tBleStatus aci_gatt_disc_primary_service_by_uuid(uint16_t Connection_Handle,
 703:Middlewares/ST/BlueNRG-2/hci/controller/bluenrg1_gatt_aci.c ****                                                  uint8_t UUID_Type,
 704:Middlewares/ST/BlueNRG-2/hci/controller/bluenrg1_gatt_aci.c ****                                                  UUID_t *UUID)
 705:Middlewares/ST/BlueNRG-2/hci/controller/bluenrg1_gatt_aci.c **** {
 2554              		.loc 1 705 1 is_stmt 1 view -0
 2555              		.cfi_startproc
 2556              		@ args = 0, pretend = 0, frame = 288
 2557              		@ frame_needed = 0, uses_anonymous_args = 0
 2558              		.loc 1 705 1 is_stmt 0 view .LVU902
 2559 0000 10B5     		push	{r4, lr}
 2560              		.cfi_def_cfa_offset 8
 2561              		.cfi_offset 4, -8
 2562              		.cfi_offset 14, -4
 2563 0002 C8B0     		sub	sp, sp, #288
 2564              		.cfi_def_cfa_offset 296
 2565 0004 0B46     		mov	r3, r1
 2566 0006 1146     		mov	r1, r2
 2567              	.LVL277:
 706:Middlewares/ST/BlueNRG-2/hci/controller/bluenrg1_gatt_aci.c ****   struct hci_request rq;
 2568              		.loc 1 706 3 is_stmt 1 view .LVU903
 707:Middlewares/ST/BlueNRG-2/hci/controller/bluenrg1_gatt_aci.c ****   uint8_t cmd_buffer[258];
 2569              		.loc 1 707 3 view .LVU904
 708:Middlewares/ST/BlueNRG-2/hci/controller/bluenrg1_gatt_aci.c ****   aci_gatt_disc_primary_service_by_uuid_cp0 *cp0 = (aci_gatt_disc_primary_service_by_uuid_cp0*)(cmd
 2570              		.loc 1 708 3 view .LVU905
 709:Middlewares/ST/BlueNRG-2/hci/controller/bluenrg1_gatt_aci.c ****   tBleStatus status = 0;
 2571              		.loc 1 709 3 view .LVU906
 2572              		.loc 1 709 14 is_stmt 0 view .LVU907
 2573 0008 0022     		movs	r2, #0
 2574              	.LVL278:
 2575              		.loc 1 709 14 view .LVU908
 2576 000a 8DF80320 		strb	r2, [sp, #3]
 710:Middlewares/ST/BlueNRG-2/hci/controller/bluenrg1_gatt_aci.c ****   uint8_t index_input = 0;
 2577              		.loc 1 710 3 is_stmt 1 view .LVU909
 2578              	.LVL279:
 711:Middlewares/ST/BlueNRG-2/hci/controller/bluenrg1_gatt_aci.c ****   cp0->Connection_Handle = htob(Connection_Handle, 2);
 2579              		.loc 1 711 3 view .LVU910
 2580              		.loc 1 711 26 is_stmt 0 view .LVU911
 2581 000e ADF80400 		strh	r0, [sp, #4]	@ movhi
 712:Middlewares/ST/BlueNRG-2/hci/controller/bluenrg1_gatt_aci.c ****   index_input += 2;
ARM GAS  C:\Users\IAHERN~1\AppData\Local\Temp\ccP26j2c.s 			page 59


 2582              		.loc 1 712 3 is_stmt 1 view .LVU912
 2583              	.LVL280:
 713:Middlewares/ST/BlueNRG-2/hci/controller/bluenrg1_gatt_aci.c ****   cp0->UUID_Type = htob(UUID_Type, 1);
 2584              		.loc 1 713 3 view .LVU913
 2585              		.loc 1 713 18 is_stmt 0 view .LVU914
 2586 0012 8DF80630 		strb	r3, [sp, #6]
 714:Middlewares/ST/BlueNRG-2/hci/controller/bluenrg1_gatt_aci.c ****   index_input += 1;
 2587              		.loc 1 714 3 is_stmt 1 view .LVU915
 2588              	.LVL281:
 2589              	.LBB17:
 715:Middlewares/ST/BlueNRG-2/hci/controller/bluenrg1_gatt_aci.c ****   /* var_len_data input */
 716:Middlewares/ST/BlueNRG-2/hci/controller/bluenrg1_gatt_aci.c ****   {
 717:Middlewares/ST/BlueNRG-2/hci/controller/bluenrg1_gatt_aci.c ****     uint8_t size;
 2590              		.loc 1 717 5 view .LVU916
 718:Middlewares/ST/BlueNRG-2/hci/controller/bluenrg1_gatt_aci.c ****     switch (UUID_Type) {
 2591              		.loc 1 718 5 view .LVU917
 2592 0016 012B     		cmp	r3, #1
 2593 0018 03D0     		beq	.L110
 2594 001a 022B     		cmp	r3, #2
 2595 001c 29D1     		bne	.L111
 719:Middlewares/ST/BlueNRG-2/hci/controller/bluenrg1_gatt_aci.c ****       case 1: size = 2; break;
 720:Middlewares/ST/BlueNRG-2/hci/controller/bluenrg1_gatt_aci.c ****       case 2: size = 16; break;
 2596              		.loc 1 720 20 is_stmt 0 view .LVU918
 2597 001e 1024     		movs	r4, #16
 2598 0020 00E0     		b	.L108
 2599              	.L110:
 718:Middlewares/ST/BlueNRG-2/hci/controller/bluenrg1_gatt_aci.c ****     switch (UUID_Type) {
 2600              		.loc 1 718 5 view .LVU919
 2601 0022 0224     		movs	r4, #2
 2602              	.L108:
 2603              	.LVL282:
 721:Middlewares/ST/BlueNRG-2/hci/controller/bluenrg1_gatt_aci.c ****       default: return BLE_STATUS_ERROR;
 722:Middlewares/ST/BlueNRG-2/hci/controller/bluenrg1_gatt_aci.c ****     }
 723:Middlewares/ST/BlueNRG-2/hci/controller/bluenrg1_gatt_aci.c ****     BLUENRG_memcpy((void *) &cp0->UUID, (const void *) UUID, size);
 2604              		.loc 1 723 5 is_stmt 1 view .LVU920
 2605 0024 2246     		mov	r2, r4
 2606 0026 0DF10700 		add	r0, sp, #7
 2607              	.LVL283:
 2608              		.loc 1 723 5 is_stmt 0 view .LVU921
 2609 002a FFF7FEFF 		bl	memcpy
 2610              	.LVL284:
 724:Middlewares/ST/BlueNRG-2/hci/controller/bluenrg1_gatt_aci.c ****     index_input += size;
 2611              		.loc 1 724 5 is_stmt 1 view .LVU922
 2612              		.loc 1 724 17 is_stmt 0 view .LVU923
 2613 002e 0334     		adds	r4, r4, #3
 2614              	.LVL285:
 2615              		.loc 1 724 17 view .LVU924
 2616              	.LBE17:
 725:Middlewares/ST/BlueNRG-2/hci/controller/bluenrg1_gatt_aci.c ****   }
 726:Middlewares/ST/BlueNRG-2/hci/controller/bluenrg1_gatt_aci.c ****   BLUENRG_memset(&rq, 0, sizeof(rq));
 2617              		.loc 1 726 3 is_stmt 1 view .LVU925
 2618 0030 0021     		movs	r1, #0
 2619 0032 4291     		str	r1, [sp, #264]
 2620 0034 4391     		str	r1, [sp, #268]
 2621 0036 4491     		str	r1, [sp, #272]
 2622 0038 4591     		str	r1, [sp, #276]
 2623 003a 4691     		str	r1, [sp, #280]
ARM GAS  C:\Users\IAHERN~1\AppData\Local\Temp\ccP26j2c.s 			page 60


 2624 003c 4791     		str	r1, [sp, #284]
 727:Middlewares/ST/BlueNRG-2/hci/controller/bluenrg1_gatt_aci.c ****   rq.ogf = 0x3f;
 2625              		.loc 1 727 3 view .LVU926
 2626              		.loc 1 727 10 is_stmt 0 view .LVU927
 2627 003e 3F23     		movs	r3, #63
 2628 0040 ADF80831 		strh	r3, [sp, #264]	@ movhi
 728:Middlewares/ST/BlueNRG-2/hci/controller/bluenrg1_gatt_aci.c ****   rq.ocf = 0x113;
 2629              		.loc 1 728 3 is_stmt 1 view .LVU928
 2630              		.loc 1 728 10 is_stmt 0 view .LVU929
 2631 0044 40F21313 		movw	r3, #275
 2632 0048 ADF80A31 		strh	r3, [sp, #266]	@ movhi
 729:Middlewares/ST/BlueNRG-2/hci/controller/bluenrg1_gatt_aci.c ****   rq.event = 0x0F;
 2633              		.loc 1 729 3 is_stmt 1 view .LVU930
 2634              		.loc 1 729 12 is_stmt 0 view .LVU931
 2635 004c 0F23     		movs	r3, #15
 2636 004e 4393     		str	r3, [sp, #268]
 730:Middlewares/ST/BlueNRG-2/hci/controller/bluenrg1_gatt_aci.c ****   rq.cparam = cmd_buffer;
 2637              		.loc 1 730 3 is_stmt 1 view .LVU932
 2638              		.loc 1 730 13 is_stmt 0 view .LVU933
 2639 0050 01AB     		add	r3, sp, #4
 2640              	.LVL286:
 2641              		.loc 1 730 13 view .LVU934
 2642 0052 4493     		str	r3, [sp, #272]
 731:Middlewares/ST/BlueNRG-2/hci/controller/bluenrg1_gatt_aci.c ****   rq.clen = index_input;
 2643              		.loc 1 731 3 is_stmt 1 view .LVU935
 2644              		.loc 1 731 11 is_stmt 0 view .LVU936
 2645 0054 4594     		str	r4, [sp, #276]
 732:Middlewares/ST/BlueNRG-2/hci/controller/bluenrg1_gatt_aci.c ****   rq.rparam = &status;
 2646              		.loc 1 732 3 is_stmt 1 view .LVU937
 2647              		.loc 1 732 13 is_stmt 0 view .LVU938
 2648 0056 0DF10303 		add	r3, sp, #3
 2649              	.LVL287:
 2650              		.loc 1 732 13 view .LVU939
 2651 005a 4693     		str	r3, [sp, #280]
 733:Middlewares/ST/BlueNRG-2/hci/controller/bluenrg1_gatt_aci.c ****   rq.rlen = 1;
 2652              		.loc 1 733 3 is_stmt 1 view .LVU940
 2653              		.loc 1 733 11 is_stmt 0 view .LVU941
 2654 005c 0123     		movs	r3, #1
 2655 005e 4793     		str	r3, [sp, #284]
 734:Middlewares/ST/BlueNRG-2/hci/controller/bluenrg1_gatt_aci.c ****   if (hci_send_req(&rq, FALSE) < 0)
 2656              		.loc 1 734 3 is_stmt 1 view .LVU942
 2657              		.loc 1 734 7 is_stmt 0 view .LVU943
 2658 0060 42A8     		add	r0, sp, #264
 2659 0062 FFF7FEFF 		bl	hci_send_req
 2660              	.LVL288:
 2661              		.loc 1 734 6 discriminator 1 view .LVU944
 2662 0066 0028     		cmp	r0, #0
 2663 0068 05DB     		blt	.L112
 735:Middlewares/ST/BlueNRG-2/hci/controller/bluenrg1_gatt_aci.c ****     return BLE_STATUS_TIMEOUT;
 736:Middlewares/ST/BlueNRG-2/hci/controller/bluenrg1_gatt_aci.c ****   if (status) {
 2664              		.loc 1 736 3 is_stmt 1 view .LVU945
 2665              		.loc 1 736 7 is_stmt 0 view .LVU946
 2666 006a 9DF80300 		ldrb	r0, [sp, #3]	@ zero_extendqisi2
 2667              	.LVL289:
 2668              	.L109:
 737:Middlewares/ST/BlueNRG-2/hci/controller/bluenrg1_gatt_aci.c ****     return status;
 738:Middlewares/ST/BlueNRG-2/hci/controller/bluenrg1_gatt_aci.c ****   }
ARM GAS  C:\Users\IAHERN~1\AppData\Local\Temp\ccP26j2c.s 			page 61


 739:Middlewares/ST/BlueNRG-2/hci/controller/bluenrg1_gatt_aci.c ****   return BLE_STATUS_SUCCESS;
 740:Middlewares/ST/BlueNRG-2/hci/controller/bluenrg1_gatt_aci.c **** }
 2669              		.loc 1 740 1 view .LVU947
 2670 006e 48B0     		add	sp, sp, #288
 2671              		.cfi_remember_state
 2672              		.cfi_def_cfa_offset 8
 2673              		@ sp needed
 2674 0070 10BD     		pop	{r4, pc}
 2675              	.LVL290:
 2676              	.L111:
 2677              		.cfi_restore_state
 2678              	.LBB18:
 718:Middlewares/ST/BlueNRG-2/hci/controller/bluenrg1_gatt_aci.c ****       case 1: size = 2; break;
 2679              		.loc 1 718 5 view .LVU948
 2680 0072 4720     		movs	r0, #71
 2681              	.LVL291:
 718:Middlewares/ST/BlueNRG-2/hci/controller/bluenrg1_gatt_aci.c ****       case 1: size = 2; break;
 2682              		.loc 1 718 5 view .LVU949
 2683 0074 FBE7     		b	.L109
 2684              	.LVL292:
 2685              	.L112:
 718:Middlewares/ST/BlueNRG-2/hci/controller/bluenrg1_gatt_aci.c ****       case 1: size = 2; break;
 2686              		.loc 1 718 5 view .LVU950
 2687              	.LBE18:
 735:Middlewares/ST/BlueNRG-2/hci/controller/bluenrg1_gatt_aci.c ****     return BLE_STATUS_TIMEOUT;
 2688              		.loc 1 735 12 view .LVU951
 2689 0076 FF20     		movs	r0, #255
 2690 0078 F9E7     		b	.L109
 2691              		.cfi_endproc
 2692              	.LFE155:
 2694              		.section	.text.aci_gatt_find_included_services,"ax",%progbits
 2695              		.align	1
 2696              		.global	aci_gatt_find_included_services
 2697              		.syntax unified
 2698              		.thumb
 2699              		.thumb_func
 2701              	aci_gatt_find_included_services:
 2702              	.LVL293:
 2703              	.LFB156:
 741:Middlewares/ST/BlueNRG-2/hci/controller/bluenrg1_gatt_aci.c **** tBleStatus aci_gatt_find_included_services(uint16_t Connection_Handle,
 742:Middlewares/ST/BlueNRG-2/hci/controller/bluenrg1_gatt_aci.c ****                                            uint16_t Start_Handle,
 743:Middlewares/ST/BlueNRG-2/hci/controller/bluenrg1_gatt_aci.c ****                                            uint16_t End_Handle)
 744:Middlewares/ST/BlueNRG-2/hci/controller/bluenrg1_gatt_aci.c **** {
 2704              		.loc 1 744 1 is_stmt 1 view -0
 2705              		.cfi_startproc
 2706              		@ args = 0, pretend = 0, frame = 288
 2707              		@ frame_needed = 0, uses_anonymous_args = 0
 2708              		.loc 1 744 1 is_stmt 0 view .LVU953
 2709 0000 30B5     		push	{r4, r5, lr}
 2710              		.cfi_def_cfa_offset 12
 2711              		.cfi_offset 4, -12
 2712              		.cfi_offset 5, -8
 2713              		.cfi_offset 14, -4
 2714 0002 C9B0     		sub	sp, sp, #292
 2715              		.cfi_def_cfa_offset 304
 745:Middlewares/ST/BlueNRG-2/hci/controller/bluenrg1_gatt_aci.c ****   struct hci_request rq;
 2716              		.loc 1 745 3 is_stmt 1 view .LVU954
ARM GAS  C:\Users\IAHERN~1\AppData\Local\Temp\ccP26j2c.s 			page 62


 746:Middlewares/ST/BlueNRG-2/hci/controller/bluenrg1_gatt_aci.c ****   uint8_t cmd_buffer[258];
 2717              		.loc 1 746 3 view .LVU955
 747:Middlewares/ST/BlueNRG-2/hci/controller/bluenrg1_gatt_aci.c ****   aci_gatt_find_included_services_cp0 *cp0 = (aci_gatt_find_included_services_cp0*)(cmd_buffer);
 2718              		.loc 1 747 3 view .LVU956
 2719              	.LVL294:
 748:Middlewares/ST/BlueNRG-2/hci/controller/bluenrg1_gatt_aci.c ****   tBleStatus status = 0;
 2720              		.loc 1 748 3 view .LVU957
 2721              		.loc 1 748 14 is_stmt 0 view .LVU958
 2722 0004 0DF10305 		add	r5, sp, #3
 2723 0008 0023     		movs	r3, #0
 2724 000a 8DF80330 		strb	r3, [sp, #3]
 749:Middlewares/ST/BlueNRG-2/hci/controller/bluenrg1_gatt_aci.c ****   uint8_t index_input = 0;
 2725              		.loc 1 749 3 is_stmt 1 view .LVU959
 2726              	.LVL295:
 750:Middlewares/ST/BlueNRG-2/hci/controller/bluenrg1_gatt_aci.c ****   cp0->Connection_Handle = htob(Connection_Handle, 2);
 2727              		.loc 1 750 3 view .LVU960
 2728              		.loc 1 750 26 is_stmt 0 view .LVU961
 2729 000e 01AC     		add	r4, sp, #4
 2730              	.LVL296:
 2731              		.loc 1 750 26 view .LVU962
 2732 0010 ADF80400 		strh	r0, [sp, #4]	@ movhi
 751:Middlewares/ST/BlueNRG-2/hci/controller/bluenrg1_gatt_aci.c ****   index_input += 2;
 2733              		.loc 1 751 3 is_stmt 1 view .LVU963
 2734              	.LVL297:
 752:Middlewares/ST/BlueNRG-2/hci/controller/bluenrg1_gatt_aci.c ****   cp0->Start_Handle = htob(Start_Handle, 2);
 2735              		.loc 1 752 3 view .LVU964
 2736              		.loc 1 752 21 is_stmt 0 view .LVU965
 2737 0014 ADF80610 		strh	r1, [sp, #6]	@ movhi
 753:Middlewares/ST/BlueNRG-2/hci/controller/bluenrg1_gatt_aci.c ****   index_input += 2;
 2738              		.loc 1 753 3 is_stmt 1 view .LVU966
 2739              	.LVL298:
 754:Middlewares/ST/BlueNRG-2/hci/controller/bluenrg1_gatt_aci.c ****   cp0->End_Handle = htob(End_Handle, 2);
 2740              		.loc 1 754 3 view .LVU967
 2741              		.loc 1 754 19 is_stmt 0 view .LVU968
 2742 0018 ADF80820 		strh	r2, [sp, #8]	@ movhi
 755:Middlewares/ST/BlueNRG-2/hci/controller/bluenrg1_gatt_aci.c ****   index_input += 2;
 2743              		.loc 1 755 3 is_stmt 1 view .LVU969
 2744              	.LVL299:
 756:Middlewares/ST/BlueNRG-2/hci/controller/bluenrg1_gatt_aci.c ****   BLUENRG_memset(&rq, 0, sizeof(rq));
 2745              		.loc 1 756 3 view .LVU970
 2746 001c 4293     		str	r3, [sp, #264]
 2747 001e 4393     		str	r3, [sp, #268]
 2748 0020 4493     		str	r3, [sp, #272]
 2749 0022 4593     		str	r3, [sp, #276]
 2750 0024 4693     		str	r3, [sp, #280]
 2751 0026 4793     		str	r3, [sp, #284]
 757:Middlewares/ST/BlueNRG-2/hci/controller/bluenrg1_gatt_aci.c ****   rq.ogf = 0x3f;
 2752              		.loc 1 757 3 view .LVU971
 2753              		.loc 1 757 10 is_stmt 0 view .LVU972
 2754 0028 3F22     		movs	r2, #63
 2755              	.LVL300:
 2756              		.loc 1 757 10 view .LVU973
 2757 002a ADF80821 		strh	r2, [sp, #264]	@ movhi
 758:Middlewares/ST/BlueNRG-2/hci/controller/bluenrg1_gatt_aci.c ****   rq.ocf = 0x114;
 2758              		.loc 1 758 3 is_stmt 1 view .LVU974
 2759              		.loc 1 758 10 is_stmt 0 view .LVU975
 2760 002e 4FF48A72 		mov	r2, #276
ARM GAS  C:\Users\IAHERN~1\AppData\Local\Temp\ccP26j2c.s 			page 63


 2761 0032 ADF80A21 		strh	r2, [sp, #266]	@ movhi
 759:Middlewares/ST/BlueNRG-2/hci/controller/bluenrg1_gatt_aci.c ****   rq.event = 0x0F;
 2762              		.loc 1 759 3 is_stmt 1 view .LVU976
 2763              		.loc 1 759 12 is_stmt 0 view .LVU977
 2764 0036 0F22     		movs	r2, #15
 2765 0038 4392     		str	r2, [sp, #268]
 760:Middlewares/ST/BlueNRG-2/hci/controller/bluenrg1_gatt_aci.c ****   rq.cparam = cmd_buffer;
 2766              		.loc 1 760 3 is_stmt 1 view .LVU978
 2767              		.loc 1 760 13 is_stmt 0 view .LVU979
 2768 003a 4494     		str	r4, [sp, #272]
 761:Middlewares/ST/BlueNRG-2/hci/controller/bluenrg1_gatt_aci.c ****   rq.clen = index_input;
 2769              		.loc 1 761 3 is_stmt 1 view .LVU980
 2770              		.loc 1 761 11 is_stmt 0 view .LVU981
 2771 003c 0622     		movs	r2, #6
 2772 003e 4592     		str	r2, [sp, #276]
 762:Middlewares/ST/BlueNRG-2/hci/controller/bluenrg1_gatt_aci.c ****   rq.rparam = &status;
 2773              		.loc 1 762 3 is_stmt 1 view .LVU982
 2774              		.loc 1 762 13 is_stmt 0 view .LVU983
 2775 0040 4695     		str	r5, [sp, #280]
 763:Middlewares/ST/BlueNRG-2/hci/controller/bluenrg1_gatt_aci.c ****   rq.rlen = 1;
 2776              		.loc 1 763 3 is_stmt 1 view .LVU984
 2777              		.loc 1 763 11 is_stmt 0 view .LVU985
 2778 0042 0122     		movs	r2, #1
 2779 0044 4792     		str	r2, [sp, #284]
 764:Middlewares/ST/BlueNRG-2/hci/controller/bluenrg1_gatt_aci.c ****   if (hci_send_req(&rq, FALSE) < 0)
 2780              		.loc 1 764 3 is_stmt 1 view .LVU986
 2781              		.loc 1 764 7 is_stmt 0 view .LVU987
 2782 0046 1946     		mov	r1, r3
 2783              	.LVL301:
 2784              		.loc 1 764 7 view .LVU988
 2785 0048 42A8     		add	r0, sp, #264
 2786              	.LVL302:
 2787              		.loc 1 764 7 view .LVU989
 2788 004a FFF7FEFF 		bl	hci_send_req
 2789              	.LVL303:
 2790              		.loc 1 764 6 discriminator 1 view .LVU990
 2791 004e 0028     		cmp	r0, #0
 2792 0050 03DB     		blt	.L116
 765:Middlewares/ST/BlueNRG-2/hci/controller/bluenrg1_gatt_aci.c ****     return BLE_STATUS_TIMEOUT;
 766:Middlewares/ST/BlueNRG-2/hci/controller/bluenrg1_gatt_aci.c ****   if (status) {
 2793              		.loc 1 766 3 is_stmt 1 view .LVU991
 2794              		.loc 1 766 7 is_stmt 0 view .LVU992
 2795 0052 9DF80300 		ldrb	r0, [sp, #3]	@ zero_extendqisi2
 2796              	.L115:
 767:Middlewares/ST/BlueNRG-2/hci/controller/bluenrg1_gatt_aci.c ****     return status;
 768:Middlewares/ST/BlueNRG-2/hci/controller/bluenrg1_gatt_aci.c ****   }
 769:Middlewares/ST/BlueNRG-2/hci/controller/bluenrg1_gatt_aci.c ****   return BLE_STATUS_SUCCESS;
 770:Middlewares/ST/BlueNRG-2/hci/controller/bluenrg1_gatt_aci.c **** }
 2797              		.loc 1 770 1 view .LVU993
 2798 0056 49B0     		add	sp, sp, #292
 2799              		.cfi_remember_state
 2800              		.cfi_def_cfa_offset 12
 2801              		@ sp needed
 2802 0058 30BD     		pop	{r4, r5, pc}
 2803              	.LVL304:
 2804              	.L116:
 2805              		.cfi_restore_state
ARM GAS  C:\Users\IAHERN~1\AppData\Local\Temp\ccP26j2c.s 			page 64


 765:Middlewares/ST/BlueNRG-2/hci/controller/bluenrg1_gatt_aci.c ****     return BLE_STATUS_TIMEOUT;
 2806              		.loc 1 765 12 view .LVU994
 2807 005a FF20     		movs	r0, #255
 2808 005c FBE7     		b	.L115
 2809              		.cfi_endproc
 2810              	.LFE156:
 2812              		.section	.text.aci_gatt_disc_all_char_of_service,"ax",%progbits
 2813              		.align	1
 2814              		.global	aci_gatt_disc_all_char_of_service
 2815              		.syntax unified
 2816              		.thumb
 2817              		.thumb_func
 2819              	aci_gatt_disc_all_char_of_service:
 2820              	.LVL305:
 2821              	.LFB157:
 771:Middlewares/ST/BlueNRG-2/hci/controller/bluenrg1_gatt_aci.c **** tBleStatus aci_gatt_disc_all_char_of_service(uint16_t Connection_Handle,
 772:Middlewares/ST/BlueNRG-2/hci/controller/bluenrg1_gatt_aci.c ****                                              uint16_t Start_Handle,
 773:Middlewares/ST/BlueNRG-2/hci/controller/bluenrg1_gatt_aci.c ****                                              uint16_t End_Handle)
 774:Middlewares/ST/BlueNRG-2/hci/controller/bluenrg1_gatt_aci.c **** {
 2822              		.loc 1 774 1 is_stmt 1 view -0
 2823              		.cfi_startproc
 2824              		@ args = 0, pretend = 0, frame = 288
 2825              		@ frame_needed = 0, uses_anonymous_args = 0
 2826              		.loc 1 774 1 is_stmt 0 view .LVU996
 2827 0000 30B5     		push	{r4, r5, lr}
 2828              		.cfi_def_cfa_offset 12
 2829              		.cfi_offset 4, -12
 2830              		.cfi_offset 5, -8
 2831              		.cfi_offset 14, -4
 2832 0002 C9B0     		sub	sp, sp, #292
 2833              		.cfi_def_cfa_offset 304
 775:Middlewares/ST/BlueNRG-2/hci/controller/bluenrg1_gatt_aci.c ****   struct hci_request rq;
 2834              		.loc 1 775 3 is_stmt 1 view .LVU997
 776:Middlewares/ST/BlueNRG-2/hci/controller/bluenrg1_gatt_aci.c ****   uint8_t cmd_buffer[258];
 2835              		.loc 1 776 3 view .LVU998
 777:Middlewares/ST/BlueNRG-2/hci/controller/bluenrg1_gatt_aci.c ****   aci_gatt_disc_all_char_of_service_cp0 *cp0 = (aci_gatt_disc_all_char_of_service_cp0*)(cmd_buffer)
 2836              		.loc 1 777 3 view .LVU999
 2837              	.LVL306:
 778:Middlewares/ST/BlueNRG-2/hci/controller/bluenrg1_gatt_aci.c ****   tBleStatus status = 0;
 2838              		.loc 1 778 3 view .LVU1000
 2839              		.loc 1 778 14 is_stmt 0 view .LVU1001
 2840 0004 0DF10305 		add	r5, sp, #3
 2841 0008 0023     		movs	r3, #0
 2842 000a 8DF80330 		strb	r3, [sp, #3]
 779:Middlewares/ST/BlueNRG-2/hci/controller/bluenrg1_gatt_aci.c ****   uint8_t index_input = 0;
 2843              		.loc 1 779 3 is_stmt 1 view .LVU1002
 2844              	.LVL307:
 780:Middlewares/ST/BlueNRG-2/hci/controller/bluenrg1_gatt_aci.c ****   cp0->Connection_Handle = htob(Connection_Handle, 2);
 2845              		.loc 1 780 3 view .LVU1003
 2846              		.loc 1 780 26 is_stmt 0 view .LVU1004
 2847 000e 01AC     		add	r4, sp, #4
 2848              	.LVL308:
 2849              		.loc 1 780 26 view .LVU1005
 2850 0010 ADF80400 		strh	r0, [sp, #4]	@ movhi
 781:Middlewares/ST/BlueNRG-2/hci/controller/bluenrg1_gatt_aci.c ****   index_input += 2;
 2851              		.loc 1 781 3 is_stmt 1 view .LVU1006
 2852              	.LVL309:
ARM GAS  C:\Users\IAHERN~1\AppData\Local\Temp\ccP26j2c.s 			page 65


 782:Middlewares/ST/BlueNRG-2/hci/controller/bluenrg1_gatt_aci.c ****   cp0->Start_Handle = htob(Start_Handle, 2);
 2853              		.loc 1 782 3 view .LVU1007
 2854              		.loc 1 782 21 is_stmt 0 view .LVU1008
 2855 0014 ADF80610 		strh	r1, [sp, #6]	@ movhi
 783:Middlewares/ST/BlueNRG-2/hci/controller/bluenrg1_gatt_aci.c ****   index_input += 2;
 2856              		.loc 1 783 3 is_stmt 1 view .LVU1009
 2857              	.LVL310:
 784:Middlewares/ST/BlueNRG-2/hci/controller/bluenrg1_gatt_aci.c ****   cp0->End_Handle = htob(End_Handle, 2);
 2858              		.loc 1 784 3 view .LVU1010
 2859              		.loc 1 784 19 is_stmt 0 view .LVU1011
 2860 0018 ADF80820 		strh	r2, [sp, #8]	@ movhi
 785:Middlewares/ST/BlueNRG-2/hci/controller/bluenrg1_gatt_aci.c ****   index_input += 2;
 2861              		.loc 1 785 3 is_stmt 1 view .LVU1012
 2862              	.LVL311:
 786:Middlewares/ST/BlueNRG-2/hci/controller/bluenrg1_gatt_aci.c ****   BLUENRG_memset(&rq, 0, sizeof(rq));
 2863              		.loc 1 786 3 view .LVU1013
 2864 001c 4293     		str	r3, [sp, #264]
 2865 001e 4393     		str	r3, [sp, #268]
 2866 0020 4493     		str	r3, [sp, #272]
 2867 0022 4593     		str	r3, [sp, #276]
 2868 0024 4693     		str	r3, [sp, #280]
 2869 0026 4793     		str	r3, [sp, #284]
 787:Middlewares/ST/BlueNRG-2/hci/controller/bluenrg1_gatt_aci.c ****   rq.ogf = 0x3f;
 2870              		.loc 1 787 3 view .LVU1014
 2871              		.loc 1 787 10 is_stmt 0 view .LVU1015
 2872 0028 3F22     		movs	r2, #63
 2873              	.LVL312:
 2874              		.loc 1 787 10 view .LVU1016
 2875 002a ADF80821 		strh	r2, [sp, #264]	@ movhi
 788:Middlewares/ST/BlueNRG-2/hci/controller/bluenrg1_gatt_aci.c ****   rq.ocf = 0x115;
 2876              		.loc 1 788 3 is_stmt 1 view .LVU1017
 2877              		.loc 1 788 10 is_stmt 0 view .LVU1018
 2878 002e 40F21512 		movw	r2, #277
 2879 0032 ADF80A21 		strh	r2, [sp, #266]	@ movhi
 789:Middlewares/ST/BlueNRG-2/hci/controller/bluenrg1_gatt_aci.c ****   rq.event = 0x0F;
 2880              		.loc 1 789 3 is_stmt 1 view .LVU1019
 2881              		.loc 1 789 12 is_stmt 0 view .LVU1020
 2882 0036 0F22     		movs	r2, #15
 2883 0038 4392     		str	r2, [sp, #268]
 790:Middlewares/ST/BlueNRG-2/hci/controller/bluenrg1_gatt_aci.c ****   rq.cparam = cmd_buffer;
 2884              		.loc 1 790 3 is_stmt 1 view .LVU1021
 2885              		.loc 1 790 13 is_stmt 0 view .LVU1022
 2886 003a 4494     		str	r4, [sp, #272]
 791:Middlewares/ST/BlueNRG-2/hci/controller/bluenrg1_gatt_aci.c ****   rq.clen = index_input;
 2887              		.loc 1 791 3 is_stmt 1 view .LVU1023
 2888              		.loc 1 791 11 is_stmt 0 view .LVU1024
 2889 003c 0622     		movs	r2, #6
 2890 003e 4592     		str	r2, [sp, #276]
 792:Middlewares/ST/BlueNRG-2/hci/controller/bluenrg1_gatt_aci.c ****   rq.rparam = &status;
 2891              		.loc 1 792 3 is_stmt 1 view .LVU1025
 2892              		.loc 1 792 13 is_stmt 0 view .LVU1026
 2893 0040 4695     		str	r5, [sp, #280]
 793:Middlewares/ST/BlueNRG-2/hci/controller/bluenrg1_gatt_aci.c ****   rq.rlen = 1;
 2894              		.loc 1 793 3 is_stmt 1 view .LVU1027
 2895              		.loc 1 793 11 is_stmt 0 view .LVU1028
 2896 0042 0122     		movs	r2, #1
 2897 0044 4792     		str	r2, [sp, #284]
ARM GAS  C:\Users\IAHERN~1\AppData\Local\Temp\ccP26j2c.s 			page 66


 794:Middlewares/ST/BlueNRG-2/hci/controller/bluenrg1_gatt_aci.c ****   if (hci_send_req(&rq, FALSE) < 0)
 2898              		.loc 1 794 3 is_stmt 1 view .LVU1029
 2899              		.loc 1 794 7 is_stmt 0 view .LVU1030
 2900 0046 1946     		mov	r1, r3
 2901              	.LVL313:
 2902              		.loc 1 794 7 view .LVU1031
 2903 0048 42A8     		add	r0, sp, #264
 2904              	.LVL314:
 2905              		.loc 1 794 7 view .LVU1032
 2906 004a FFF7FEFF 		bl	hci_send_req
 2907              	.LVL315:
 2908              		.loc 1 794 6 discriminator 1 view .LVU1033
 2909 004e 0028     		cmp	r0, #0
 2910 0050 03DB     		blt	.L120
 795:Middlewares/ST/BlueNRG-2/hci/controller/bluenrg1_gatt_aci.c ****     return BLE_STATUS_TIMEOUT;
 796:Middlewares/ST/BlueNRG-2/hci/controller/bluenrg1_gatt_aci.c ****   if (status) {
 2911              		.loc 1 796 3 is_stmt 1 view .LVU1034
 2912              		.loc 1 796 7 is_stmt 0 view .LVU1035
 2913 0052 9DF80300 		ldrb	r0, [sp, #3]	@ zero_extendqisi2
 2914              	.L119:
 797:Middlewares/ST/BlueNRG-2/hci/controller/bluenrg1_gatt_aci.c ****     return status;
 798:Middlewares/ST/BlueNRG-2/hci/controller/bluenrg1_gatt_aci.c ****   }
 799:Middlewares/ST/BlueNRG-2/hci/controller/bluenrg1_gatt_aci.c ****   return BLE_STATUS_SUCCESS;
 800:Middlewares/ST/BlueNRG-2/hci/controller/bluenrg1_gatt_aci.c **** }
 2915              		.loc 1 800 1 view .LVU1036
 2916 0056 49B0     		add	sp, sp, #292
 2917              		.cfi_remember_state
 2918              		.cfi_def_cfa_offset 12
 2919              		@ sp needed
 2920 0058 30BD     		pop	{r4, r5, pc}
 2921              	.LVL316:
 2922              	.L120:
 2923              		.cfi_restore_state
 795:Middlewares/ST/BlueNRG-2/hci/controller/bluenrg1_gatt_aci.c ****     return BLE_STATUS_TIMEOUT;
 2924              		.loc 1 795 12 view .LVU1037
 2925 005a FF20     		movs	r0, #255
 2926 005c FBE7     		b	.L119
 2927              		.cfi_endproc
 2928              	.LFE157:
 2930              		.section	.text.aci_gatt_disc_char_by_uuid,"ax",%progbits
 2931              		.align	1
 2932              		.global	aci_gatt_disc_char_by_uuid
 2933              		.syntax unified
 2934              		.thumb
 2935              		.thumb_func
 2937              	aci_gatt_disc_char_by_uuid:
 2938              	.LVL317:
 2939              	.LFB158:
 801:Middlewares/ST/BlueNRG-2/hci/controller/bluenrg1_gatt_aci.c **** tBleStatus aci_gatt_disc_char_by_uuid(uint16_t Connection_Handle,
 802:Middlewares/ST/BlueNRG-2/hci/controller/bluenrg1_gatt_aci.c ****                                       uint16_t Start_Handle,
 803:Middlewares/ST/BlueNRG-2/hci/controller/bluenrg1_gatt_aci.c ****                                       uint16_t End_Handle,
 804:Middlewares/ST/BlueNRG-2/hci/controller/bluenrg1_gatt_aci.c ****                                       uint8_t UUID_Type,
 805:Middlewares/ST/BlueNRG-2/hci/controller/bluenrg1_gatt_aci.c ****                                       UUID_t *UUID)
 806:Middlewares/ST/BlueNRG-2/hci/controller/bluenrg1_gatt_aci.c **** {
 2940              		.loc 1 806 1 is_stmt 1 view -0
 2941              		.cfi_startproc
 2942              		@ args = 4, pretend = 0, frame = 288
ARM GAS  C:\Users\IAHERN~1\AppData\Local\Temp\ccP26j2c.s 			page 67


 2943              		@ frame_needed = 0, uses_anonymous_args = 0
 2944              		.loc 1 806 1 is_stmt 0 view .LVU1039
 2945 0000 10B5     		push	{r4, lr}
 2946              		.cfi_def_cfa_offset 8
 2947              		.cfi_offset 4, -8
 2948              		.cfi_offset 14, -4
 2949 0002 C8B0     		sub	sp, sp, #288
 2950              		.cfi_def_cfa_offset 296
 807:Middlewares/ST/BlueNRG-2/hci/controller/bluenrg1_gatt_aci.c ****   struct hci_request rq;
 2951              		.loc 1 807 3 is_stmt 1 view .LVU1040
 808:Middlewares/ST/BlueNRG-2/hci/controller/bluenrg1_gatt_aci.c ****   uint8_t cmd_buffer[258];
 2952              		.loc 1 808 3 view .LVU1041
 809:Middlewares/ST/BlueNRG-2/hci/controller/bluenrg1_gatt_aci.c ****   aci_gatt_disc_char_by_uuid_cp0 *cp0 = (aci_gatt_disc_char_by_uuid_cp0*)(cmd_buffer);
 2953              		.loc 1 809 3 view .LVU1042
 2954              	.LVL318:
 810:Middlewares/ST/BlueNRG-2/hci/controller/bluenrg1_gatt_aci.c ****   tBleStatus status = 0;
 2955              		.loc 1 810 3 view .LVU1043
 2956              		.loc 1 810 14 is_stmt 0 view .LVU1044
 2957 0004 0024     		movs	r4, #0
 2958 0006 8DF80340 		strb	r4, [sp, #3]
 811:Middlewares/ST/BlueNRG-2/hci/controller/bluenrg1_gatt_aci.c ****   uint8_t index_input = 0;
 2959              		.loc 1 811 3 is_stmt 1 view .LVU1045
 2960              	.LVL319:
 812:Middlewares/ST/BlueNRG-2/hci/controller/bluenrg1_gatt_aci.c ****   cp0->Connection_Handle = htob(Connection_Handle, 2);
 2961              		.loc 1 812 3 view .LVU1046
 2962              		.loc 1 812 26 is_stmt 0 view .LVU1047
 2963 000a ADF80400 		strh	r0, [sp, #4]	@ movhi
 813:Middlewares/ST/BlueNRG-2/hci/controller/bluenrg1_gatt_aci.c ****   index_input += 2;
 2964              		.loc 1 813 3 is_stmt 1 view .LVU1048
 2965              	.LVL320:
 814:Middlewares/ST/BlueNRG-2/hci/controller/bluenrg1_gatt_aci.c ****   cp0->Start_Handle = htob(Start_Handle, 2);
 2966              		.loc 1 814 3 view .LVU1049
 2967              		.loc 1 814 21 is_stmt 0 view .LVU1050
 2968 000e ADF80610 		strh	r1, [sp, #6]	@ movhi
 815:Middlewares/ST/BlueNRG-2/hci/controller/bluenrg1_gatt_aci.c ****   index_input += 2;
 2969              		.loc 1 815 3 is_stmt 1 view .LVU1051
 2970              	.LVL321:
 816:Middlewares/ST/BlueNRG-2/hci/controller/bluenrg1_gatt_aci.c ****   cp0->End_Handle = htob(End_Handle, 2);
 2971              		.loc 1 816 3 view .LVU1052
 2972              		.loc 1 816 19 is_stmt 0 view .LVU1053
 2973 0012 ADF80820 		strh	r2, [sp, #8]	@ movhi
 817:Middlewares/ST/BlueNRG-2/hci/controller/bluenrg1_gatt_aci.c ****   index_input += 2;
 2974              		.loc 1 817 3 is_stmt 1 view .LVU1054
 2975              	.LVL322:
 818:Middlewares/ST/BlueNRG-2/hci/controller/bluenrg1_gatt_aci.c ****   cp0->UUID_Type = htob(UUID_Type, 1);
 2976              		.loc 1 818 3 view .LVU1055
 2977              		.loc 1 818 18 is_stmt 0 view .LVU1056
 2978 0016 8DF80A30 		strb	r3, [sp, #10]
 819:Middlewares/ST/BlueNRG-2/hci/controller/bluenrg1_gatt_aci.c ****   index_input += 1;
 2979              		.loc 1 819 3 is_stmt 1 view .LVU1057
 2980              	.LVL323:
 2981              	.LBB19:
 820:Middlewares/ST/BlueNRG-2/hci/controller/bluenrg1_gatt_aci.c ****   /* var_len_data input */
 821:Middlewares/ST/BlueNRG-2/hci/controller/bluenrg1_gatt_aci.c ****   {
 822:Middlewares/ST/BlueNRG-2/hci/controller/bluenrg1_gatt_aci.c ****     uint8_t size;
 2982              		.loc 1 822 5 view .LVU1058
 823:Middlewares/ST/BlueNRG-2/hci/controller/bluenrg1_gatt_aci.c ****     switch (UUID_Type) {
ARM GAS  C:\Users\IAHERN~1\AppData\Local\Temp\ccP26j2c.s 			page 68


 2983              		.loc 1 823 5 view .LVU1059
 2984 001a 012B     		cmp	r3, #1
 2985 001c 03D0     		beq	.L125
 2986 001e 022B     		cmp	r3, #2
 2987 0020 2AD1     		bne	.L126
 824:Middlewares/ST/BlueNRG-2/hci/controller/bluenrg1_gatt_aci.c ****       case 1: size = 2; break;
 825:Middlewares/ST/BlueNRG-2/hci/controller/bluenrg1_gatt_aci.c ****       case 2: size = 16; break;
 2988              		.loc 1 825 20 is_stmt 0 view .LVU1060
 2989 0022 1024     		movs	r4, #16
 2990 0024 00E0     		b	.L123
 2991              	.L125:
 823:Middlewares/ST/BlueNRG-2/hci/controller/bluenrg1_gatt_aci.c ****     switch (UUID_Type) {
 2992              		.loc 1 823 5 view .LVU1061
 2993 0026 0224     		movs	r4, #2
 2994              	.L123:
 2995              	.LVL324:
 826:Middlewares/ST/BlueNRG-2/hci/controller/bluenrg1_gatt_aci.c ****       default: return BLE_STATUS_ERROR;
 827:Middlewares/ST/BlueNRG-2/hci/controller/bluenrg1_gatt_aci.c ****     }
 828:Middlewares/ST/BlueNRG-2/hci/controller/bluenrg1_gatt_aci.c ****     BLUENRG_memcpy((void *) &cp0->UUID, (const void *) UUID, size);
 2996              		.loc 1 828 5 is_stmt 1 view .LVU1062
 2997 0028 2246     		mov	r2, r4
 2998              	.LVL325:
 2999              		.loc 1 828 5 is_stmt 0 view .LVU1063
 3000 002a 4A99     		ldr	r1, [sp, #296]
 3001              	.LVL326:
 3002              		.loc 1 828 5 view .LVU1064
 3003 002c 0DF10B00 		add	r0, sp, #11
 3004              	.LVL327:
 3005              		.loc 1 828 5 view .LVU1065
 3006 0030 FFF7FEFF 		bl	memcpy
 3007              	.LVL328:
 829:Middlewares/ST/BlueNRG-2/hci/controller/bluenrg1_gatt_aci.c ****     index_input += size;
 3008              		.loc 1 829 5 is_stmt 1 view .LVU1066
 3009              		.loc 1 829 17 is_stmt 0 view .LVU1067
 3010 0034 0734     		adds	r4, r4, #7
 3011              	.LVL329:
 3012              		.loc 1 829 17 view .LVU1068
 3013              	.LBE19:
 830:Middlewares/ST/BlueNRG-2/hci/controller/bluenrg1_gatt_aci.c ****   }
 831:Middlewares/ST/BlueNRG-2/hci/controller/bluenrg1_gatt_aci.c ****   BLUENRG_memset(&rq, 0, sizeof(rq));
 3014              		.loc 1 831 3 is_stmt 1 view .LVU1069
 3015 0036 0021     		movs	r1, #0
 3016 0038 4291     		str	r1, [sp, #264]
 3017 003a 4391     		str	r1, [sp, #268]
 3018 003c 4491     		str	r1, [sp, #272]
 3019 003e 4591     		str	r1, [sp, #276]
 3020 0040 4691     		str	r1, [sp, #280]
 3021 0042 4791     		str	r1, [sp, #284]
 832:Middlewares/ST/BlueNRG-2/hci/controller/bluenrg1_gatt_aci.c ****   rq.ogf = 0x3f;
 3022              		.loc 1 832 3 view .LVU1070
 3023              		.loc 1 832 10 is_stmt 0 view .LVU1071
 3024 0044 3F23     		movs	r3, #63
 3025 0046 ADF80831 		strh	r3, [sp, #264]	@ movhi
 833:Middlewares/ST/BlueNRG-2/hci/controller/bluenrg1_gatt_aci.c ****   rq.ocf = 0x116;
 3026              		.loc 1 833 3 is_stmt 1 view .LVU1072
 3027              		.loc 1 833 10 is_stmt 0 view .LVU1073
 3028 004a 4FF48B73 		mov	r3, #278
ARM GAS  C:\Users\IAHERN~1\AppData\Local\Temp\ccP26j2c.s 			page 69


 3029 004e ADF80A31 		strh	r3, [sp, #266]	@ movhi
 834:Middlewares/ST/BlueNRG-2/hci/controller/bluenrg1_gatt_aci.c ****   rq.event = 0x0F;
 3030              		.loc 1 834 3 is_stmt 1 view .LVU1074
 3031              		.loc 1 834 12 is_stmt 0 view .LVU1075
 3032 0052 0F23     		movs	r3, #15
 3033 0054 4393     		str	r3, [sp, #268]
 835:Middlewares/ST/BlueNRG-2/hci/controller/bluenrg1_gatt_aci.c ****   rq.cparam = cmd_buffer;
 3034              		.loc 1 835 3 is_stmt 1 view .LVU1076
 3035              		.loc 1 835 13 is_stmt 0 view .LVU1077
 3036 0056 01AB     		add	r3, sp, #4
 3037              	.LVL330:
 3038              		.loc 1 835 13 view .LVU1078
 3039 0058 4493     		str	r3, [sp, #272]
 836:Middlewares/ST/BlueNRG-2/hci/controller/bluenrg1_gatt_aci.c ****   rq.clen = index_input;
 3040              		.loc 1 836 3 is_stmt 1 view .LVU1079
 3041              		.loc 1 836 11 is_stmt 0 view .LVU1080
 3042 005a 4594     		str	r4, [sp, #276]
 837:Middlewares/ST/BlueNRG-2/hci/controller/bluenrg1_gatt_aci.c ****   rq.rparam = &status;
 3043              		.loc 1 837 3 is_stmt 1 view .LVU1081
 3044              		.loc 1 837 13 is_stmt 0 view .LVU1082
 3045 005c 0DF10303 		add	r3, sp, #3
 3046              	.LVL331:
 3047              		.loc 1 837 13 view .LVU1083
 3048 0060 4693     		str	r3, [sp, #280]
 838:Middlewares/ST/BlueNRG-2/hci/controller/bluenrg1_gatt_aci.c ****   rq.rlen = 1;
 3049              		.loc 1 838 3 is_stmt 1 view .LVU1084
 3050              		.loc 1 838 11 is_stmt 0 view .LVU1085
 3051 0062 0123     		movs	r3, #1
 3052 0064 4793     		str	r3, [sp, #284]
 839:Middlewares/ST/BlueNRG-2/hci/controller/bluenrg1_gatt_aci.c ****   if (hci_send_req(&rq, FALSE) < 0)
 3053              		.loc 1 839 3 is_stmt 1 view .LVU1086
 3054              		.loc 1 839 7 is_stmt 0 view .LVU1087
 3055 0066 42A8     		add	r0, sp, #264
 3056 0068 FFF7FEFF 		bl	hci_send_req
 3057              	.LVL332:
 3058              		.loc 1 839 6 discriminator 1 view .LVU1088
 3059 006c 0028     		cmp	r0, #0
 3060 006e 05DB     		blt	.L127
 840:Middlewares/ST/BlueNRG-2/hci/controller/bluenrg1_gatt_aci.c ****     return BLE_STATUS_TIMEOUT;
 841:Middlewares/ST/BlueNRG-2/hci/controller/bluenrg1_gatt_aci.c ****   if (status) {
 3061              		.loc 1 841 3 is_stmt 1 view .LVU1089
 3062              		.loc 1 841 7 is_stmt 0 view .LVU1090
 3063 0070 9DF80300 		ldrb	r0, [sp, #3]	@ zero_extendqisi2
 3064              	.LVL333:
 3065              	.L124:
 842:Middlewares/ST/BlueNRG-2/hci/controller/bluenrg1_gatt_aci.c ****     return status;
 843:Middlewares/ST/BlueNRG-2/hci/controller/bluenrg1_gatt_aci.c ****   }
 844:Middlewares/ST/BlueNRG-2/hci/controller/bluenrg1_gatt_aci.c ****   return BLE_STATUS_SUCCESS;
 845:Middlewares/ST/BlueNRG-2/hci/controller/bluenrg1_gatt_aci.c **** }
 3066              		.loc 1 845 1 view .LVU1091
 3067 0074 48B0     		add	sp, sp, #288
 3068              		.cfi_remember_state
 3069              		.cfi_def_cfa_offset 8
 3070              		@ sp needed
 3071 0076 10BD     		pop	{r4, pc}
 3072              	.LVL334:
 3073              	.L126:
ARM GAS  C:\Users\IAHERN~1\AppData\Local\Temp\ccP26j2c.s 			page 70


 3074              		.cfi_restore_state
 3075              	.LBB20:
 823:Middlewares/ST/BlueNRG-2/hci/controller/bluenrg1_gatt_aci.c ****       case 1: size = 2; break;
 3076              		.loc 1 823 5 view .LVU1092
 3077 0078 4720     		movs	r0, #71
 3078              	.LVL335:
 823:Middlewares/ST/BlueNRG-2/hci/controller/bluenrg1_gatt_aci.c ****       case 1: size = 2; break;
 3079              		.loc 1 823 5 view .LVU1093
 3080 007a FBE7     		b	.L124
 3081              	.LVL336:
 3082              	.L127:
 823:Middlewares/ST/BlueNRG-2/hci/controller/bluenrg1_gatt_aci.c ****       case 1: size = 2; break;
 3083              		.loc 1 823 5 view .LVU1094
 3084              	.LBE20:
 840:Middlewares/ST/BlueNRG-2/hci/controller/bluenrg1_gatt_aci.c ****     return BLE_STATUS_TIMEOUT;
 3085              		.loc 1 840 12 view .LVU1095
 3086 007c FF20     		movs	r0, #255
 3087 007e F9E7     		b	.L124
 3088              		.cfi_endproc
 3089              	.LFE158:
 3091              		.section	.text.aci_gatt_disc_all_char_desc,"ax",%progbits
 3092              		.align	1
 3093              		.global	aci_gatt_disc_all_char_desc
 3094              		.syntax unified
 3095              		.thumb
 3096              		.thumb_func
 3098              	aci_gatt_disc_all_char_desc:
 3099              	.LVL337:
 3100              	.LFB159:
 846:Middlewares/ST/BlueNRG-2/hci/controller/bluenrg1_gatt_aci.c **** tBleStatus aci_gatt_disc_all_char_desc(uint16_t Connection_Handle,
 847:Middlewares/ST/BlueNRG-2/hci/controller/bluenrg1_gatt_aci.c ****                                        uint16_t Char_Handle,
 848:Middlewares/ST/BlueNRG-2/hci/controller/bluenrg1_gatt_aci.c ****                                        uint16_t End_Handle)
 849:Middlewares/ST/BlueNRG-2/hci/controller/bluenrg1_gatt_aci.c **** {
 3101              		.loc 1 849 1 is_stmt 1 view -0
 3102              		.cfi_startproc
 3103              		@ args = 0, pretend = 0, frame = 288
 3104              		@ frame_needed = 0, uses_anonymous_args = 0
 3105              		.loc 1 849 1 is_stmt 0 view .LVU1097
 3106 0000 30B5     		push	{r4, r5, lr}
 3107              		.cfi_def_cfa_offset 12
 3108              		.cfi_offset 4, -12
 3109              		.cfi_offset 5, -8
 3110              		.cfi_offset 14, -4
 3111 0002 C9B0     		sub	sp, sp, #292
 3112              		.cfi_def_cfa_offset 304
 850:Middlewares/ST/BlueNRG-2/hci/controller/bluenrg1_gatt_aci.c ****   struct hci_request rq;
 3113              		.loc 1 850 3 is_stmt 1 view .LVU1098
 851:Middlewares/ST/BlueNRG-2/hci/controller/bluenrg1_gatt_aci.c ****   uint8_t cmd_buffer[258];
 3114              		.loc 1 851 3 view .LVU1099
 852:Middlewares/ST/BlueNRG-2/hci/controller/bluenrg1_gatt_aci.c ****   aci_gatt_disc_all_char_desc_cp0 *cp0 = (aci_gatt_disc_all_char_desc_cp0*)(cmd_buffer);
 3115              		.loc 1 852 3 view .LVU1100
 3116              	.LVL338:
 853:Middlewares/ST/BlueNRG-2/hci/controller/bluenrg1_gatt_aci.c ****   tBleStatus status = 0;
 3117              		.loc 1 853 3 view .LVU1101
 3118              		.loc 1 853 14 is_stmt 0 view .LVU1102
 3119 0004 0DF10305 		add	r5, sp, #3
 3120 0008 0023     		movs	r3, #0
ARM GAS  C:\Users\IAHERN~1\AppData\Local\Temp\ccP26j2c.s 			page 71


 3121 000a 8DF80330 		strb	r3, [sp, #3]
 854:Middlewares/ST/BlueNRG-2/hci/controller/bluenrg1_gatt_aci.c ****   uint8_t index_input = 0;
 3122              		.loc 1 854 3 is_stmt 1 view .LVU1103
 3123              	.LVL339:
 855:Middlewares/ST/BlueNRG-2/hci/controller/bluenrg1_gatt_aci.c ****   cp0->Connection_Handle = htob(Connection_Handle, 2);
 3124              		.loc 1 855 3 view .LVU1104
 3125              		.loc 1 855 26 is_stmt 0 view .LVU1105
 3126 000e 01AC     		add	r4, sp, #4
 3127              	.LVL340:
 3128              		.loc 1 855 26 view .LVU1106
 3129 0010 ADF80400 		strh	r0, [sp, #4]	@ movhi
 856:Middlewares/ST/BlueNRG-2/hci/controller/bluenrg1_gatt_aci.c ****   index_input += 2;
 3130              		.loc 1 856 3 is_stmt 1 view .LVU1107
 3131              	.LVL341:
 857:Middlewares/ST/BlueNRG-2/hci/controller/bluenrg1_gatt_aci.c ****   cp0->Char_Handle = htob(Char_Handle, 2);
 3132              		.loc 1 857 3 view .LVU1108
 3133              		.loc 1 857 20 is_stmt 0 view .LVU1109
 3134 0014 ADF80610 		strh	r1, [sp, #6]	@ movhi
 858:Middlewares/ST/BlueNRG-2/hci/controller/bluenrg1_gatt_aci.c ****   index_input += 2;
 3135              		.loc 1 858 3 is_stmt 1 view .LVU1110
 3136              	.LVL342:
 859:Middlewares/ST/BlueNRG-2/hci/controller/bluenrg1_gatt_aci.c ****   cp0->End_Handle = htob(End_Handle, 2);
 3137              		.loc 1 859 3 view .LVU1111
 3138              		.loc 1 859 19 is_stmt 0 view .LVU1112
 3139 0018 ADF80820 		strh	r2, [sp, #8]	@ movhi
 860:Middlewares/ST/BlueNRG-2/hci/controller/bluenrg1_gatt_aci.c ****   index_input += 2;
 3140              		.loc 1 860 3 is_stmt 1 view .LVU1113
 3141              	.LVL343:
 861:Middlewares/ST/BlueNRG-2/hci/controller/bluenrg1_gatt_aci.c ****   BLUENRG_memset(&rq, 0, sizeof(rq));
 3142              		.loc 1 861 3 view .LVU1114
 3143 001c 4293     		str	r3, [sp, #264]
 3144 001e 4393     		str	r3, [sp, #268]
 3145 0020 4493     		str	r3, [sp, #272]
 3146 0022 4593     		str	r3, [sp, #276]
 3147 0024 4693     		str	r3, [sp, #280]
 3148 0026 4793     		str	r3, [sp, #284]
 862:Middlewares/ST/BlueNRG-2/hci/controller/bluenrg1_gatt_aci.c ****   rq.ogf = 0x3f;
 3149              		.loc 1 862 3 view .LVU1115
 3150              		.loc 1 862 10 is_stmt 0 view .LVU1116
 3151 0028 3F22     		movs	r2, #63
 3152              	.LVL344:
 3153              		.loc 1 862 10 view .LVU1117
 3154 002a ADF80821 		strh	r2, [sp, #264]	@ movhi
 863:Middlewares/ST/BlueNRG-2/hci/controller/bluenrg1_gatt_aci.c ****   rq.ocf = 0x117;
 3155              		.loc 1 863 3 is_stmt 1 view .LVU1118
 3156              		.loc 1 863 10 is_stmt 0 view .LVU1119
 3157 002e 40F21712 		movw	r2, #279
 3158 0032 ADF80A21 		strh	r2, [sp, #266]	@ movhi
 864:Middlewares/ST/BlueNRG-2/hci/controller/bluenrg1_gatt_aci.c ****   rq.event = 0x0F;
 3159              		.loc 1 864 3 is_stmt 1 view .LVU1120
 3160              		.loc 1 864 12 is_stmt 0 view .LVU1121
 3161 0036 0F22     		movs	r2, #15
 3162 0038 4392     		str	r2, [sp, #268]
 865:Middlewares/ST/BlueNRG-2/hci/controller/bluenrg1_gatt_aci.c ****   rq.cparam = cmd_buffer;
 3163              		.loc 1 865 3 is_stmt 1 view .LVU1122
 3164              		.loc 1 865 13 is_stmt 0 view .LVU1123
 3165 003a 4494     		str	r4, [sp, #272]
ARM GAS  C:\Users\IAHERN~1\AppData\Local\Temp\ccP26j2c.s 			page 72


 866:Middlewares/ST/BlueNRG-2/hci/controller/bluenrg1_gatt_aci.c ****   rq.clen = index_input;
 3166              		.loc 1 866 3 is_stmt 1 view .LVU1124
 3167              		.loc 1 866 11 is_stmt 0 view .LVU1125
 3168 003c 0622     		movs	r2, #6
 3169 003e 4592     		str	r2, [sp, #276]
 867:Middlewares/ST/BlueNRG-2/hci/controller/bluenrg1_gatt_aci.c ****   rq.rparam = &status;
 3170              		.loc 1 867 3 is_stmt 1 view .LVU1126
 3171              		.loc 1 867 13 is_stmt 0 view .LVU1127
 3172 0040 4695     		str	r5, [sp, #280]
 868:Middlewares/ST/BlueNRG-2/hci/controller/bluenrg1_gatt_aci.c ****   rq.rlen = 1;
 3173              		.loc 1 868 3 is_stmt 1 view .LVU1128
 3174              		.loc 1 868 11 is_stmt 0 view .LVU1129
 3175 0042 0122     		movs	r2, #1
 3176 0044 4792     		str	r2, [sp, #284]
 869:Middlewares/ST/BlueNRG-2/hci/controller/bluenrg1_gatt_aci.c ****   if (hci_send_req(&rq, FALSE) < 0)
 3177              		.loc 1 869 3 is_stmt 1 view .LVU1130
 3178              		.loc 1 869 7 is_stmt 0 view .LVU1131
 3179 0046 1946     		mov	r1, r3
 3180              	.LVL345:
 3181              		.loc 1 869 7 view .LVU1132
 3182 0048 42A8     		add	r0, sp, #264
 3183              	.LVL346:
 3184              		.loc 1 869 7 view .LVU1133
 3185 004a FFF7FEFF 		bl	hci_send_req
 3186              	.LVL347:
 3187              		.loc 1 869 6 discriminator 1 view .LVU1134
 3188 004e 0028     		cmp	r0, #0
 3189 0050 03DB     		blt	.L131
 870:Middlewares/ST/BlueNRG-2/hci/controller/bluenrg1_gatt_aci.c ****     return BLE_STATUS_TIMEOUT;
 871:Middlewares/ST/BlueNRG-2/hci/controller/bluenrg1_gatt_aci.c ****   if (status) {
 3190              		.loc 1 871 3 is_stmt 1 view .LVU1135
 3191              		.loc 1 871 7 is_stmt 0 view .LVU1136
 3192 0052 9DF80300 		ldrb	r0, [sp, #3]	@ zero_extendqisi2
 3193              	.L130:
 872:Middlewares/ST/BlueNRG-2/hci/controller/bluenrg1_gatt_aci.c ****     return status;
 873:Middlewares/ST/BlueNRG-2/hci/controller/bluenrg1_gatt_aci.c ****   }
 874:Middlewares/ST/BlueNRG-2/hci/controller/bluenrg1_gatt_aci.c ****   return BLE_STATUS_SUCCESS;
 875:Middlewares/ST/BlueNRG-2/hci/controller/bluenrg1_gatt_aci.c **** }
 3194              		.loc 1 875 1 view .LVU1137
 3195 0056 49B0     		add	sp, sp, #292
 3196              		.cfi_remember_state
 3197              		.cfi_def_cfa_offset 12
 3198              		@ sp needed
 3199 0058 30BD     		pop	{r4, r5, pc}
 3200              	.LVL348:
 3201              	.L131:
 3202              		.cfi_restore_state
 870:Middlewares/ST/BlueNRG-2/hci/controller/bluenrg1_gatt_aci.c ****     return BLE_STATUS_TIMEOUT;
 3203              		.loc 1 870 12 view .LVU1138
 3204 005a FF20     		movs	r0, #255
 3205 005c FBE7     		b	.L130
 3206              		.cfi_endproc
 3207              	.LFE159:
 3209              		.section	.text.aci_gatt_read_char_value,"ax",%progbits
 3210              		.align	1
 3211              		.global	aci_gatt_read_char_value
 3212              		.syntax unified
ARM GAS  C:\Users\IAHERN~1\AppData\Local\Temp\ccP26j2c.s 			page 73


 3213              		.thumb
 3214              		.thumb_func
 3216              	aci_gatt_read_char_value:
 3217              	.LVL349:
 3218              	.LFB160:
 876:Middlewares/ST/BlueNRG-2/hci/controller/bluenrg1_gatt_aci.c **** tBleStatus aci_gatt_read_char_value(uint16_t Connection_Handle,
 877:Middlewares/ST/BlueNRG-2/hci/controller/bluenrg1_gatt_aci.c ****                                     uint16_t Attr_Handle)
 878:Middlewares/ST/BlueNRG-2/hci/controller/bluenrg1_gatt_aci.c **** {
 3219              		.loc 1 878 1 is_stmt 1 view -0
 3220              		.cfi_startproc
 3221              		@ args = 0, pretend = 0, frame = 288
 3222              		@ frame_needed = 0, uses_anonymous_args = 0
 3223              		.loc 1 878 1 is_stmt 0 view .LVU1140
 3224 0000 10B5     		push	{r4, lr}
 3225              		.cfi_def_cfa_offset 8
 3226              		.cfi_offset 4, -8
 3227              		.cfi_offset 14, -4
 3228 0002 C8B0     		sub	sp, sp, #288
 3229              		.cfi_def_cfa_offset 296
 879:Middlewares/ST/BlueNRG-2/hci/controller/bluenrg1_gatt_aci.c ****   struct hci_request rq;
 3230              		.loc 1 879 3 is_stmt 1 view .LVU1141
 880:Middlewares/ST/BlueNRG-2/hci/controller/bluenrg1_gatt_aci.c ****   uint8_t cmd_buffer[258];
 3231              		.loc 1 880 3 view .LVU1142
 881:Middlewares/ST/BlueNRG-2/hci/controller/bluenrg1_gatt_aci.c ****   aci_gatt_read_char_value_cp0 *cp0 = (aci_gatt_read_char_value_cp0*)(cmd_buffer);
 3232              		.loc 1 881 3 view .LVU1143
 3233              	.LVL350:
 882:Middlewares/ST/BlueNRG-2/hci/controller/bluenrg1_gatt_aci.c ****   tBleStatus status = 0;
 3234              		.loc 1 882 3 view .LVU1144
 3235              		.loc 1 882 14 is_stmt 0 view .LVU1145
 3236 0004 0DF10304 		add	r4, sp, #3
 3237 0008 0023     		movs	r3, #0
 3238 000a 8DF80330 		strb	r3, [sp, #3]
 883:Middlewares/ST/BlueNRG-2/hci/controller/bluenrg1_gatt_aci.c ****   uint8_t index_input = 0;
 3239              		.loc 1 883 3 is_stmt 1 view .LVU1146
 3240              	.LVL351:
 884:Middlewares/ST/BlueNRG-2/hci/controller/bluenrg1_gatt_aci.c ****   cp0->Connection_Handle = htob(Connection_Handle, 2);
 3241              		.loc 1 884 3 view .LVU1147
 3242              		.loc 1 884 26 is_stmt 0 view .LVU1148
 3243 000e 01AA     		add	r2, sp, #4
 3244              	.LVL352:
 3245              		.loc 1 884 26 view .LVU1149
 3246 0010 ADF80400 		strh	r0, [sp, #4]	@ movhi
 885:Middlewares/ST/BlueNRG-2/hci/controller/bluenrg1_gatt_aci.c ****   index_input += 2;
 3247              		.loc 1 885 3 is_stmt 1 view .LVU1150
 3248              	.LVL353:
 886:Middlewares/ST/BlueNRG-2/hci/controller/bluenrg1_gatt_aci.c ****   cp0->Attr_Handle = htob(Attr_Handle, 2);
 3249              		.loc 1 886 3 view .LVU1151
 3250              		.loc 1 886 20 is_stmt 0 view .LVU1152
 3251 0014 ADF80610 		strh	r1, [sp, #6]	@ movhi
 887:Middlewares/ST/BlueNRG-2/hci/controller/bluenrg1_gatt_aci.c ****   index_input += 2;
 3252              		.loc 1 887 3 is_stmt 1 view .LVU1153
 3253              	.LVL354:
 888:Middlewares/ST/BlueNRG-2/hci/controller/bluenrg1_gatt_aci.c ****   BLUENRG_memset(&rq, 0, sizeof(rq));
 3254              		.loc 1 888 3 view .LVU1154
 3255 0018 4293     		str	r3, [sp, #264]
 3256 001a 4393     		str	r3, [sp, #268]
 3257 001c 4493     		str	r3, [sp, #272]
ARM GAS  C:\Users\IAHERN~1\AppData\Local\Temp\ccP26j2c.s 			page 74


 3258 001e 4593     		str	r3, [sp, #276]
 3259 0020 4693     		str	r3, [sp, #280]
 3260 0022 4793     		str	r3, [sp, #284]
 889:Middlewares/ST/BlueNRG-2/hci/controller/bluenrg1_gatt_aci.c ****   rq.ogf = 0x3f;
 3261              		.loc 1 889 3 view .LVU1155
 3262              		.loc 1 889 10 is_stmt 0 view .LVU1156
 3263 0024 3F21     		movs	r1, #63
 3264              	.LVL355:
 3265              		.loc 1 889 10 view .LVU1157
 3266 0026 ADF80811 		strh	r1, [sp, #264]	@ movhi
 890:Middlewares/ST/BlueNRG-2/hci/controller/bluenrg1_gatt_aci.c ****   rq.ocf = 0x118;
 3267              		.loc 1 890 3 is_stmt 1 view .LVU1158
 3268              		.loc 1 890 10 is_stmt 0 view .LVU1159
 3269 002a 4FF48C71 		mov	r1, #280
 3270 002e ADF80A11 		strh	r1, [sp, #266]	@ movhi
 891:Middlewares/ST/BlueNRG-2/hci/controller/bluenrg1_gatt_aci.c ****   rq.event = 0x0F;
 3271              		.loc 1 891 3 is_stmt 1 view .LVU1160
 3272              		.loc 1 891 12 is_stmt 0 view .LVU1161
 3273 0032 0F21     		movs	r1, #15
 3274 0034 4391     		str	r1, [sp, #268]
 892:Middlewares/ST/BlueNRG-2/hci/controller/bluenrg1_gatt_aci.c ****   rq.cparam = cmd_buffer;
 3275              		.loc 1 892 3 is_stmt 1 view .LVU1162
 3276              		.loc 1 892 13 is_stmt 0 view .LVU1163
 3277 0036 4492     		str	r2, [sp, #272]
 893:Middlewares/ST/BlueNRG-2/hci/controller/bluenrg1_gatt_aci.c ****   rq.clen = index_input;
 3278              		.loc 1 893 3 is_stmt 1 view .LVU1164
 3279              		.loc 1 893 11 is_stmt 0 view .LVU1165
 3280 0038 0422     		movs	r2, #4
 3281              	.LVL356:
 3282              		.loc 1 893 11 view .LVU1166
 3283 003a 4592     		str	r2, [sp, #276]
 894:Middlewares/ST/BlueNRG-2/hci/controller/bluenrg1_gatt_aci.c ****   rq.rparam = &status;
 3284              		.loc 1 894 3 is_stmt 1 view .LVU1167
 3285              		.loc 1 894 13 is_stmt 0 view .LVU1168
 3286 003c 4694     		str	r4, [sp, #280]
 895:Middlewares/ST/BlueNRG-2/hci/controller/bluenrg1_gatt_aci.c ****   rq.rlen = 1;
 3287              		.loc 1 895 3 is_stmt 1 view .LVU1169
 3288              		.loc 1 895 11 is_stmt 0 view .LVU1170
 3289 003e 0122     		movs	r2, #1
 3290 0040 4792     		str	r2, [sp, #284]
 896:Middlewares/ST/BlueNRG-2/hci/controller/bluenrg1_gatt_aci.c ****   if (hci_send_req(&rq, FALSE) < 0)
 3291              		.loc 1 896 3 is_stmt 1 view .LVU1171
 3292              		.loc 1 896 7 is_stmt 0 view .LVU1172
 3293 0042 1946     		mov	r1, r3
 3294 0044 42A8     		add	r0, sp, #264
 3295              	.LVL357:
 3296              		.loc 1 896 7 view .LVU1173
 3297 0046 FFF7FEFF 		bl	hci_send_req
 3298              	.LVL358:
 3299              		.loc 1 896 6 discriminator 1 view .LVU1174
 3300 004a 0028     		cmp	r0, #0
 3301 004c 03DB     		blt	.L135
 897:Middlewares/ST/BlueNRG-2/hci/controller/bluenrg1_gatt_aci.c ****     return BLE_STATUS_TIMEOUT;
 898:Middlewares/ST/BlueNRG-2/hci/controller/bluenrg1_gatt_aci.c ****   if (status) {
 3302              		.loc 1 898 3 is_stmt 1 view .LVU1175
 3303              		.loc 1 898 7 is_stmt 0 view .LVU1176
 3304 004e 9DF80300 		ldrb	r0, [sp, #3]	@ zero_extendqisi2
ARM GAS  C:\Users\IAHERN~1\AppData\Local\Temp\ccP26j2c.s 			page 75


 3305              	.L134:
 899:Middlewares/ST/BlueNRG-2/hci/controller/bluenrg1_gatt_aci.c ****     return status;
 900:Middlewares/ST/BlueNRG-2/hci/controller/bluenrg1_gatt_aci.c ****   }
 901:Middlewares/ST/BlueNRG-2/hci/controller/bluenrg1_gatt_aci.c ****   return BLE_STATUS_SUCCESS;
 902:Middlewares/ST/BlueNRG-2/hci/controller/bluenrg1_gatt_aci.c **** }
 3306              		.loc 1 902 1 view .LVU1177
 3307 0052 48B0     		add	sp, sp, #288
 3308              		.cfi_remember_state
 3309              		.cfi_def_cfa_offset 8
 3310              		@ sp needed
 3311 0054 10BD     		pop	{r4, pc}
 3312              	.LVL359:
 3313              	.L135:
 3314              		.cfi_restore_state
 897:Middlewares/ST/BlueNRG-2/hci/controller/bluenrg1_gatt_aci.c ****     return BLE_STATUS_TIMEOUT;
 3315              		.loc 1 897 12 view .LVU1178
 3316 0056 FF20     		movs	r0, #255
 3317 0058 FBE7     		b	.L134
 3318              		.cfi_endproc
 3319              	.LFE160:
 3321              		.section	.text.aci_gatt_read_using_char_uuid,"ax",%progbits
 3322              		.align	1
 3323              		.global	aci_gatt_read_using_char_uuid
 3324              		.syntax unified
 3325              		.thumb
 3326              		.thumb_func
 3328              	aci_gatt_read_using_char_uuid:
 3329              	.LVL360:
 3330              	.LFB161:
 903:Middlewares/ST/BlueNRG-2/hci/controller/bluenrg1_gatt_aci.c **** tBleStatus aci_gatt_read_using_char_uuid(uint16_t Connection_Handle,
 904:Middlewares/ST/BlueNRG-2/hci/controller/bluenrg1_gatt_aci.c ****                                          uint16_t Start_Handle,
 905:Middlewares/ST/BlueNRG-2/hci/controller/bluenrg1_gatt_aci.c ****                                          uint16_t End_Handle,
 906:Middlewares/ST/BlueNRG-2/hci/controller/bluenrg1_gatt_aci.c ****                                          uint8_t UUID_Type,
 907:Middlewares/ST/BlueNRG-2/hci/controller/bluenrg1_gatt_aci.c ****                                          UUID_t *UUID)
 908:Middlewares/ST/BlueNRG-2/hci/controller/bluenrg1_gatt_aci.c **** {
 3331              		.loc 1 908 1 is_stmt 1 view -0
 3332              		.cfi_startproc
 3333              		@ args = 4, pretend = 0, frame = 288
 3334              		@ frame_needed = 0, uses_anonymous_args = 0
 3335              		.loc 1 908 1 is_stmt 0 view .LVU1180
 3336 0000 10B5     		push	{r4, lr}
 3337              		.cfi_def_cfa_offset 8
 3338              		.cfi_offset 4, -8
 3339              		.cfi_offset 14, -4
 3340 0002 C8B0     		sub	sp, sp, #288
 3341              		.cfi_def_cfa_offset 296
 909:Middlewares/ST/BlueNRG-2/hci/controller/bluenrg1_gatt_aci.c ****   struct hci_request rq;
 3342              		.loc 1 909 3 is_stmt 1 view .LVU1181
 910:Middlewares/ST/BlueNRG-2/hci/controller/bluenrg1_gatt_aci.c ****   uint8_t cmd_buffer[258];
 3343              		.loc 1 910 3 view .LVU1182
 911:Middlewares/ST/BlueNRG-2/hci/controller/bluenrg1_gatt_aci.c ****   aci_gatt_read_using_char_uuid_cp0 *cp0 = (aci_gatt_read_using_char_uuid_cp0*)(cmd_buffer);
 3344              		.loc 1 911 3 view .LVU1183
 3345              	.LVL361:
 912:Middlewares/ST/BlueNRG-2/hci/controller/bluenrg1_gatt_aci.c ****   tBleStatus status = 0;
 3346              		.loc 1 912 3 view .LVU1184
 3347              		.loc 1 912 14 is_stmt 0 view .LVU1185
 3348 0004 0024     		movs	r4, #0
ARM GAS  C:\Users\IAHERN~1\AppData\Local\Temp\ccP26j2c.s 			page 76


 3349 0006 8DF80340 		strb	r4, [sp, #3]
 913:Middlewares/ST/BlueNRG-2/hci/controller/bluenrg1_gatt_aci.c ****   uint8_t index_input = 0;
 3350              		.loc 1 913 3 is_stmt 1 view .LVU1186
 3351              	.LVL362:
 914:Middlewares/ST/BlueNRG-2/hci/controller/bluenrg1_gatt_aci.c ****   cp0->Connection_Handle = htob(Connection_Handle, 2);
 3352              		.loc 1 914 3 view .LVU1187
 3353              		.loc 1 914 26 is_stmt 0 view .LVU1188
 3354 000a ADF80400 		strh	r0, [sp, #4]	@ movhi
 915:Middlewares/ST/BlueNRG-2/hci/controller/bluenrg1_gatt_aci.c ****   index_input += 2;
 3355              		.loc 1 915 3 is_stmt 1 view .LVU1189
 3356              	.LVL363:
 916:Middlewares/ST/BlueNRG-2/hci/controller/bluenrg1_gatt_aci.c ****   cp0->Start_Handle = htob(Start_Handle, 2);
 3357              		.loc 1 916 3 view .LVU1190
 3358              		.loc 1 916 21 is_stmt 0 view .LVU1191
 3359 000e ADF80610 		strh	r1, [sp, #6]	@ movhi
 917:Middlewares/ST/BlueNRG-2/hci/controller/bluenrg1_gatt_aci.c ****   index_input += 2;
 3360              		.loc 1 917 3 is_stmt 1 view .LVU1192
 3361              	.LVL364:
 918:Middlewares/ST/BlueNRG-2/hci/controller/bluenrg1_gatt_aci.c ****   cp0->End_Handle = htob(End_Handle, 2);
 3362              		.loc 1 918 3 view .LVU1193
 3363              		.loc 1 918 19 is_stmt 0 view .LVU1194
 3364 0012 ADF80820 		strh	r2, [sp, #8]	@ movhi
 919:Middlewares/ST/BlueNRG-2/hci/controller/bluenrg1_gatt_aci.c ****   index_input += 2;
 3365              		.loc 1 919 3 is_stmt 1 view .LVU1195
 3366              	.LVL365:
 920:Middlewares/ST/BlueNRG-2/hci/controller/bluenrg1_gatt_aci.c ****   cp0->UUID_Type = htob(UUID_Type, 1);
 3367              		.loc 1 920 3 view .LVU1196
 3368              		.loc 1 920 18 is_stmt 0 view .LVU1197
 3369 0016 8DF80A30 		strb	r3, [sp, #10]
 921:Middlewares/ST/BlueNRG-2/hci/controller/bluenrg1_gatt_aci.c ****   index_input += 1;
 3370              		.loc 1 921 3 is_stmt 1 view .LVU1198
 3371              	.LVL366:
 3372              	.LBB21:
 922:Middlewares/ST/BlueNRG-2/hci/controller/bluenrg1_gatt_aci.c ****   /* var_len_data input */
 923:Middlewares/ST/BlueNRG-2/hci/controller/bluenrg1_gatt_aci.c ****   {
 924:Middlewares/ST/BlueNRG-2/hci/controller/bluenrg1_gatt_aci.c ****     uint8_t size;
 3373              		.loc 1 924 5 view .LVU1199
 925:Middlewares/ST/BlueNRG-2/hci/controller/bluenrg1_gatt_aci.c ****     switch (UUID_Type) {
 3374              		.loc 1 925 5 view .LVU1200
 3375 001a 012B     		cmp	r3, #1
 3376 001c 03D0     		beq	.L140
 3377 001e 022B     		cmp	r3, #2
 3378 0020 2AD1     		bne	.L141
 926:Middlewares/ST/BlueNRG-2/hci/controller/bluenrg1_gatt_aci.c ****       case 1: size = 2; break;
 927:Middlewares/ST/BlueNRG-2/hci/controller/bluenrg1_gatt_aci.c ****       case 2: size = 16; break;
 3379              		.loc 1 927 20 is_stmt 0 view .LVU1201
 3380 0022 1024     		movs	r4, #16
 3381 0024 00E0     		b	.L138
 3382              	.L140:
 925:Middlewares/ST/BlueNRG-2/hci/controller/bluenrg1_gatt_aci.c ****     switch (UUID_Type) {
 3383              		.loc 1 925 5 view .LVU1202
 3384 0026 0224     		movs	r4, #2
 3385              	.L138:
 3386              	.LVL367:
 928:Middlewares/ST/BlueNRG-2/hci/controller/bluenrg1_gatt_aci.c ****       default: return BLE_STATUS_ERROR;
 929:Middlewares/ST/BlueNRG-2/hci/controller/bluenrg1_gatt_aci.c ****     }
 930:Middlewares/ST/BlueNRG-2/hci/controller/bluenrg1_gatt_aci.c ****     BLUENRG_memcpy((void *) &cp0->UUID, (const void *) UUID, size);
ARM GAS  C:\Users\IAHERN~1\AppData\Local\Temp\ccP26j2c.s 			page 77


 3387              		.loc 1 930 5 is_stmt 1 view .LVU1203
 3388 0028 2246     		mov	r2, r4
 3389              	.LVL368:
 3390              		.loc 1 930 5 is_stmt 0 view .LVU1204
 3391 002a 4A99     		ldr	r1, [sp, #296]
 3392              	.LVL369:
 3393              		.loc 1 930 5 view .LVU1205
 3394 002c 0DF10B00 		add	r0, sp, #11
 3395              	.LVL370:
 3396              		.loc 1 930 5 view .LVU1206
 3397 0030 FFF7FEFF 		bl	memcpy
 3398              	.LVL371:
 931:Middlewares/ST/BlueNRG-2/hci/controller/bluenrg1_gatt_aci.c ****     index_input += size;
 3399              		.loc 1 931 5 is_stmt 1 view .LVU1207
 3400              		.loc 1 931 17 is_stmt 0 view .LVU1208
 3401 0034 0734     		adds	r4, r4, #7
 3402              	.LVL372:
 3403              		.loc 1 931 17 view .LVU1209
 3404              	.LBE21:
 932:Middlewares/ST/BlueNRG-2/hci/controller/bluenrg1_gatt_aci.c ****   }
 933:Middlewares/ST/BlueNRG-2/hci/controller/bluenrg1_gatt_aci.c ****   BLUENRG_memset(&rq, 0, sizeof(rq));
 3405              		.loc 1 933 3 is_stmt 1 view .LVU1210
 3406 0036 0021     		movs	r1, #0
 3407 0038 4291     		str	r1, [sp, #264]
 3408 003a 4391     		str	r1, [sp, #268]
 3409 003c 4491     		str	r1, [sp, #272]
 3410 003e 4591     		str	r1, [sp, #276]
 3411 0040 4691     		str	r1, [sp, #280]
 3412 0042 4791     		str	r1, [sp, #284]
 934:Middlewares/ST/BlueNRG-2/hci/controller/bluenrg1_gatt_aci.c ****   rq.ogf = 0x3f;
 3413              		.loc 1 934 3 view .LVU1211
 3414              		.loc 1 934 10 is_stmt 0 view .LVU1212
 3415 0044 3F23     		movs	r3, #63
 3416 0046 ADF80831 		strh	r3, [sp, #264]	@ movhi
 935:Middlewares/ST/BlueNRG-2/hci/controller/bluenrg1_gatt_aci.c ****   rq.ocf = 0x119;
 3417              		.loc 1 935 3 is_stmt 1 view .LVU1213
 3418              		.loc 1 935 10 is_stmt 0 view .LVU1214
 3419 004a 40F21913 		movw	r3, #281
 3420 004e ADF80A31 		strh	r3, [sp, #266]	@ movhi
 936:Middlewares/ST/BlueNRG-2/hci/controller/bluenrg1_gatt_aci.c ****   rq.event = 0x0F;
 3421              		.loc 1 936 3 is_stmt 1 view .LVU1215
 3422              		.loc 1 936 12 is_stmt 0 view .LVU1216
 3423 0052 0F23     		movs	r3, #15
 3424 0054 4393     		str	r3, [sp, #268]
 937:Middlewares/ST/BlueNRG-2/hci/controller/bluenrg1_gatt_aci.c ****   rq.cparam = cmd_buffer;
 3425              		.loc 1 937 3 is_stmt 1 view .LVU1217
 3426              		.loc 1 937 13 is_stmt 0 view .LVU1218
 3427 0056 01AB     		add	r3, sp, #4
 3428              	.LVL373:
 3429              		.loc 1 937 13 view .LVU1219
 3430 0058 4493     		str	r3, [sp, #272]
 938:Middlewares/ST/BlueNRG-2/hci/controller/bluenrg1_gatt_aci.c ****   rq.clen = index_input;
 3431              		.loc 1 938 3 is_stmt 1 view .LVU1220
 3432              		.loc 1 938 11 is_stmt 0 view .LVU1221
 3433 005a 4594     		str	r4, [sp, #276]
 939:Middlewares/ST/BlueNRG-2/hci/controller/bluenrg1_gatt_aci.c ****   rq.rparam = &status;
 3434              		.loc 1 939 3 is_stmt 1 view .LVU1222
ARM GAS  C:\Users\IAHERN~1\AppData\Local\Temp\ccP26j2c.s 			page 78


 3435              		.loc 1 939 13 is_stmt 0 view .LVU1223
 3436 005c 0DF10303 		add	r3, sp, #3
 3437              	.LVL374:
 3438              		.loc 1 939 13 view .LVU1224
 3439 0060 4693     		str	r3, [sp, #280]
 940:Middlewares/ST/BlueNRG-2/hci/controller/bluenrg1_gatt_aci.c ****   rq.rlen = 1;
 3440              		.loc 1 940 3 is_stmt 1 view .LVU1225
 3441              		.loc 1 940 11 is_stmt 0 view .LVU1226
 3442 0062 0123     		movs	r3, #1
 3443 0064 4793     		str	r3, [sp, #284]
 941:Middlewares/ST/BlueNRG-2/hci/controller/bluenrg1_gatt_aci.c ****   if (hci_send_req(&rq, FALSE) < 0)
 3444              		.loc 1 941 3 is_stmt 1 view .LVU1227
 3445              		.loc 1 941 7 is_stmt 0 view .LVU1228
 3446 0066 42A8     		add	r0, sp, #264
 3447 0068 FFF7FEFF 		bl	hci_send_req
 3448              	.LVL375:
 3449              		.loc 1 941 6 discriminator 1 view .LVU1229
 3450 006c 0028     		cmp	r0, #0
 3451 006e 05DB     		blt	.L142
 942:Middlewares/ST/BlueNRG-2/hci/controller/bluenrg1_gatt_aci.c ****     return BLE_STATUS_TIMEOUT;
 943:Middlewares/ST/BlueNRG-2/hci/controller/bluenrg1_gatt_aci.c ****   if (status) {
 3452              		.loc 1 943 3 is_stmt 1 view .LVU1230
 3453              		.loc 1 943 7 is_stmt 0 view .LVU1231
 3454 0070 9DF80300 		ldrb	r0, [sp, #3]	@ zero_extendqisi2
 3455              	.LVL376:
 3456              	.L139:
 944:Middlewares/ST/BlueNRG-2/hci/controller/bluenrg1_gatt_aci.c ****     return status;
 945:Middlewares/ST/BlueNRG-2/hci/controller/bluenrg1_gatt_aci.c ****   }
 946:Middlewares/ST/BlueNRG-2/hci/controller/bluenrg1_gatt_aci.c ****   return BLE_STATUS_SUCCESS;
 947:Middlewares/ST/BlueNRG-2/hci/controller/bluenrg1_gatt_aci.c **** }
 3457              		.loc 1 947 1 view .LVU1232
 3458 0074 48B0     		add	sp, sp, #288
 3459              		.cfi_remember_state
 3460              		.cfi_def_cfa_offset 8
 3461              		@ sp needed
 3462 0076 10BD     		pop	{r4, pc}
 3463              	.LVL377:
 3464              	.L141:
 3465              		.cfi_restore_state
 3466              	.LBB22:
 925:Middlewares/ST/BlueNRG-2/hci/controller/bluenrg1_gatt_aci.c ****       case 1: size = 2; break;
 3467              		.loc 1 925 5 view .LVU1233
 3468 0078 4720     		movs	r0, #71
 3469              	.LVL378:
 925:Middlewares/ST/BlueNRG-2/hci/controller/bluenrg1_gatt_aci.c ****       case 1: size = 2; break;
 3470              		.loc 1 925 5 view .LVU1234
 3471 007a FBE7     		b	.L139
 3472              	.LVL379:
 3473              	.L142:
 925:Middlewares/ST/BlueNRG-2/hci/controller/bluenrg1_gatt_aci.c ****       case 1: size = 2; break;
 3474              		.loc 1 925 5 view .LVU1235
 3475              	.LBE22:
 942:Middlewares/ST/BlueNRG-2/hci/controller/bluenrg1_gatt_aci.c ****     return BLE_STATUS_TIMEOUT;
 3476              		.loc 1 942 12 view .LVU1236
 3477 007c FF20     		movs	r0, #255
 3478 007e F9E7     		b	.L139
 3479              		.cfi_endproc
ARM GAS  C:\Users\IAHERN~1\AppData\Local\Temp\ccP26j2c.s 			page 79


 3480              	.LFE161:
 3482              		.section	.text.aci_gatt_read_long_char_value,"ax",%progbits
 3483              		.align	1
 3484              		.global	aci_gatt_read_long_char_value
 3485              		.syntax unified
 3486              		.thumb
 3487              		.thumb_func
 3489              	aci_gatt_read_long_char_value:
 3490              	.LVL380:
 3491              	.LFB162:
 948:Middlewares/ST/BlueNRG-2/hci/controller/bluenrg1_gatt_aci.c **** tBleStatus aci_gatt_read_long_char_value(uint16_t Connection_Handle,
 949:Middlewares/ST/BlueNRG-2/hci/controller/bluenrg1_gatt_aci.c ****                                          uint16_t Attr_Handle,
 950:Middlewares/ST/BlueNRG-2/hci/controller/bluenrg1_gatt_aci.c ****                                          uint16_t Val_Offset)
 951:Middlewares/ST/BlueNRG-2/hci/controller/bluenrg1_gatt_aci.c **** {
 3492              		.loc 1 951 1 is_stmt 1 view -0
 3493              		.cfi_startproc
 3494              		@ args = 0, pretend = 0, frame = 288
 3495              		@ frame_needed = 0, uses_anonymous_args = 0
 3496              		.loc 1 951 1 is_stmt 0 view .LVU1238
 3497 0000 30B5     		push	{r4, r5, lr}
 3498              		.cfi_def_cfa_offset 12
 3499              		.cfi_offset 4, -12
 3500              		.cfi_offset 5, -8
 3501              		.cfi_offset 14, -4
 3502 0002 C9B0     		sub	sp, sp, #292
 3503              		.cfi_def_cfa_offset 304
 952:Middlewares/ST/BlueNRG-2/hci/controller/bluenrg1_gatt_aci.c ****   struct hci_request rq;
 3504              		.loc 1 952 3 is_stmt 1 view .LVU1239
 953:Middlewares/ST/BlueNRG-2/hci/controller/bluenrg1_gatt_aci.c ****   uint8_t cmd_buffer[258];
 3505              		.loc 1 953 3 view .LVU1240
 954:Middlewares/ST/BlueNRG-2/hci/controller/bluenrg1_gatt_aci.c ****   aci_gatt_read_long_char_value_cp0 *cp0 = (aci_gatt_read_long_char_value_cp0*)(cmd_buffer);
 3506              		.loc 1 954 3 view .LVU1241
 3507              	.LVL381:
 955:Middlewares/ST/BlueNRG-2/hci/controller/bluenrg1_gatt_aci.c ****   tBleStatus status = 0;
 3508              		.loc 1 955 3 view .LVU1242
 3509              		.loc 1 955 14 is_stmt 0 view .LVU1243
 3510 0004 0DF10305 		add	r5, sp, #3
 3511 0008 0023     		movs	r3, #0
 3512 000a 8DF80330 		strb	r3, [sp, #3]
 956:Middlewares/ST/BlueNRG-2/hci/controller/bluenrg1_gatt_aci.c ****   uint8_t index_input = 0;
 3513              		.loc 1 956 3 is_stmt 1 view .LVU1244
 3514              	.LVL382:
 957:Middlewares/ST/BlueNRG-2/hci/controller/bluenrg1_gatt_aci.c ****   cp0->Connection_Handle = htob(Connection_Handle, 2);
 3515              		.loc 1 957 3 view .LVU1245
 3516              		.loc 1 957 26 is_stmt 0 view .LVU1246
 3517 000e 01AC     		add	r4, sp, #4
 3518              	.LVL383:
 3519              		.loc 1 957 26 view .LVU1247
 3520 0010 ADF80400 		strh	r0, [sp, #4]	@ movhi
 958:Middlewares/ST/BlueNRG-2/hci/controller/bluenrg1_gatt_aci.c ****   index_input += 2;
 3521              		.loc 1 958 3 is_stmt 1 view .LVU1248
 3522              	.LVL384:
 959:Middlewares/ST/BlueNRG-2/hci/controller/bluenrg1_gatt_aci.c ****   cp0->Attr_Handle = htob(Attr_Handle, 2);
 3523              		.loc 1 959 3 view .LVU1249
 3524              		.loc 1 959 20 is_stmt 0 view .LVU1250
 3525 0014 ADF80610 		strh	r1, [sp, #6]	@ movhi
 960:Middlewares/ST/BlueNRG-2/hci/controller/bluenrg1_gatt_aci.c ****   index_input += 2;
ARM GAS  C:\Users\IAHERN~1\AppData\Local\Temp\ccP26j2c.s 			page 80


 3526              		.loc 1 960 3 is_stmt 1 view .LVU1251
 3527              	.LVL385:
 961:Middlewares/ST/BlueNRG-2/hci/controller/bluenrg1_gatt_aci.c ****   cp0->Val_Offset = htob(Val_Offset, 2);
 3528              		.loc 1 961 3 view .LVU1252
 3529              		.loc 1 961 19 is_stmt 0 view .LVU1253
 3530 0018 ADF80820 		strh	r2, [sp, #8]	@ movhi
 962:Middlewares/ST/BlueNRG-2/hci/controller/bluenrg1_gatt_aci.c ****   index_input += 2;
 3531              		.loc 1 962 3 is_stmt 1 view .LVU1254
 3532              	.LVL386:
 963:Middlewares/ST/BlueNRG-2/hci/controller/bluenrg1_gatt_aci.c ****   BLUENRG_memset(&rq, 0, sizeof(rq));
 3533              		.loc 1 963 3 view .LVU1255
 3534 001c 4293     		str	r3, [sp, #264]
 3535 001e 4393     		str	r3, [sp, #268]
 3536 0020 4493     		str	r3, [sp, #272]
 3537 0022 4593     		str	r3, [sp, #276]
 3538 0024 4693     		str	r3, [sp, #280]
 3539 0026 4793     		str	r3, [sp, #284]
 964:Middlewares/ST/BlueNRG-2/hci/controller/bluenrg1_gatt_aci.c ****   rq.ogf = 0x3f;
 3540              		.loc 1 964 3 view .LVU1256
 3541              		.loc 1 964 10 is_stmt 0 view .LVU1257
 3542 0028 3F22     		movs	r2, #63
 3543              	.LVL387:
 3544              		.loc 1 964 10 view .LVU1258
 3545 002a ADF80821 		strh	r2, [sp, #264]	@ movhi
 965:Middlewares/ST/BlueNRG-2/hci/controller/bluenrg1_gatt_aci.c ****   rq.ocf = 0x11a;
 3546              		.loc 1 965 3 is_stmt 1 view .LVU1259
 3547              		.loc 1 965 10 is_stmt 0 view .LVU1260
 3548 002e 4FF48D72 		mov	r2, #282
 3549 0032 ADF80A21 		strh	r2, [sp, #266]	@ movhi
 966:Middlewares/ST/BlueNRG-2/hci/controller/bluenrg1_gatt_aci.c ****   rq.event = 0x0F;
 3550              		.loc 1 966 3 is_stmt 1 view .LVU1261
 3551              		.loc 1 966 12 is_stmt 0 view .LVU1262
 3552 0036 0F22     		movs	r2, #15
 3553 0038 4392     		str	r2, [sp, #268]
 967:Middlewares/ST/BlueNRG-2/hci/controller/bluenrg1_gatt_aci.c ****   rq.cparam = cmd_buffer;
 3554              		.loc 1 967 3 is_stmt 1 view .LVU1263
 3555              		.loc 1 967 13 is_stmt 0 view .LVU1264
 3556 003a 4494     		str	r4, [sp, #272]
 968:Middlewares/ST/BlueNRG-2/hci/controller/bluenrg1_gatt_aci.c ****   rq.clen = index_input;
 3557              		.loc 1 968 3 is_stmt 1 view .LVU1265
 3558              		.loc 1 968 11 is_stmt 0 view .LVU1266
 3559 003c 0622     		movs	r2, #6
 3560 003e 4592     		str	r2, [sp, #276]
 969:Middlewares/ST/BlueNRG-2/hci/controller/bluenrg1_gatt_aci.c ****   rq.rparam = &status;
 3561              		.loc 1 969 3 is_stmt 1 view .LVU1267
 3562              		.loc 1 969 13 is_stmt 0 view .LVU1268
 3563 0040 4695     		str	r5, [sp, #280]
 970:Middlewares/ST/BlueNRG-2/hci/controller/bluenrg1_gatt_aci.c ****   rq.rlen = 1;
 3564              		.loc 1 970 3 is_stmt 1 view .LVU1269
 3565              		.loc 1 970 11 is_stmt 0 view .LVU1270
 3566 0042 0122     		movs	r2, #1
 3567 0044 4792     		str	r2, [sp, #284]
 971:Middlewares/ST/BlueNRG-2/hci/controller/bluenrg1_gatt_aci.c ****   if (hci_send_req(&rq, FALSE) < 0)
 3568              		.loc 1 971 3 is_stmt 1 view .LVU1271
 3569              		.loc 1 971 7 is_stmt 0 view .LVU1272
 3570 0046 1946     		mov	r1, r3
 3571              	.LVL388:
ARM GAS  C:\Users\IAHERN~1\AppData\Local\Temp\ccP26j2c.s 			page 81


 3572              		.loc 1 971 7 view .LVU1273
 3573 0048 42A8     		add	r0, sp, #264
 3574              	.LVL389:
 3575              		.loc 1 971 7 view .LVU1274
 3576 004a FFF7FEFF 		bl	hci_send_req
 3577              	.LVL390:
 3578              		.loc 1 971 6 discriminator 1 view .LVU1275
 3579 004e 0028     		cmp	r0, #0
 3580 0050 03DB     		blt	.L146
 972:Middlewares/ST/BlueNRG-2/hci/controller/bluenrg1_gatt_aci.c ****     return BLE_STATUS_TIMEOUT;
 973:Middlewares/ST/BlueNRG-2/hci/controller/bluenrg1_gatt_aci.c ****   if (status) {
 3581              		.loc 1 973 3 is_stmt 1 view .LVU1276
 3582              		.loc 1 973 7 is_stmt 0 view .LVU1277
 3583 0052 9DF80300 		ldrb	r0, [sp, #3]	@ zero_extendqisi2
 3584              	.L145:
 974:Middlewares/ST/BlueNRG-2/hci/controller/bluenrg1_gatt_aci.c ****     return status;
 975:Middlewares/ST/BlueNRG-2/hci/controller/bluenrg1_gatt_aci.c ****   }
 976:Middlewares/ST/BlueNRG-2/hci/controller/bluenrg1_gatt_aci.c ****   return BLE_STATUS_SUCCESS;
 977:Middlewares/ST/BlueNRG-2/hci/controller/bluenrg1_gatt_aci.c **** }
 3585              		.loc 1 977 1 view .LVU1278
 3586 0056 49B0     		add	sp, sp, #292
 3587              		.cfi_remember_state
 3588              		.cfi_def_cfa_offset 12
 3589              		@ sp needed
 3590 0058 30BD     		pop	{r4, r5, pc}
 3591              	.LVL391:
 3592              	.L146:
 3593              		.cfi_restore_state
 972:Middlewares/ST/BlueNRG-2/hci/controller/bluenrg1_gatt_aci.c ****     return BLE_STATUS_TIMEOUT;
 3594              		.loc 1 972 12 view .LVU1279
 3595 005a FF20     		movs	r0, #255
 3596 005c FBE7     		b	.L145
 3597              		.cfi_endproc
 3598              	.LFE162:
 3600              		.section	.text.aci_gatt_read_multiple_char_value,"ax",%progbits
 3601              		.align	1
 3602              		.global	aci_gatt_read_multiple_char_value
 3603              		.syntax unified
 3604              		.thumb
 3605              		.thumb_func
 3607              	aci_gatt_read_multiple_char_value:
 3608              	.LVL392:
 3609              	.LFB163:
 978:Middlewares/ST/BlueNRG-2/hci/controller/bluenrg1_gatt_aci.c **** tBleStatus aci_gatt_read_multiple_char_value(uint16_t Connection_Handle,
 979:Middlewares/ST/BlueNRG-2/hci/controller/bluenrg1_gatt_aci.c ****                                              uint8_t Number_of_Handles,
 980:Middlewares/ST/BlueNRG-2/hci/controller/bluenrg1_gatt_aci.c ****                                              Handle_Entry_t Handle_Entry[])
 981:Middlewares/ST/BlueNRG-2/hci/controller/bluenrg1_gatt_aci.c **** {
 3610              		.loc 1 981 1 is_stmt 1 view -0
 3611              		.cfi_startproc
 3612              		@ args = 0, pretend = 0, frame = 288
 3613              		@ frame_needed = 0, uses_anonymous_args = 0
 3614              		.loc 1 981 1 is_stmt 0 view .LVU1281
 3615 0000 00B5     		push	{lr}
 3616              		.cfi_def_cfa_offset 4
 3617              		.cfi_offset 14, -4
 3618 0002 C9B0     		sub	sp, sp, #292
 3619              		.cfi_def_cfa_offset 296
ARM GAS  C:\Users\IAHERN~1\AppData\Local\Temp\ccP26j2c.s 			page 82


 982:Middlewares/ST/BlueNRG-2/hci/controller/bluenrg1_gatt_aci.c ****   struct hci_request rq;
 3620              		.loc 1 982 3 is_stmt 1 view .LVU1282
 983:Middlewares/ST/BlueNRG-2/hci/controller/bluenrg1_gatt_aci.c ****   uint8_t cmd_buffer[258];
 3621              		.loc 1 983 3 view .LVU1283
 984:Middlewares/ST/BlueNRG-2/hci/controller/bluenrg1_gatt_aci.c ****   aci_gatt_read_multiple_char_value_cp0 *cp0 = (aci_gatt_read_multiple_char_value_cp0*)(cmd_buffer)
 3622              		.loc 1 984 3 view .LVU1284
 3623              	.LVL393:
 985:Middlewares/ST/BlueNRG-2/hci/controller/bluenrg1_gatt_aci.c ****   tBleStatus status = 0;
 3624              		.loc 1 985 3 view .LVU1285
 3625              		.loc 1 985 14 is_stmt 0 view .LVU1286
 3626 0004 0023     		movs	r3, #0
 3627 0006 8DF80330 		strb	r3, [sp, #3]
 986:Middlewares/ST/BlueNRG-2/hci/controller/bluenrg1_gatt_aci.c ****   uint8_t index_input = 0;
 3628              		.loc 1 986 3 is_stmt 1 view .LVU1287
 3629              	.LVL394:
 987:Middlewares/ST/BlueNRG-2/hci/controller/bluenrg1_gatt_aci.c ****   cp0->Connection_Handle = htob(Connection_Handle, 2);
 3630              		.loc 1 987 3 view .LVU1288
 3631              		.loc 1 987 26 is_stmt 0 view .LVU1289
 3632 000a ADF80400 		strh	r0, [sp, #4]	@ movhi
 988:Middlewares/ST/BlueNRG-2/hci/controller/bluenrg1_gatt_aci.c ****   index_input += 2;
 3633              		.loc 1 988 3 is_stmt 1 view .LVU1290
 3634              	.LVL395:
 989:Middlewares/ST/BlueNRG-2/hci/controller/bluenrg1_gatt_aci.c ****   cp0->Number_of_Handles = htob(Number_of_Handles, 1);
 3635              		.loc 1 989 3 view .LVU1291
 3636              		.loc 1 989 26 is_stmt 0 view .LVU1292
 3637 000e 8DF80610 		strb	r1, [sp, #6]
 990:Middlewares/ST/BlueNRG-2/hci/controller/bluenrg1_gatt_aci.c ****   index_input += 1;
 3638              		.loc 1 990 3 is_stmt 1 view .LVU1293
 3639              	.LVL396:
 991:Middlewares/ST/BlueNRG-2/hci/controller/bluenrg1_gatt_aci.c ****   /* var_len_data input */
 992:Middlewares/ST/BlueNRG-2/hci/controller/bluenrg1_gatt_aci.c ****   {
 993:Middlewares/ST/BlueNRG-2/hci/controller/bluenrg1_gatt_aci.c ****     for (int i = 0; i < Number_of_Handles; i++) {
 3640              		.loc 1 993 5 view .LVU1294
 3641              	.LBB23:
 3642              		.loc 1 993 10 view .LVU1295
 3643              		.loc 1 993 5 is_stmt 0 view .LVU1296
 3644 0012 07E0     		b	.L149
 3645              	.LVL397:
 3646              	.L150:
 994:Middlewares/ST/BlueNRG-2/hci/controller/bluenrg1_gatt_aci.c ****       cp0->Handle_Entry[i].Handle = Handle_Entry[i].Handle;
 3647              		.loc 1 994 7 is_stmt 1 view .LVU1297
 3648              		.loc 1 994 52 is_stmt 0 view .LVU1298
 3649 0014 32F813C0 		ldrh	ip, [r2, r3, lsl #1]
 3650              		.loc 1 994 35 view .LVU1299
 3651 0018 01A8     		add	r0, sp, #4
 3652              	.LVL398:
 3653              		.loc 1 994 35 view .LVU1300
 3654 001a 00EB4300 		add	r0, r0, r3, lsl #1
 3655              	.LVL399:
 3656              		.loc 1 994 35 view .LVU1301
 3657 001e A0F803C0 		strh	ip, [r0, #3]	@ unaligned
 993:Middlewares/ST/BlueNRG-2/hci/controller/bluenrg1_gatt_aci.c ****       cp0->Handle_Entry[i].Handle = Handle_Entry[i].Handle;
 3658              		.loc 1 993 45 is_stmt 1 discriminator 3 view .LVU1302
 3659 0022 0133     		adds	r3, r3, #1
 3660              	.LVL400:
 3661              	.L149:
 993:Middlewares/ST/BlueNRG-2/hci/controller/bluenrg1_gatt_aci.c ****       cp0->Handle_Entry[i].Handle = Handle_Entry[i].Handle;
ARM GAS  C:\Users\IAHERN~1\AppData\Local\Temp\ccP26j2c.s 			page 83


 3662              		.loc 1 993 23 discriminator 1 view .LVU1303
 3663 0024 9942     		cmp	r1, r3
 3664 0026 F5DC     		bgt	.L150
 3665              	.LBE23:
 995:Middlewares/ST/BlueNRG-2/hci/controller/bluenrg1_gatt_aci.c ****     }
 996:Middlewares/ST/BlueNRG-2/hci/controller/bluenrg1_gatt_aci.c ****     index_input += Number_of_Handles*2;
 3666              		.loc 1 996 5 view .LVU1304
 3667              		.loc 1 996 17 is_stmt 0 view .LVU1305
 3668 0028 4B00     		lsls	r3, r1, #1
 3669              	.LVL401:
 3670              		.loc 1 996 17 view .LVU1306
 3671 002a 0333     		adds	r3, r3, #3
 3672 002c DBB2     		uxtb	r3, r3
 3673              	.LVL402:
 997:Middlewares/ST/BlueNRG-2/hci/controller/bluenrg1_gatt_aci.c ****   }
 998:Middlewares/ST/BlueNRG-2/hci/controller/bluenrg1_gatt_aci.c ****   BLUENRG_memset(&rq, 0, sizeof(rq));
 3674              		.loc 1 998 3 is_stmt 1 view .LVU1307
 3675 002e 0021     		movs	r1, #0
 3676              	.LVL403:
 3677              		.loc 1 998 3 is_stmt 0 view .LVU1308
 3678 0030 4291     		str	r1, [sp, #264]
 3679 0032 4391     		str	r1, [sp, #268]
 3680 0034 4491     		str	r1, [sp, #272]
 3681 0036 4591     		str	r1, [sp, #276]
 3682 0038 4691     		str	r1, [sp, #280]
 3683 003a 4791     		str	r1, [sp, #284]
 999:Middlewares/ST/BlueNRG-2/hci/controller/bluenrg1_gatt_aci.c ****   rq.ogf = 0x3f;
 3684              		.loc 1 999 3 is_stmt 1 view .LVU1309
 3685              		.loc 1 999 10 is_stmt 0 view .LVU1310
 3686 003c 3F22     		movs	r2, #63
 3687              	.LVL404:
 3688              		.loc 1 999 10 view .LVU1311
 3689 003e ADF80821 		strh	r2, [sp, #264]	@ movhi
1000:Middlewares/ST/BlueNRG-2/hci/controller/bluenrg1_gatt_aci.c ****   rq.ocf = 0x11b;
 3690              		.loc 1 1000 3 is_stmt 1 view .LVU1312
 3691              		.loc 1 1000 10 is_stmt 0 view .LVU1313
 3692 0042 40F21B12 		movw	r2, #283
 3693 0046 ADF80A21 		strh	r2, [sp, #266]	@ movhi
1001:Middlewares/ST/BlueNRG-2/hci/controller/bluenrg1_gatt_aci.c ****   rq.event = 0x0F;
 3694              		.loc 1 1001 3 is_stmt 1 view .LVU1314
 3695              		.loc 1 1001 12 is_stmt 0 view .LVU1315
 3696 004a 0F22     		movs	r2, #15
 3697 004c 4392     		str	r2, [sp, #268]
1002:Middlewares/ST/BlueNRG-2/hci/controller/bluenrg1_gatt_aci.c ****   rq.cparam = cmd_buffer;
 3698              		.loc 1 1002 3 is_stmt 1 view .LVU1316
 3699              		.loc 1 1002 13 is_stmt 0 view .LVU1317
 3700 004e 01AA     		add	r2, sp, #4
 3701              	.LVL405:
 3702              		.loc 1 1002 13 view .LVU1318
 3703 0050 4492     		str	r2, [sp, #272]
1003:Middlewares/ST/BlueNRG-2/hci/controller/bluenrg1_gatt_aci.c ****   rq.clen = index_input;
 3704              		.loc 1 1003 3 is_stmt 1 view .LVU1319
 3705              		.loc 1 1003 11 is_stmt 0 view .LVU1320
 3706 0052 4593     		str	r3, [sp, #276]
1004:Middlewares/ST/BlueNRG-2/hci/controller/bluenrg1_gatt_aci.c ****   rq.rparam = &status;
 3707              		.loc 1 1004 3 is_stmt 1 view .LVU1321
 3708              		.loc 1 1004 13 is_stmt 0 view .LVU1322
ARM GAS  C:\Users\IAHERN~1\AppData\Local\Temp\ccP26j2c.s 			page 84


 3709 0054 0DF10303 		add	r3, sp, #3
 3710              	.LVL406:
 3711              		.loc 1 1004 13 view .LVU1323
 3712 0058 4693     		str	r3, [sp, #280]
1005:Middlewares/ST/BlueNRG-2/hci/controller/bluenrg1_gatt_aci.c ****   rq.rlen = 1;
 3713              		.loc 1 1005 3 is_stmt 1 view .LVU1324
 3714              		.loc 1 1005 11 is_stmt 0 view .LVU1325
 3715 005a 0123     		movs	r3, #1
 3716 005c 4793     		str	r3, [sp, #284]
1006:Middlewares/ST/BlueNRG-2/hci/controller/bluenrg1_gatt_aci.c ****   if (hci_send_req(&rq, FALSE) < 0)
 3717              		.loc 1 1006 3 is_stmt 1 view .LVU1326
 3718              		.loc 1 1006 7 is_stmt 0 view .LVU1327
 3719 005e 42A8     		add	r0, sp, #264
 3720 0060 FFF7FEFF 		bl	hci_send_req
 3721              	.LVL407:
 3722              		.loc 1 1006 6 discriminator 1 view .LVU1328
 3723 0064 0028     		cmp	r0, #0
 3724 0066 04DB     		blt	.L152
1007:Middlewares/ST/BlueNRG-2/hci/controller/bluenrg1_gatt_aci.c ****     return BLE_STATUS_TIMEOUT;
1008:Middlewares/ST/BlueNRG-2/hci/controller/bluenrg1_gatt_aci.c ****   if (status) {
 3725              		.loc 1 1008 3 is_stmt 1 view .LVU1329
 3726              		.loc 1 1008 7 is_stmt 0 view .LVU1330
 3727 0068 9DF80300 		ldrb	r0, [sp, #3]	@ zero_extendqisi2
 3728              	.L151:
1009:Middlewares/ST/BlueNRG-2/hci/controller/bluenrg1_gatt_aci.c ****     return status;
1010:Middlewares/ST/BlueNRG-2/hci/controller/bluenrg1_gatt_aci.c ****   }
1011:Middlewares/ST/BlueNRG-2/hci/controller/bluenrg1_gatt_aci.c ****   return BLE_STATUS_SUCCESS;
1012:Middlewares/ST/BlueNRG-2/hci/controller/bluenrg1_gatt_aci.c **** }
 3729              		.loc 1 1012 1 view .LVU1331
 3730 006c 49B0     		add	sp, sp, #292
 3731              		.cfi_remember_state
 3732              		.cfi_def_cfa_offset 4
 3733              		@ sp needed
 3734 006e 5DF804FB 		ldr	pc, [sp], #4
 3735              	.LVL408:
 3736              	.L152:
 3737              		.cfi_restore_state
1007:Middlewares/ST/BlueNRG-2/hci/controller/bluenrg1_gatt_aci.c ****     return BLE_STATUS_TIMEOUT;
 3738              		.loc 1 1007 12 view .LVU1332
 3739 0072 FF20     		movs	r0, #255
 3740 0074 FAE7     		b	.L151
 3741              		.cfi_endproc
 3742              	.LFE163:
 3744              		.section	.text.aci_gatt_write_char_value,"ax",%progbits
 3745              		.align	1
 3746              		.global	aci_gatt_write_char_value
 3747              		.syntax unified
 3748              		.thumb
 3749              		.thumb_func
 3751              	aci_gatt_write_char_value:
 3752              	.LVL409:
 3753              	.LFB164:
1013:Middlewares/ST/BlueNRG-2/hci/controller/bluenrg1_gatt_aci.c **** tBleStatus aci_gatt_write_char_value(uint16_t Connection_Handle,
1014:Middlewares/ST/BlueNRG-2/hci/controller/bluenrg1_gatt_aci.c ****                                      uint16_t Attr_Handle,
1015:Middlewares/ST/BlueNRG-2/hci/controller/bluenrg1_gatt_aci.c ****                                      uint8_t Attribute_Val_Length,
1016:Middlewares/ST/BlueNRG-2/hci/controller/bluenrg1_gatt_aci.c ****                                      uint8_t Attribute_Val[])
1017:Middlewares/ST/BlueNRG-2/hci/controller/bluenrg1_gatt_aci.c **** {
ARM GAS  C:\Users\IAHERN~1\AppData\Local\Temp\ccP26j2c.s 			page 85


 3754              		.loc 1 1017 1 is_stmt 1 view -0
 3755              		.cfi_startproc
 3756              		@ args = 0, pretend = 0, frame = 288
 3757              		@ frame_needed = 0, uses_anonymous_args = 0
 3758              		.loc 1 1017 1 is_stmt 0 view .LVU1334
 3759 0000 F0B5     		push	{r4, r5, r6, r7, lr}
 3760              		.cfi_def_cfa_offset 20
 3761              		.cfi_offset 4, -20
 3762              		.cfi_offset 5, -16
 3763              		.cfi_offset 6, -12
 3764              		.cfi_offset 7, -8
 3765              		.cfi_offset 14, -4
 3766 0002 C9B0     		sub	sp, sp, #292
 3767              		.cfi_def_cfa_offset 312
 3768 0004 1546     		mov	r5, r2
1018:Middlewares/ST/BlueNRG-2/hci/controller/bluenrg1_gatt_aci.c ****   struct hci_request rq;
 3769              		.loc 1 1018 3 is_stmt 1 view .LVU1335
1019:Middlewares/ST/BlueNRG-2/hci/controller/bluenrg1_gatt_aci.c ****   uint8_t cmd_buffer[258];
 3770              		.loc 1 1019 3 view .LVU1336
1020:Middlewares/ST/BlueNRG-2/hci/controller/bluenrg1_gatt_aci.c ****   aci_gatt_write_char_value_cp0 *cp0 = (aci_gatt_write_char_value_cp0*)(cmd_buffer);
 3771              		.loc 1 1020 3 view .LVU1337
 3772              	.LVL410:
1021:Middlewares/ST/BlueNRG-2/hci/controller/bluenrg1_gatt_aci.c ****   tBleStatus status = 0;
 3773              		.loc 1 1021 3 view .LVU1338
 3774              		.loc 1 1021 14 is_stmt 0 view .LVU1339
 3775 0006 0DF10307 		add	r7, sp, #3
 3776 000a 0024     		movs	r4, #0
 3777 000c 8DF80340 		strb	r4, [sp, #3]
1022:Middlewares/ST/BlueNRG-2/hci/controller/bluenrg1_gatt_aci.c ****   uint8_t index_input = 0;
 3778              		.loc 1 1022 3 is_stmt 1 view .LVU1340
 3779              	.LVL411:
1023:Middlewares/ST/BlueNRG-2/hci/controller/bluenrg1_gatt_aci.c ****   cp0->Connection_Handle = htob(Connection_Handle, 2);
 3780              		.loc 1 1023 3 view .LVU1341
 3781              		.loc 1 1023 26 is_stmt 0 view .LVU1342
 3782 0010 01AE     		add	r6, sp, #4
 3783              	.LVL412:
 3784              		.loc 1 1023 26 view .LVU1343
 3785 0012 ADF80400 		strh	r0, [sp, #4]	@ movhi
1024:Middlewares/ST/BlueNRG-2/hci/controller/bluenrg1_gatt_aci.c ****   index_input += 2;
 3786              		.loc 1 1024 3 is_stmt 1 view .LVU1344
 3787              	.LVL413:
1025:Middlewares/ST/BlueNRG-2/hci/controller/bluenrg1_gatt_aci.c ****   cp0->Attr_Handle = htob(Attr_Handle, 2);
 3788              		.loc 1 1025 3 view .LVU1345
 3789              		.loc 1 1025 20 is_stmt 0 view .LVU1346
 3790 0016 ADF80610 		strh	r1, [sp, #6]	@ movhi
1026:Middlewares/ST/BlueNRG-2/hci/controller/bluenrg1_gatt_aci.c ****   index_input += 2;
 3791              		.loc 1 1026 3 is_stmt 1 view .LVU1347
 3792              	.LVL414:
1027:Middlewares/ST/BlueNRG-2/hci/controller/bluenrg1_gatt_aci.c ****   cp0->Attribute_Val_Length = htob(Attribute_Val_Length, 1);
 3793              		.loc 1 1027 3 view .LVU1348
 3794              		.loc 1 1027 29 is_stmt 0 view .LVU1349
 3795 001a 8DF80820 		strb	r2, [sp, #8]
1028:Middlewares/ST/BlueNRG-2/hci/controller/bluenrg1_gatt_aci.c ****   index_input += 1;
 3796              		.loc 1 1028 3 is_stmt 1 view .LVU1350
 3797              	.LVL415:
1029:Middlewares/ST/BlueNRG-2/hci/controller/bluenrg1_gatt_aci.c ****   /* var_len_data input */
1030:Middlewares/ST/BlueNRG-2/hci/controller/bluenrg1_gatt_aci.c ****   {
ARM GAS  C:\Users\IAHERN~1\AppData\Local\Temp\ccP26j2c.s 			page 86


1031:Middlewares/ST/BlueNRG-2/hci/controller/bluenrg1_gatt_aci.c ****     BLUENRG_memcpy((void *) &cp0->Attribute_Val, (const void *) Attribute_Val, Attribute_Val_Length
 3798              		.loc 1 1031 5 view .LVU1351
 3799 001e 1946     		mov	r1, r3
 3800              	.LVL416:
 3801              		.loc 1 1031 5 is_stmt 0 view .LVU1352
 3802 0020 0DF10900 		add	r0, sp, #9
 3803              	.LVL417:
 3804              		.loc 1 1031 5 view .LVU1353
 3805 0024 FFF7FEFF 		bl	memcpy
 3806              	.LVL418:
1032:Middlewares/ST/BlueNRG-2/hci/controller/bluenrg1_gatt_aci.c ****     index_input += Attribute_Val_Length*sizeof(uint8_t);
 3807              		.loc 1 1032 5 is_stmt 1 view .LVU1354
 3808              		.loc 1 1032 17 is_stmt 0 view .LVU1355
 3809 0028 0535     		adds	r5, r5, #5
 3810              	.LVL419:
 3811              		.loc 1 1032 17 view .LVU1356
 3812 002a EDB2     		uxtb	r5, r5
 3813              	.LVL420:
1033:Middlewares/ST/BlueNRG-2/hci/controller/bluenrg1_gatt_aci.c ****   }
1034:Middlewares/ST/BlueNRG-2/hci/controller/bluenrg1_gatt_aci.c ****   BLUENRG_memset(&rq, 0, sizeof(rq));
 3814              		.loc 1 1034 3 is_stmt 1 view .LVU1357
 3815 002c 4294     		str	r4, [sp, #264]
 3816 002e 4394     		str	r4, [sp, #268]
 3817 0030 4494     		str	r4, [sp, #272]
 3818 0032 4594     		str	r4, [sp, #276]
 3819 0034 4694     		str	r4, [sp, #280]
 3820 0036 4794     		str	r4, [sp, #284]
1035:Middlewares/ST/BlueNRG-2/hci/controller/bluenrg1_gatt_aci.c ****   rq.ogf = 0x3f;
 3821              		.loc 1 1035 3 view .LVU1358
 3822              		.loc 1 1035 10 is_stmt 0 view .LVU1359
 3823 0038 3F23     		movs	r3, #63
 3824 003a ADF80831 		strh	r3, [sp, #264]	@ movhi
1036:Middlewares/ST/BlueNRG-2/hci/controller/bluenrg1_gatt_aci.c ****   rq.ocf = 0x11c;
 3825              		.loc 1 1036 3 is_stmt 1 view .LVU1360
 3826              		.loc 1 1036 10 is_stmt 0 view .LVU1361
 3827 003e 4FF48E73 		mov	r3, #284
 3828 0042 ADF80A31 		strh	r3, [sp, #266]	@ movhi
1037:Middlewares/ST/BlueNRG-2/hci/controller/bluenrg1_gatt_aci.c ****   rq.event = 0x0F;
 3829              		.loc 1 1037 3 is_stmt 1 view .LVU1362
 3830              		.loc 1 1037 12 is_stmt 0 view .LVU1363
 3831 0046 0F23     		movs	r3, #15
 3832 0048 4393     		str	r3, [sp, #268]
1038:Middlewares/ST/BlueNRG-2/hci/controller/bluenrg1_gatt_aci.c ****   rq.cparam = cmd_buffer;
 3833              		.loc 1 1038 3 is_stmt 1 view .LVU1364
 3834              		.loc 1 1038 13 is_stmt 0 view .LVU1365
 3835 004a 4496     		str	r6, [sp, #272]
1039:Middlewares/ST/BlueNRG-2/hci/controller/bluenrg1_gatt_aci.c ****   rq.clen = index_input;
 3836              		.loc 1 1039 3 is_stmt 1 view .LVU1366
 3837              		.loc 1 1039 11 is_stmt 0 view .LVU1367
 3838 004c 4595     		str	r5, [sp, #276]
1040:Middlewares/ST/BlueNRG-2/hci/controller/bluenrg1_gatt_aci.c ****   rq.rparam = &status;
 3839              		.loc 1 1040 3 is_stmt 1 view .LVU1368
 3840              		.loc 1 1040 13 is_stmt 0 view .LVU1369
 3841 004e 4697     		str	r7, [sp, #280]
1041:Middlewares/ST/BlueNRG-2/hci/controller/bluenrg1_gatt_aci.c ****   rq.rlen = 1;
 3842              		.loc 1 1041 3 is_stmt 1 view .LVU1370
 3843              		.loc 1 1041 11 is_stmt 0 view .LVU1371
ARM GAS  C:\Users\IAHERN~1\AppData\Local\Temp\ccP26j2c.s 			page 87


 3844 0050 0123     		movs	r3, #1
 3845 0052 4793     		str	r3, [sp, #284]
1042:Middlewares/ST/BlueNRG-2/hci/controller/bluenrg1_gatt_aci.c ****   if (hci_send_req(&rq, FALSE) < 0)
 3846              		.loc 1 1042 3 is_stmt 1 view .LVU1372
 3847              		.loc 1 1042 7 is_stmt 0 view .LVU1373
 3848 0054 2146     		mov	r1, r4
 3849 0056 42A8     		add	r0, sp, #264
 3850 0058 FFF7FEFF 		bl	hci_send_req
 3851              	.LVL421:
 3852              		.loc 1 1042 6 discriminator 1 view .LVU1374
 3853 005c A042     		cmp	r0, r4
 3854 005e 03DB     		blt	.L156
1043:Middlewares/ST/BlueNRG-2/hci/controller/bluenrg1_gatt_aci.c ****     return BLE_STATUS_TIMEOUT;
1044:Middlewares/ST/BlueNRG-2/hci/controller/bluenrg1_gatt_aci.c ****   if (status) {
 3855              		.loc 1 1044 3 is_stmt 1 view .LVU1375
 3856              		.loc 1 1044 7 is_stmt 0 view .LVU1376
 3857 0060 9DF80300 		ldrb	r0, [sp, #3]	@ zero_extendqisi2
 3858              	.L155:
1045:Middlewares/ST/BlueNRG-2/hci/controller/bluenrg1_gatt_aci.c ****     return status;
1046:Middlewares/ST/BlueNRG-2/hci/controller/bluenrg1_gatt_aci.c ****   }
1047:Middlewares/ST/BlueNRG-2/hci/controller/bluenrg1_gatt_aci.c ****   return BLE_STATUS_SUCCESS;
1048:Middlewares/ST/BlueNRG-2/hci/controller/bluenrg1_gatt_aci.c **** }
 3859              		.loc 1 1048 1 view .LVU1377
 3860 0064 49B0     		add	sp, sp, #292
 3861              		.cfi_remember_state
 3862              		.cfi_def_cfa_offset 20
 3863              		@ sp needed
 3864 0066 F0BD     		pop	{r4, r5, r6, r7, pc}
 3865              	.LVL422:
 3866              	.L156:
 3867              		.cfi_restore_state
1043:Middlewares/ST/BlueNRG-2/hci/controller/bluenrg1_gatt_aci.c ****     return BLE_STATUS_TIMEOUT;
 3868              		.loc 1 1043 12 view .LVU1378
 3869 0068 FF20     		movs	r0, #255
 3870 006a FBE7     		b	.L155
 3871              		.cfi_endproc
 3872              	.LFE164:
 3874              		.section	.text.aci_gatt_write_long_char_value,"ax",%progbits
 3875              		.align	1
 3876              		.global	aci_gatt_write_long_char_value
 3877              		.syntax unified
 3878              		.thumb
 3879              		.thumb_func
 3881              	aci_gatt_write_long_char_value:
 3882              	.LVL423:
 3883              	.LFB165:
1049:Middlewares/ST/BlueNRG-2/hci/controller/bluenrg1_gatt_aci.c **** tBleStatus aci_gatt_write_long_char_value(uint16_t Connection_Handle,
1050:Middlewares/ST/BlueNRG-2/hci/controller/bluenrg1_gatt_aci.c ****                                           uint16_t Attr_Handle,
1051:Middlewares/ST/BlueNRG-2/hci/controller/bluenrg1_gatt_aci.c ****                                           uint16_t Val_Offset,
1052:Middlewares/ST/BlueNRG-2/hci/controller/bluenrg1_gatt_aci.c ****                                           uint8_t Attribute_Val_Length,
1053:Middlewares/ST/BlueNRG-2/hci/controller/bluenrg1_gatt_aci.c ****                                           uint8_t Attribute_Val[])
1054:Middlewares/ST/BlueNRG-2/hci/controller/bluenrg1_gatt_aci.c **** {
 3884              		.loc 1 1054 1 is_stmt 1 view -0
 3885              		.cfi_startproc
 3886              		@ args = 4, pretend = 0, frame = 288
 3887              		@ frame_needed = 0, uses_anonymous_args = 0
 3888              		.loc 1 1054 1 is_stmt 0 view .LVU1380
ARM GAS  C:\Users\IAHERN~1\AppData\Local\Temp\ccP26j2c.s 			page 88


 3889 0000 F0B5     		push	{r4, r5, r6, r7, lr}
 3890              		.cfi_def_cfa_offset 20
 3891              		.cfi_offset 4, -20
 3892              		.cfi_offset 5, -16
 3893              		.cfi_offset 6, -12
 3894              		.cfi_offset 7, -8
 3895              		.cfi_offset 14, -4
 3896 0002 C9B0     		sub	sp, sp, #292
 3897              		.cfi_def_cfa_offset 312
 3898 0004 1C46     		mov	r4, r3
1055:Middlewares/ST/BlueNRG-2/hci/controller/bluenrg1_gatt_aci.c ****   struct hci_request rq;
 3899              		.loc 1 1055 3 is_stmt 1 view .LVU1381
1056:Middlewares/ST/BlueNRG-2/hci/controller/bluenrg1_gatt_aci.c ****   uint8_t cmd_buffer[258];
 3900              		.loc 1 1056 3 view .LVU1382
1057:Middlewares/ST/BlueNRG-2/hci/controller/bluenrg1_gatt_aci.c ****   aci_gatt_write_long_char_value_cp0 *cp0 = (aci_gatt_write_long_char_value_cp0*)(cmd_buffer);
 3901              		.loc 1 1057 3 view .LVU1383
 3902              	.LVL424:
1058:Middlewares/ST/BlueNRG-2/hci/controller/bluenrg1_gatt_aci.c ****   tBleStatus status = 0;
 3903              		.loc 1 1058 3 view .LVU1384
 3904              		.loc 1 1058 14 is_stmt 0 view .LVU1385
 3905 0006 0DF10307 		add	r7, sp, #3
 3906 000a 0025     		movs	r5, #0
 3907 000c 8DF80350 		strb	r5, [sp, #3]
1059:Middlewares/ST/BlueNRG-2/hci/controller/bluenrg1_gatt_aci.c ****   uint8_t index_input = 0;
 3908              		.loc 1 1059 3 is_stmt 1 view .LVU1386
 3909              	.LVL425:
1060:Middlewares/ST/BlueNRG-2/hci/controller/bluenrg1_gatt_aci.c ****   cp0->Connection_Handle = htob(Connection_Handle, 2);
 3910              		.loc 1 1060 3 view .LVU1387
 3911              		.loc 1 1060 26 is_stmt 0 view .LVU1388
 3912 0010 01AE     		add	r6, sp, #4
 3913              	.LVL426:
 3914              		.loc 1 1060 26 view .LVU1389
 3915 0012 ADF80400 		strh	r0, [sp, #4]	@ movhi
1061:Middlewares/ST/BlueNRG-2/hci/controller/bluenrg1_gatt_aci.c ****   index_input += 2;
 3916              		.loc 1 1061 3 is_stmt 1 view .LVU1390
 3917              	.LVL427:
1062:Middlewares/ST/BlueNRG-2/hci/controller/bluenrg1_gatt_aci.c ****   cp0->Attr_Handle = htob(Attr_Handle, 2);
 3918              		.loc 1 1062 3 view .LVU1391
 3919              		.loc 1 1062 20 is_stmt 0 view .LVU1392
 3920 0016 ADF80610 		strh	r1, [sp, #6]	@ movhi
1063:Middlewares/ST/BlueNRG-2/hci/controller/bluenrg1_gatt_aci.c ****   index_input += 2;
 3921              		.loc 1 1063 3 is_stmt 1 view .LVU1393
 3922              	.LVL428:
1064:Middlewares/ST/BlueNRG-2/hci/controller/bluenrg1_gatt_aci.c ****   cp0->Val_Offset = htob(Val_Offset, 2);
 3923              		.loc 1 1064 3 view .LVU1394
 3924              		.loc 1 1064 19 is_stmt 0 view .LVU1395
 3925 001a ADF80820 		strh	r2, [sp, #8]	@ movhi
1065:Middlewares/ST/BlueNRG-2/hci/controller/bluenrg1_gatt_aci.c ****   index_input += 2;
 3926              		.loc 1 1065 3 is_stmt 1 view .LVU1396
 3927              	.LVL429:
1066:Middlewares/ST/BlueNRG-2/hci/controller/bluenrg1_gatt_aci.c ****   cp0->Attribute_Val_Length = htob(Attribute_Val_Length, 1);
 3928              		.loc 1 1066 3 view .LVU1397
 3929              		.loc 1 1066 29 is_stmt 0 view .LVU1398
 3930 001e 8DF80A30 		strb	r3, [sp, #10]
1067:Middlewares/ST/BlueNRG-2/hci/controller/bluenrg1_gatt_aci.c ****   index_input += 1;
 3931              		.loc 1 1067 3 is_stmt 1 view .LVU1399
 3932              	.LVL430:
ARM GAS  C:\Users\IAHERN~1\AppData\Local\Temp\ccP26j2c.s 			page 89


1068:Middlewares/ST/BlueNRG-2/hci/controller/bluenrg1_gatt_aci.c ****   /* var_len_data input */
1069:Middlewares/ST/BlueNRG-2/hci/controller/bluenrg1_gatt_aci.c ****   {
1070:Middlewares/ST/BlueNRG-2/hci/controller/bluenrg1_gatt_aci.c ****     BLUENRG_memcpy((void *) &cp0->Attribute_Val, (const void *) Attribute_Val, Attribute_Val_Length
 3933              		.loc 1 1070 5 view .LVU1400
 3934 0022 1A46     		mov	r2, r3
 3935              	.LVL431:
 3936              		.loc 1 1070 5 is_stmt 0 view .LVU1401
 3937 0024 4E99     		ldr	r1, [sp, #312]
 3938              	.LVL432:
 3939              		.loc 1 1070 5 view .LVU1402
 3940 0026 0DF10B00 		add	r0, sp, #11
 3941              	.LVL433:
 3942              		.loc 1 1070 5 view .LVU1403
 3943 002a FFF7FEFF 		bl	memcpy
 3944              	.LVL434:
1071:Middlewares/ST/BlueNRG-2/hci/controller/bluenrg1_gatt_aci.c ****     index_input += Attribute_Val_Length*sizeof(uint8_t);
 3945              		.loc 1 1071 5 is_stmt 1 view .LVU1404
 3946              		.loc 1 1071 17 is_stmt 0 view .LVU1405
 3947 002e 0734     		adds	r4, r4, #7
 3948              	.LVL435:
 3949              		.loc 1 1071 17 view .LVU1406
 3950 0030 E4B2     		uxtb	r4, r4
 3951              	.LVL436:
1072:Middlewares/ST/BlueNRG-2/hci/controller/bluenrg1_gatt_aci.c ****   }
1073:Middlewares/ST/BlueNRG-2/hci/controller/bluenrg1_gatt_aci.c ****   BLUENRG_memset(&rq, 0, sizeof(rq));
 3952              		.loc 1 1073 3 is_stmt 1 view .LVU1407
 3953 0032 4295     		str	r5, [sp, #264]
 3954 0034 4395     		str	r5, [sp, #268]
 3955 0036 4495     		str	r5, [sp, #272]
 3956 0038 4595     		str	r5, [sp, #276]
 3957 003a 4695     		str	r5, [sp, #280]
 3958 003c 4795     		str	r5, [sp, #284]
1074:Middlewares/ST/BlueNRG-2/hci/controller/bluenrg1_gatt_aci.c ****   rq.ogf = 0x3f;
 3959              		.loc 1 1074 3 view .LVU1408
 3960              		.loc 1 1074 10 is_stmt 0 view .LVU1409
 3961 003e 3F23     		movs	r3, #63
 3962 0040 ADF80831 		strh	r3, [sp, #264]	@ movhi
1075:Middlewares/ST/BlueNRG-2/hci/controller/bluenrg1_gatt_aci.c ****   rq.ocf = 0x11d;
 3963              		.loc 1 1075 3 is_stmt 1 view .LVU1410
 3964              		.loc 1 1075 10 is_stmt 0 view .LVU1411
 3965 0044 40F21D13 		movw	r3, #285
 3966 0048 ADF80A31 		strh	r3, [sp, #266]	@ movhi
1076:Middlewares/ST/BlueNRG-2/hci/controller/bluenrg1_gatt_aci.c ****   rq.event = 0x0F;
 3967              		.loc 1 1076 3 is_stmt 1 view .LVU1412
 3968              		.loc 1 1076 12 is_stmt 0 view .LVU1413
 3969 004c 0F23     		movs	r3, #15
 3970 004e 4393     		str	r3, [sp, #268]
1077:Middlewares/ST/BlueNRG-2/hci/controller/bluenrg1_gatt_aci.c ****   rq.cparam = cmd_buffer;
 3971              		.loc 1 1077 3 is_stmt 1 view .LVU1414
 3972              		.loc 1 1077 13 is_stmt 0 view .LVU1415
 3973 0050 4496     		str	r6, [sp, #272]
1078:Middlewares/ST/BlueNRG-2/hci/controller/bluenrg1_gatt_aci.c ****   rq.clen = index_input;
 3974              		.loc 1 1078 3 is_stmt 1 view .LVU1416
 3975              		.loc 1 1078 11 is_stmt 0 view .LVU1417
 3976 0052 4594     		str	r4, [sp, #276]
1079:Middlewares/ST/BlueNRG-2/hci/controller/bluenrg1_gatt_aci.c ****   rq.rparam = &status;
 3977              		.loc 1 1079 3 is_stmt 1 view .LVU1418
ARM GAS  C:\Users\IAHERN~1\AppData\Local\Temp\ccP26j2c.s 			page 90


 3978              		.loc 1 1079 13 is_stmt 0 view .LVU1419
 3979 0054 4697     		str	r7, [sp, #280]
1080:Middlewares/ST/BlueNRG-2/hci/controller/bluenrg1_gatt_aci.c ****   rq.rlen = 1;
 3980              		.loc 1 1080 3 is_stmt 1 view .LVU1420
 3981              		.loc 1 1080 11 is_stmt 0 view .LVU1421
 3982 0056 0123     		movs	r3, #1
 3983 0058 4793     		str	r3, [sp, #284]
1081:Middlewares/ST/BlueNRG-2/hci/controller/bluenrg1_gatt_aci.c ****   if (hci_send_req(&rq, FALSE) < 0)
 3984              		.loc 1 1081 3 is_stmt 1 view .LVU1422
 3985              		.loc 1 1081 7 is_stmt 0 view .LVU1423
 3986 005a 2946     		mov	r1, r5
 3987 005c 42A8     		add	r0, sp, #264
 3988 005e FFF7FEFF 		bl	hci_send_req
 3989              	.LVL437:
 3990              		.loc 1 1081 6 discriminator 1 view .LVU1424
 3991 0062 A842     		cmp	r0, r5
 3992 0064 03DB     		blt	.L160
1082:Middlewares/ST/BlueNRG-2/hci/controller/bluenrg1_gatt_aci.c ****     return BLE_STATUS_TIMEOUT;
1083:Middlewares/ST/BlueNRG-2/hci/controller/bluenrg1_gatt_aci.c ****   if (status) {
 3993              		.loc 1 1083 3 is_stmt 1 view .LVU1425
 3994              		.loc 1 1083 7 is_stmt 0 view .LVU1426
 3995 0066 9DF80300 		ldrb	r0, [sp, #3]	@ zero_extendqisi2
 3996              	.L159:
1084:Middlewares/ST/BlueNRG-2/hci/controller/bluenrg1_gatt_aci.c ****     return status;
1085:Middlewares/ST/BlueNRG-2/hci/controller/bluenrg1_gatt_aci.c ****   }
1086:Middlewares/ST/BlueNRG-2/hci/controller/bluenrg1_gatt_aci.c ****   return BLE_STATUS_SUCCESS;
1087:Middlewares/ST/BlueNRG-2/hci/controller/bluenrg1_gatt_aci.c **** }
 3997              		.loc 1 1087 1 view .LVU1427
 3998 006a 49B0     		add	sp, sp, #292
 3999              		.cfi_remember_state
 4000              		.cfi_def_cfa_offset 20
 4001              		@ sp needed
 4002 006c F0BD     		pop	{r4, r5, r6, r7, pc}
 4003              	.LVL438:
 4004              	.L160:
 4005              		.cfi_restore_state
1082:Middlewares/ST/BlueNRG-2/hci/controller/bluenrg1_gatt_aci.c ****     return BLE_STATUS_TIMEOUT;
 4006              		.loc 1 1082 12 view .LVU1428
 4007 006e FF20     		movs	r0, #255
 4008 0070 FBE7     		b	.L159
 4009              		.cfi_endproc
 4010              	.LFE165:
 4012              		.section	.text.aci_gatt_write_char_reliable,"ax",%progbits
 4013              		.align	1
 4014              		.global	aci_gatt_write_char_reliable
 4015              		.syntax unified
 4016              		.thumb
 4017              		.thumb_func
 4019              	aci_gatt_write_char_reliable:
 4020              	.LVL439:
 4021              	.LFB166:
1088:Middlewares/ST/BlueNRG-2/hci/controller/bluenrg1_gatt_aci.c **** tBleStatus aci_gatt_write_char_reliable(uint16_t Connection_Handle,
1089:Middlewares/ST/BlueNRG-2/hci/controller/bluenrg1_gatt_aci.c ****                                         uint16_t Attr_Handle,
1090:Middlewares/ST/BlueNRG-2/hci/controller/bluenrg1_gatt_aci.c ****                                         uint16_t Val_Offset,
1091:Middlewares/ST/BlueNRG-2/hci/controller/bluenrg1_gatt_aci.c ****                                         uint8_t Attribute_Val_Length,
1092:Middlewares/ST/BlueNRG-2/hci/controller/bluenrg1_gatt_aci.c ****                                         uint8_t Attribute_Val[])
1093:Middlewares/ST/BlueNRG-2/hci/controller/bluenrg1_gatt_aci.c **** {
ARM GAS  C:\Users\IAHERN~1\AppData\Local\Temp\ccP26j2c.s 			page 91


 4022              		.loc 1 1093 1 is_stmt 1 view -0
 4023              		.cfi_startproc
 4024              		@ args = 4, pretend = 0, frame = 288
 4025              		@ frame_needed = 0, uses_anonymous_args = 0
 4026              		.loc 1 1093 1 is_stmt 0 view .LVU1430
 4027 0000 F0B5     		push	{r4, r5, r6, r7, lr}
 4028              		.cfi_def_cfa_offset 20
 4029              		.cfi_offset 4, -20
 4030              		.cfi_offset 5, -16
 4031              		.cfi_offset 6, -12
 4032              		.cfi_offset 7, -8
 4033              		.cfi_offset 14, -4
 4034 0002 C9B0     		sub	sp, sp, #292
 4035              		.cfi_def_cfa_offset 312
 4036 0004 1C46     		mov	r4, r3
1094:Middlewares/ST/BlueNRG-2/hci/controller/bluenrg1_gatt_aci.c ****   struct hci_request rq;
 4037              		.loc 1 1094 3 is_stmt 1 view .LVU1431
1095:Middlewares/ST/BlueNRG-2/hci/controller/bluenrg1_gatt_aci.c ****   uint8_t cmd_buffer[258];
 4038              		.loc 1 1095 3 view .LVU1432
1096:Middlewares/ST/BlueNRG-2/hci/controller/bluenrg1_gatt_aci.c ****   aci_gatt_write_char_reliable_cp0 *cp0 = (aci_gatt_write_char_reliable_cp0*)(cmd_buffer);
 4039              		.loc 1 1096 3 view .LVU1433
 4040              	.LVL440:
1097:Middlewares/ST/BlueNRG-2/hci/controller/bluenrg1_gatt_aci.c ****   tBleStatus status = 0;
 4041              		.loc 1 1097 3 view .LVU1434
 4042              		.loc 1 1097 14 is_stmt 0 view .LVU1435
 4043 0006 0DF10307 		add	r7, sp, #3
 4044 000a 0025     		movs	r5, #0
 4045 000c 8DF80350 		strb	r5, [sp, #3]
1098:Middlewares/ST/BlueNRG-2/hci/controller/bluenrg1_gatt_aci.c ****   uint8_t index_input = 0;
 4046              		.loc 1 1098 3 is_stmt 1 view .LVU1436
 4047              	.LVL441:
1099:Middlewares/ST/BlueNRG-2/hci/controller/bluenrg1_gatt_aci.c ****   cp0->Connection_Handle = htob(Connection_Handle, 2);
 4048              		.loc 1 1099 3 view .LVU1437
 4049              		.loc 1 1099 26 is_stmt 0 view .LVU1438
 4050 0010 01AE     		add	r6, sp, #4
 4051              	.LVL442:
 4052              		.loc 1 1099 26 view .LVU1439
 4053 0012 ADF80400 		strh	r0, [sp, #4]	@ movhi
1100:Middlewares/ST/BlueNRG-2/hci/controller/bluenrg1_gatt_aci.c ****   index_input += 2;
 4054              		.loc 1 1100 3 is_stmt 1 view .LVU1440
 4055              	.LVL443:
1101:Middlewares/ST/BlueNRG-2/hci/controller/bluenrg1_gatt_aci.c ****   cp0->Attr_Handle = htob(Attr_Handle, 2);
 4056              		.loc 1 1101 3 view .LVU1441
 4057              		.loc 1 1101 20 is_stmt 0 view .LVU1442
 4058 0016 ADF80610 		strh	r1, [sp, #6]	@ movhi
1102:Middlewares/ST/BlueNRG-2/hci/controller/bluenrg1_gatt_aci.c ****   index_input += 2;
 4059              		.loc 1 1102 3 is_stmt 1 view .LVU1443
 4060              	.LVL444:
1103:Middlewares/ST/BlueNRG-2/hci/controller/bluenrg1_gatt_aci.c ****   cp0->Val_Offset = htob(Val_Offset, 2);
 4061              		.loc 1 1103 3 view .LVU1444
 4062              		.loc 1 1103 19 is_stmt 0 view .LVU1445
 4063 001a ADF80820 		strh	r2, [sp, #8]	@ movhi
1104:Middlewares/ST/BlueNRG-2/hci/controller/bluenrg1_gatt_aci.c ****   index_input += 2;
 4064              		.loc 1 1104 3 is_stmt 1 view .LVU1446
 4065              	.LVL445:
1105:Middlewares/ST/BlueNRG-2/hci/controller/bluenrg1_gatt_aci.c ****   cp0->Attribute_Val_Length = htob(Attribute_Val_Length, 1);
 4066              		.loc 1 1105 3 view .LVU1447
ARM GAS  C:\Users\IAHERN~1\AppData\Local\Temp\ccP26j2c.s 			page 92


 4067              		.loc 1 1105 29 is_stmt 0 view .LVU1448
 4068 001e 8DF80A30 		strb	r3, [sp, #10]
1106:Middlewares/ST/BlueNRG-2/hci/controller/bluenrg1_gatt_aci.c ****   index_input += 1;
 4069              		.loc 1 1106 3 is_stmt 1 view .LVU1449
 4070              	.LVL446:
1107:Middlewares/ST/BlueNRG-2/hci/controller/bluenrg1_gatt_aci.c ****   /* var_len_data input */
1108:Middlewares/ST/BlueNRG-2/hci/controller/bluenrg1_gatt_aci.c ****   {
1109:Middlewares/ST/BlueNRG-2/hci/controller/bluenrg1_gatt_aci.c ****     BLUENRG_memcpy((void *) &cp0->Attribute_Val, (const void *) Attribute_Val, Attribute_Val_Length
 4071              		.loc 1 1109 5 view .LVU1450
 4072 0022 1A46     		mov	r2, r3
 4073              	.LVL447:
 4074              		.loc 1 1109 5 is_stmt 0 view .LVU1451
 4075 0024 4E99     		ldr	r1, [sp, #312]
 4076              	.LVL448:
 4077              		.loc 1 1109 5 view .LVU1452
 4078 0026 0DF10B00 		add	r0, sp, #11
 4079              	.LVL449:
 4080              		.loc 1 1109 5 view .LVU1453
 4081 002a FFF7FEFF 		bl	memcpy
 4082              	.LVL450:
1110:Middlewares/ST/BlueNRG-2/hci/controller/bluenrg1_gatt_aci.c ****     index_input += Attribute_Val_Length*sizeof(uint8_t);
 4083              		.loc 1 1110 5 is_stmt 1 view .LVU1454
 4084              		.loc 1 1110 17 is_stmt 0 view .LVU1455
 4085 002e 0734     		adds	r4, r4, #7
 4086              	.LVL451:
 4087              		.loc 1 1110 17 view .LVU1456
 4088 0030 E4B2     		uxtb	r4, r4
 4089              	.LVL452:
1111:Middlewares/ST/BlueNRG-2/hci/controller/bluenrg1_gatt_aci.c ****   }
1112:Middlewares/ST/BlueNRG-2/hci/controller/bluenrg1_gatt_aci.c ****   BLUENRG_memset(&rq, 0, sizeof(rq));
 4090              		.loc 1 1112 3 is_stmt 1 view .LVU1457
 4091 0032 4295     		str	r5, [sp, #264]
 4092 0034 4395     		str	r5, [sp, #268]
 4093 0036 4495     		str	r5, [sp, #272]
 4094 0038 4595     		str	r5, [sp, #276]
 4095 003a 4695     		str	r5, [sp, #280]
 4096 003c 4795     		str	r5, [sp, #284]
1113:Middlewares/ST/BlueNRG-2/hci/controller/bluenrg1_gatt_aci.c ****   rq.ogf = 0x3f;
 4097              		.loc 1 1113 3 view .LVU1458
 4098              		.loc 1 1113 10 is_stmt 0 view .LVU1459
 4099 003e 3F23     		movs	r3, #63
 4100 0040 ADF80831 		strh	r3, [sp, #264]	@ movhi
1114:Middlewares/ST/BlueNRG-2/hci/controller/bluenrg1_gatt_aci.c ****   rq.ocf = 0x11e;
 4101              		.loc 1 1114 3 is_stmt 1 view .LVU1460
 4102              		.loc 1 1114 10 is_stmt 0 view .LVU1461
 4103 0044 4FF48F73 		mov	r3, #286
 4104 0048 ADF80A31 		strh	r3, [sp, #266]	@ movhi
1115:Middlewares/ST/BlueNRG-2/hci/controller/bluenrg1_gatt_aci.c ****   rq.event = 0x0F;
 4105              		.loc 1 1115 3 is_stmt 1 view .LVU1462
 4106              		.loc 1 1115 12 is_stmt 0 view .LVU1463
 4107 004c 0F23     		movs	r3, #15
 4108 004e 4393     		str	r3, [sp, #268]
1116:Middlewares/ST/BlueNRG-2/hci/controller/bluenrg1_gatt_aci.c ****   rq.cparam = cmd_buffer;
 4109              		.loc 1 1116 3 is_stmt 1 view .LVU1464
 4110              		.loc 1 1116 13 is_stmt 0 view .LVU1465
 4111 0050 4496     		str	r6, [sp, #272]
1117:Middlewares/ST/BlueNRG-2/hci/controller/bluenrg1_gatt_aci.c ****   rq.clen = index_input;
ARM GAS  C:\Users\IAHERN~1\AppData\Local\Temp\ccP26j2c.s 			page 93


 4112              		.loc 1 1117 3 is_stmt 1 view .LVU1466
 4113              		.loc 1 1117 11 is_stmt 0 view .LVU1467
 4114 0052 4594     		str	r4, [sp, #276]
1118:Middlewares/ST/BlueNRG-2/hci/controller/bluenrg1_gatt_aci.c ****   rq.rparam = &status;
 4115              		.loc 1 1118 3 is_stmt 1 view .LVU1468
 4116              		.loc 1 1118 13 is_stmt 0 view .LVU1469
 4117 0054 4697     		str	r7, [sp, #280]
1119:Middlewares/ST/BlueNRG-2/hci/controller/bluenrg1_gatt_aci.c ****   rq.rlen = 1;
 4118              		.loc 1 1119 3 is_stmt 1 view .LVU1470
 4119              		.loc 1 1119 11 is_stmt 0 view .LVU1471
 4120 0056 0123     		movs	r3, #1
 4121 0058 4793     		str	r3, [sp, #284]
1120:Middlewares/ST/BlueNRG-2/hci/controller/bluenrg1_gatt_aci.c ****   if (hci_send_req(&rq, FALSE) < 0)
 4122              		.loc 1 1120 3 is_stmt 1 view .LVU1472
 4123              		.loc 1 1120 7 is_stmt 0 view .LVU1473
 4124 005a 2946     		mov	r1, r5
 4125 005c 42A8     		add	r0, sp, #264
 4126 005e FFF7FEFF 		bl	hci_send_req
 4127              	.LVL453:
 4128              		.loc 1 1120 6 discriminator 1 view .LVU1474
 4129 0062 A842     		cmp	r0, r5
 4130 0064 03DB     		blt	.L164
1121:Middlewares/ST/BlueNRG-2/hci/controller/bluenrg1_gatt_aci.c ****     return BLE_STATUS_TIMEOUT;
1122:Middlewares/ST/BlueNRG-2/hci/controller/bluenrg1_gatt_aci.c ****   if (status) {
 4131              		.loc 1 1122 3 is_stmt 1 view .LVU1475
 4132              		.loc 1 1122 7 is_stmt 0 view .LVU1476
 4133 0066 9DF80300 		ldrb	r0, [sp, #3]	@ zero_extendqisi2
 4134              	.L163:
1123:Middlewares/ST/BlueNRG-2/hci/controller/bluenrg1_gatt_aci.c ****     return status;
1124:Middlewares/ST/BlueNRG-2/hci/controller/bluenrg1_gatt_aci.c ****   }
1125:Middlewares/ST/BlueNRG-2/hci/controller/bluenrg1_gatt_aci.c ****   return BLE_STATUS_SUCCESS;
1126:Middlewares/ST/BlueNRG-2/hci/controller/bluenrg1_gatt_aci.c **** }
 4135              		.loc 1 1126 1 view .LVU1477
 4136 006a 49B0     		add	sp, sp, #292
 4137              		.cfi_remember_state
 4138              		.cfi_def_cfa_offset 20
 4139              		@ sp needed
 4140 006c F0BD     		pop	{r4, r5, r6, r7, pc}
 4141              	.LVL454:
 4142              	.L164:
 4143              		.cfi_restore_state
1121:Middlewares/ST/BlueNRG-2/hci/controller/bluenrg1_gatt_aci.c ****     return BLE_STATUS_TIMEOUT;
 4144              		.loc 1 1121 12 view .LVU1478
 4145 006e FF20     		movs	r0, #255
 4146 0070 FBE7     		b	.L163
 4147              		.cfi_endproc
 4148              	.LFE166:
 4150              		.section	.text.aci_gatt_write_long_char_desc,"ax",%progbits
 4151              		.align	1
 4152              		.global	aci_gatt_write_long_char_desc
 4153              		.syntax unified
 4154              		.thumb
 4155              		.thumb_func
 4157              	aci_gatt_write_long_char_desc:
 4158              	.LVL455:
 4159              	.LFB167:
1127:Middlewares/ST/BlueNRG-2/hci/controller/bluenrg1_gatt_aci.c **** tBleStatus aci_gatt_write_long_char_desc(uint16_t Connection_Handle,
ARM GAS  C:\Users\IAHERN~1\AppData\Local\Temp\ccP26j2c.s 			page 94


1128:Middlewares/ST/BlueNRG-2/hci/controller/bluenrg1_gatt_aci.c ****                                          uint16_t Attr_Handle,
1129:Middlewares/ST/BlueNRG-2/hci/controller/bluenrg1_gatt_aci.c ****                                          uint16_t Val_Offset,
1130:Middlewares/ST/BlueNRG-2/hci/controller/bluenrg1_gatt_aci.c ****                                          uint8_t Attribute_Val_Length,
1131:Middlewares/ST/BlueNRG-2/hci/controller/bluenrg1_gatt_aci.c ****                                          uint8_t Attribute_Val[])
1132:Middlewares/ST/BlueNRG-2/hci/controller/bluenrg1_gatt_aci.c **** {
 4160              		.loc 1 1132 1 is_stmt 1 view -0
 4161              		.cfi_startproc
 4162              		@ args = 4, pretend = 0, frame = 288
 4163              		@ frame_needed = 0, uses_anonymous_args = 0
 4164              		.loc 1 1132 1 is_stmt 0 view .LVU1480
 4165 0000 F0B5     		push	{r4, r5, r6, r7, lr}
 4166              		.cfi_def_cfa_offset 20
 4167              		.cfi_offset 4, -20
 4168              		.cfi_offset 5, -16
 4169              		.cfi_offset 6, -12
 4170              		.cfi_offset 7, -8
 4171              		.cfi_offset 14, -4
 4172 0002 C9B0     		sub	sp, sp, #292
 4173              		.cfi_def_cfa_offset 312
 4174 0004 1C46     		mov	r4, r3
1133:Middlewares/ST/BlueNRG-2/hci/controller/bluenrg1_gatt_aci.c ****   struct hci_request rq;
 4175              		.loc 1 1133 3 is_stmt 1 view .LVU1481
1134:Middlewares/ST/BlueNRG-2/hci/controller/bluenrg1_gatt_aci.c ****   uint8_t cmd_buffer[258];
 4176              		.loc 1 1134 3 view .LVU1482
1135:Middlewares/ST/BlueNRG-2/hci/controller/bluenrg1_gatt_aci.c ****   aci_gatt_write_long_char_desc_cp0 *cp0 = (aci_gatt_write_long_char_desc_cp0*)(cmd_buffer);
 4177              		.loc 1 1135 3 view .LVU1483
 4178              	.LVL456:
1136:Middlewares/ST/BlueNRG-2/hci/controller/bluenrg1_gatt_aci.c ****   tBleStatus status = 0;
 4179              		.loc 1 1136 3 view .LVU1484
 4180              		.loc 1 1136 14 is_stmt 0 view .LVU1485
 4181 0006 0DF10307 		add	r7, sp, #3
 4182 000a 0025     		movs	r5, #0
 4183 000c 8DF80350 		strb	r5, [sp, #3]
1137:Middlewares/ST/BlueNRG-2/hci/controller/bluenrg1_gatt_aci.c ****   uint8_t index_input = 0;
 4184              		.loc 1 1137 3 is_stmt 1 view .LVU1486
 4185              	.LVL457:
1138:Middlewares/ST/BlueNRG-2/hci/controller/bluenrg1_gatt_aci.c ****   cp0->Connection_Handle = htob(Connection_Handle, 2);
 4186              		.loc 1 1138 3 view .LVU1487
 4187              		.loc 1 1138 26 is_stmt 0 view .LVU1488
 4188 0010 01AE     		add	r6, sp, #4
 4189              	.LVL458:
 4190              		.loc 1 1138 26 view .LVU1489
 4191 0012 ADF80400 		strh	r0, [sp, #4]	@ movhi
1139:Middlewares/ST/BlueNRG-2/hci/controller/bluenrg1_gatt_aci.c ****   index_input += 2;
 4192              		.loc 1 1139 3 is_stmt 1 view .LVU1490
 4193              	.LVL459:
1140:Middlewares/ST/BlueNRG-2/hci/controller/bluenrg1_gatt_aci.c ****   cp0->Attr_Handle = htob(Attr_Handle, 2);
 4194              		.loc 1 1140 3 view .LVU1491
 4195              		.loc 1 1140 20 is_stmt 0 view .LVU1492
 4196 0016 ADF80610 		strh	r1, [sp, #6]	@ movhi
1141:Middlewares/ST/BlueNRG-2/hci/controller/bluenrg1_gatt_aci.c ****   index_input += 2;
 4197              		.loc 1 1141 3 is_stmt 1 view .LVU1493
 4198              	.LVL460:
1142:Middlewares/ST/BlueNRG-2/hci/controller/bluenrg1_gatt_aci.c ****   cp0->Val_Offset = htob(Val_Offset, 2);
 4199              		.loc 1 1142 3 view .LVU1494
 4200              		.loc 1 1142 19 is_stmt 0 view .LVU1495
 4201 001a ADF80820 		strh	r2, [sp, #8]	@ movhi
ARM GAS  C:\Users\IAHERN~1\AppData\Local\Temp\ccP26j2c.s 			page 95


1143:Middlewares/ST/BlueNRG-2/hci/controller/bluenrg1_gatt_aci.c ****   index_input += 2;
 4202              		.loc 1 1143 3 is_stmt 1 view .LVU1496
 4203              	.LVL461:
1144:Middlewares/ST/BlueNRG-2/hci/controller/bluenrg1_gatt_aci.c ****   cp0->Attribute_Val_Length = htob(Attribute_Val_Length, 1);
 4204              		.loc 1 1144 3 view .LVU1497
 4205              		.loc 1 1144 29 is_stmt 0 view .LVU1498
 4206 001e 8DF80A30 		strb	r3, [sp, #10]
1145:Middlewares/ST/BlueNRG-2/hci/controller/bluenrg1_gatt_aci.c ****   index_input += 1;
 4207              		.loc 1 1145 3 is_stmt 1 view .LVU1499
 4208              	.LVL462:
1146:Middlewares/ST/BlueNRG-2/hci/controller/bluenrg1_gatt_aci.c ****   /* var_len_data input */
1147:Middlewares/ST/BlueNRG-2/hci/controller/bluenrg1_gatt_aci.c ****   {
1148:Middlewares/ST/BlueNRG-2/hci/controller/bluenrg1_gatt_aci.c ****     BLUENRG_memcpy((void *) &cp0->Attribute_Val, (const void *) Attribute_Val, Attribute_Val_Length
 4209              		.loc 1 1148 5 view .LVU1500
 4210 0022 1A46     		mov	r2, r3
 4211              	.LVL463:
 4212              		.loc 1 1148 5 is_stmt 0 view .LVU1501
 4213 0024 4E99     		ldr	r1, [sp, #312]
 4214              	.LVL464:
 4215              		.loc 1 1148 5 view .LVU1502
 4216 0026 0DF10B00 		add	r0, sp, #11
 4217              	.LVL465:
 4218              		.loc 1 1148 5 view .LVU1503
 4219 002a FFF7FEFF 		bl	memcpy
 4220              	.LVL466:
1149:Middlewares/ST/BlueNRG-2/hci/controller/bluenrg1_gatt_aci.c ****     index_input += Attribute_Val_Length*sizeof(uint8_t);
 4221              		.loc 1 1149 5 is_stmt 1 view .LVU1504
 4222              		.loc 1 1149 17 is_stmt 0 view .LVU1505
 4223 002e 0734     		adds	r4, r4, #7
 4224              	.LVL467:
 4225              		.loc 1 1149 17 view .LVU1506
 4226 0030 E4B2     		uxtb	r4, r4
 4227              	.LVL468:
1150:Middlewares/ST/BlueNRG-2/hci/controller/bluenrg1_gatt_aci.c ****   }
1151:Middlewares/ST/BlueNRG-2/hci/controller/bluenrg1_gatt_aci.c ****   BLUENRG_memset(&rq, 0, sizeof(rq));
 4228              		.loc 1 1151 3 is_stmt 1 view .LVU1507
 4229 0032 4295     		str	r5, [sp, #264]
 4230 0034 4395     		str	r5, [sp, #268]
 4231 0036 4495     		str	r5, [sp, #272]
 4232 0038 4595     		str	r5, [sp, #276]
 4233 003a 4695     		str	r5, [sp, #280]
 4234 003c 4795     		str	r5, [sp, #284]
1152:Middlewares/ST/BlueNRG-2/hci/controller/bluenrg1_gatt_aci.c ****   rq.ogf = 0x3f;
 4235              		.loc 1 1152 3 view .LVU1508
 4236              		.loc 1 1152 10 is_stmt 0 view .LVU1509
 4237 003e 3F23     		movs	r3, #63
 4238 0040 ADF80831 		strh	r3, [sp, #264]	@ movhi
1153:Middlewares/ST/BlueNRG-2/hci/controller/bluenrg1_gatt_aci.c ****   rq.ocf = 0x11f;
 4239              		.loc 1 1153 3 is_stmt 1 view .LVU1510
 4240              		.loc 1 1153 10 is_stmt 0 view .LVU1511
 4241 0044 40F21F13 		movw	r3, #287
 4242 0048 ADF80A31 		strh	r3, [sp, #266]	@ movhi
1154:Middlewares/ST/BlueNRG-2/hci/controller/bluenrg1_gatt_aci.c ****   rq.event = 0x0F;
 4243              		.loc 1 1154 3 is_stmt 1 view .LVU1512
 4244              		.loc 1 1154 12 is_stmt 0 view .LVU1513
 4245 004c 0F23     		movs	r3, #15
 4246 004e 4393     		str	r3, [sp, #268]
ARM GAS  C:\Users\IAHERN~1\AppData\Local\Temp\ccP26j2c.s 			page 96


1155:Middlewares/ST/BlueNRG-2/hci/controller/bluenrg1_gatt_aci.c ****   rq.cparam = cmd_buffer;
 4247              		.loc 1 1155 3 is_stmt 1 view .LVU1514
 4248              		.loc 1 1155 13 is_stmt 0 view .LVU1515
 4249 0050 4496     		str	r6, [sp, #272]
1156:Middlewares/ST/BlueNRG-2/hci/controller/bluenrg1_gatt_aci.c ****   rq.clen = index_input;
 4250              		.loc 1 1156 3 is_stmt 1 view .LVU1516
 4251              		.loc 1 1156 11 is_stmt 0 view .LVU1517
 4252 0052 4594     		str	r4, [sp, #276]
1157:Middlewares/ST/BlueNRG-2/hci/controller/bluenrg1_gatt_aci.c ****   rq.rparam = &status;
 4253              		.loc 1 1157 3 is_stmt 1 view .LVU1518
 4254              		.loc 1 1157 13 is_stmt 0 view .LVU1519
 4255 0054 4697     		str	r7, [sp, #280]
1158:Middlewares/ST/BlueNRG-2/hci/controller/bluenrg1_gatt_aci.c ****   rq.rlen = 1;
 4256              		.loc 1 1158 3 is_stmt 1 view .LVU1520
 4257              		.loc 1 1158 11 is_stmt 0 view .LVU1521
 4258 0056 0123     		movs	r3, #1
 4259 0058 4793     		str	r3, [sp, #284]
1159:Middlewares/ST/BlueNRG-2/hci/controller/bluenrg1_gatt_aci.c ****   if (hci_send_req(&rq, FALSE) < 0)
 4260              		.loc 1 1159 3 is_stmt 1 view .LVU1522
 4261              		.loc 1 1159 7 is_stmt 0 view .LVU1523
 4262 005a 2946     		mov	r1, r5
 4263 005c 42A8     		add	r0, sp, #264
 4264 005e FFF7FEFF 		bl	hci_send_req
 4265              	.LVL469:
 4266              		.loc 1 1159 6 discriminator 1 view .LVU1524
 4267 0062 A842     		cmp	r0, r5
 4268 0064 03DB     		blt	.L168
1160:Middlewares/ST/BlueNRG-2/hci/controller/bluenrg1_gatt_aci.c ****     return BLE_STATUS_TIMEOUT;
1161:Middlewares/ST/BlueNRG-2/hci/controller/bluenrg1_gatt_aci.c ****   if (status) {
 4269              		.loc 1 1161 3 is_stmt 1 view .LVU1525
 4270              		.loc 1 1161 7 is_stmt 0 view .LVU1526
 4271 0066 9DF80300 		ldrb	r0, [sp, #3]	@ zero_extendqisi2
 4272              	.L167:
1162:Middlewares/ST/BlueNRG-2/hci/controller/bluenrg1_gatt_aci.c ****     return status;
1163:Middlewares/ST/BlueNRG-2/hci/controller/bluenrg1_gatt_aci.c ****   }
1164:Middlewares/ST/BlueNRG-2/hci/controller/bluenrg1_gatt_aci.c ****   return BLE_STATUS_SUCCESS;
1165:Middlewares/ST/BlueNRG-2/hci/controller/bluenrg1_gatt_aci.c **** }
 4273              		.loc 1 1165 1 view .LVU1527
 4274 006a 49B0     		add	sp, sp, #292
 4275              		.cfi_remember_state
 4276              		.cfi_def_cfa_offset 20
 4277              		@ sp needed
 4278 006c F0BD     		pop	{r4, r5, r6, r7, pc}
 4279              	.LVL470:
 4280              	.L168:
 4281              		.cfi_restore_state
1160:Middlewares/ST/BlueNRG-2/hci/controller/bluenrg1_gatt_aci.c ****     return BLE_STATUS_TIMEOUT;
 4282              		.loc 1 1160 12 view .LVU1528
 4283 006e FF20     		movs	r0, #255
 4284 0070 FBE7     		b	.L167
 4285              		.cfi_endproc
 4286              	.LFE167:
 4288              		.section	.text.aci_gatt_read_long_char_desc,"ax",%progbits
 4289              		.align	1
 4290              		.global	aci_gatt_read_long_char_desc
 4291              		.syntax unified
 4292              		.thumb
ARM GAS  C:\Users\IAHERN~1\AppData\Local\Temp\ccP26j2c.s 			page 97


 4293              		.thumb_func
 4295              	aci_gatt_read_long_char_desc:
 4296              	.LVL471:
 4297              	.LFB168:
1166:Middlewares/ST/BlueNRG-2/hci/controller/bluenrg1_gatt_aci.c **** tBleStatus aci_gatt_read_long_char_desc(uint16_t Connection_Handle,
1167:Middlewares/ST/BlueNRG-2/hci/controller/bluenrg1_gatt_aci.c ****                                         uint16_t Attr_Handle,
1168:Middlewares/ST/BlueNRG-2/hci/controller/bluenrg1_gatt_aci.c ****                                         uint16_t Val_Offset)
1169:Middlewares/ST/BlueNRG-2/hci/controller/bluenrg1_gatt_aci.c **** {
 4298              		.loc 1 1169 1 is_stmt 1 view -0
 4299              		.cfi_startproc
 4300              		@ args = 0, pretend = 0, frame = 288
 4301              		@ frame_needed = 0, uses_anonymous_args = 0
 4302              		.loc 1 1169 1 is_stmt 0 view .LVU1530
 4303 0000 30B5     		push	{r4, r5, lr}
 4304              		.cfi_def_cfa_offset 12
 4305              		.cfi_offset 4, -12
 4306              		.cfi_offset 5, -8
 4307              		.cfi_offset 14, -4
 4308 0002 C9B0     		sub	sp, sp, #292
 4309              		.cfi_def_cfa_offset 304
1170:Middlewares/ST/BlueNRG-2/hci/controller/bluenrg1_gatt_aci.c ****   struct hci_request rq;
 4310              		.loc 1 1170 3 is_stmt 1 view .LVU1531
1171:Middlewares/ST/BlueNRG-2/hci/controller/bluenrg1_gatt_aci.c ****   uint8_t cmd_buffer[258];
 4311              		.loc 1 1171 3 view .LVU1532
1172:Middlewares/ST/BlueNRG-2/hci/controller/bluenrg1_gatt_aci.c ****   aci_gatt_read_long_char_desc_cp0 *cp0 = (aci_gatt_read_long_char_desc_cp0*)(cmd_buffer);
 4312              		.loc 1 1172 3 view .LVU1533
 4313              	.LVL472:
1173:Middlewares/ST/BlueNRG-2/hci/controller/bluenrg1_gatt_aci.c ****   tBleStatus status = 0;
 4314              		.loc 1 1173 3 view .LVU1534
 4315              		.loc 1 1173 14 is_stmt 0 view .LVU1535
 4316 0004 0DF10305 		add	r5, sp, #3
 4317 0008 0023     		movs	r3, #0
 4318 000a 8DF80330 		strb	r3, [sp, #3]
1174:Middlewares/ST/BlueNRG-2/hci/controller/bluenrg1_gatt_aci.c ****   uint8_t index_input = 0;
 4319              		.loc 1 1174 3 is_stmt 1 view .LVU1536
 4320              	.LVL473:
1175:Middlewares/ST/BlueNRG-2/hci/controller/bluenrg1_gatt_aci.c ****   cp0->Connection_Handle = htob(Connection_Handle, 2);
 4321              		.loc 1 1175 3 view .LVU1537
 4322              		.loc 1 1175 26 is_stmt 0 view .LVU1538
 4323 000e 01AC     		add	r4, sp, #4
 4324              	.LVL474:
 4325              		.loc 1 1175 26 view .LVU1539
 4326 0010 ADF80400 		strh	r0, [sp, #4]	@ movhi
1176:Middlewares/ST/BlueNRG-2/hci/controller/bluenrg1_gatt_aci.c ****   index_input += 2;
 4327              		.loc 1 1176 3 is_stmt 1 view .LVU1540
 4328              	.LVL475:
1177:Middlewares/ST/BlueNRG-2/hci/controller/bluenrg1_gatt_aci.c ****   cp0->Attr_Handle = htob(Attr_Handle, 2);
 4329              		.loc 1 1177 3 view .LVU1541
 4330              		.loc 1 1177 20 is_stmt 0 view .LVU1542
 4331 0014 ADF80610 		strh	r1, [sp, #6]	@ movhi
1178:Middlewares/ST/BlueNRG-2/hci/controller/bluenrg1_gatt_aci.c ****   index_input += 2;
 4332              		.loc 1 1178 3 is_stmt 1 view .LVU1543
 4333              	.LVL476:
1179:Middlewares/ST/BlueNRG-2/hci/controller/bluenrg1_gatt_aci.c ****   cp0->Val_Offset = htob(Val_Offset, 2);
 4334              		.loc 1 1179 3 view .LVU1544
 4335              		.loc 1 1179 19 is_stmt 0 view .LVU1545
 4336 0018 ADF80820 		strh	r2, [sp, #8]	@ movhi
ARM GAS  C:\Users\IAHERN~1\AppData\Local\Temp\ccP26j2c.s 			page 98


1180:Middlewares/ST/BlueNRG-2/hci/controller/bluenrg1_gatt_aci.c ****   index_input += 2;
 4337              		.loc 1 1180 3 is_stmt 1 view .LVU1546
 4338              	.LVL477:
1181:Middlewares/ST/BlueNRG-2/hci/controller/bluenrg1_gatt_aci.c ****   BLUENRG_memset(&rq, 0, sizeof(rq));
 4339              		.loc 1 1181 3 view .LVU1547
 4340 001c 4293     		str	r3, [sp, #264]
 4341 001e 4393     		str	r3, [sp, #268]
 4342 0020 4493     		str	r3, [sp, #272]
 4343 0022 4593     		str	r3, [sp, #276]
 4344 0024 4693     		str	r3, [sp, #280]
 4345 0026 4793     		str	r3, [sp, #284]
1182:Middlewares/ST/BlueNRG-2/hci/controller/bluenrg1_gatt_aci.c ****   rq.ogf = 0x3f;
 4346              		.loc 1 1182 3 view .LVU1548
 4347              		.loc 1 1182 10 is_stmt 0 view .LVU1549
 4348 0028 3F22     		movs	r2, #63
 4349              	.LVL478:
 4350              		.loc 1 1182 10 view .LVU1550
 4351 002a ADF80821 		strh	r2, [sp, #264]	@ movhi
1183:Middlewares/ST/BlueNRG-2/hci/controller/bluenrg1_gatt_aci.c ****   rq.ocf = 0x120;
 4352              		.loc 1 1183 3 is_stmt 1 view .LVU1551
 4353              		.loc 1 1183 10 is_stmt 0 view .LVU1552
 4354 002e 4FF49072 		mov	r2, #288
 4355 0032 ADF80A21 		strh	r2, [sp, #266]	@ movhi
1184:Middlewares/ST/BlueNRG-2/hci/controller/bluenrg1_gatt_aci.c ****   rq.event = 0x0F;
 4356              		.loc 1 1184 3 is_stmt 1 view .LVU1553
 4357              		.loc 1 1184 12 is_stmt 0 view .LVU1554
 4358 0036 0F22     		movs	r2, #15
 4359 0038 4392     		str	r2, [sp, #268]
1185:Middlewares/ST/BlueNRG-2/hci/controller/bluenrg1_gatt_aci.c ****   rq.cparam = cmd_buffer;
 4360              		.loc 1 1185 3 is_stmt 1 view .LVU1555
 4361              		.loc 1 1185 13 is_stmt 0 view .LVU1556
 4362 003a 4494     		str	r4, [sp, #272]
1186:Middlewares/ST/BlueNRG-2/hci/controller/bluenrg1_gatt_aci.c ****   rq.clen = index_input;
 4363              		.loc 1 1186 3 is_stmt 1 view .LVU1557
 4364              		.loc 1 1186 11 is_stmt 0 view .LVU1558
 4365 003c 0622     		movs	r2, #6
 4366 003e 4592     		str	r2, [sp, #276]
1187:Middlewares/ST/BlueNRG-2/hci/controller/bluenrg1_gatt_aci.c ****   rq.rparam = &status;
 4367              		.loc 1 1187 3 is_stmt 1 view .LVU1559
 4368              		.loc 1 1187 13 is_stmt 0 view .LVU1560
 4369 0040 4695     		str	r5, [sp, #280]
1188:Middlewares/ST/BlueNRG-2/hci/controller/bluenrg1_gatt_aci.c ****   rq.rlen = 1;
 4370              		.loc 1 1188 3 is_stmt 1 view .LVU1561
 4371              		.loc 1 1188 11 is_stmt 0 view .LVU1562
 4372 0042 0122     		movs	r2, #1
 4373 0044 4792     		str	r2, [sp, #284]
1189:Middlewares/ST/BlueNRG-2/hci/controller/bluenrg1_gatt_aci.c ****   if (hci_send_req(&rq, FALSE) < 0)
 4374              		.loc 1 1189 3 is_stmt 1 view .LVU1563
 4375              		.loc 1 1189 7 is_stmt 0 view .LVU1564
 4376 0046 1946     		mov	r1, r3
 4377              	.LVL479:
 4378              		.loc 1 1189 7 view .LVU1565
 4379 0048 42A8     		add	r0, sp, #264
 4380              	.LVL480:
 4381              		.loc 1 1189 7 view .LVU1566
 4382 004a FFF7FEFF 		bl	hci_send_req
 4383              	.LVL481:
ARM GAS  C:\Users\IAHERN~1\AppData\Local\Temp\ccP26j2c.s 			page 99


 4384              		.loc 1 1189 6 discriminator 1 view .LVU1567
 4385 004e 0028     		cmp	r0, #0
 4386 0050 03DB     		blt	.L172
1190:Middlewares/ST/BlueNRG-2/hci/controller/bluenrg1_gatt_aci.c ****     return BLE_STATUS_TIMEOUT;
1191:Middlewares/ST/BlueNRG-2/hci/controller/bluenrg1_gatt_aci.c ****   if (status) {
 4387              		.loc 1 1191 3 is_stmt 1 view .LVU1568
 4388              		.loc 1 1191 7 is_stmt 0 view .LVU1569
 4389 0052 9DF80300 		ldrb	r0, [sp, #3]	@ zero_extendqisi2
 4390              	.L171:
1192:Middlewares/ST/BlueNRG-2/hci/controller/bluenrg1_gatt_aci.c ****     return status;
1193:Middlewares/ST/BlueNRG-2/hci/controller/bluenrg1_gatt_aci.c ****   }
1194:Middlewares/ST/BlueNRG-2/hci/controller/bluenrg1_gatt_aci.c ****   return BLE_STATUS_SUCCESS;
1195:Middlewares/ST/BlueNRG-2/hci/controller/bluenrg1_gatt_aci.c **** }
 4391              		.loc 1 1195 1 view .LVU1570
 4392 0056 49B0     		add	sp, sp, #292
 4393              		.cfi_remember_state
 4394              		.cfi_def_cfa_offset 12
 4395              		@ sp needed
 4396 0058 30BD     		pop	{r4, r5, pc}
 4397              	.LVL482:
 4398              	.L172:
 4399              		.cfi_restore_state
1190:Middlewares/ST/BlueNRG-2/hci/controller/bluenrg1_gatt_aci.c ****     return BLE_STATUS_TIMEOUT;
 4400              		.loc 1 1190 12 view .LVU1571
 4401 005a FF20     		movs	r0, #255
 4402 005c FBE7     		b	.L171
 4403              		.cfi_endproc
 4404              	.LFE168:
 4406              		.section	.text.aci_gatt_write_char_desc,"ax",%progbits
 4407              		.align	1
 4408              		.global	aci_gatt_write_char_desc
 4409              		.syntax unified
 4410              		.thumb
 4411              		.thumb_func
 4413              	aci_gatt_write_char_desc:
 4414              	.LVL483:
 4415              	.LFB169:
1196:Middlewares/ST/BlueNRG-2/hci/controller/bluenrg1_gatt_aci.c **** tBleStatus aci_gatt_write_char_desc(uint16_t Connection_Handle,
1197:Middlewares/ST/BlueNRG-2/hci/controller/bluenrg1_gatt_aci.c ****                                     uint16_t Attr_Handle,
1198:Middlewares/ST/BlueNRG-2/hci/controller/bluenrg1_gatt_aci.c ****                                     uint8_t Attribute_Val_Length,
1199:Middlewares/ST/BlueNRG-2/hci/controller/bluenrg1_gatt_aci.c ****                                     uint8_t Attribute_Val[])
1200:Middlewares/ST/BlueNRG-2/hci/controller/bluenrg1_gatt_aci.c **** {
 4416              		.loc 1 1200 1 is_stmt 1 view -0
 4417              		.cfi_startproc
 4418              		@ args = 0, pretend = 0, frame = 288
 4419              		@ frame_needed = 0, uses_anonymous_args = 0
 4420              		.loc 1 1200 1 is_stmt 0 view .LVU1573
 4421 0000 F0B5     		push	{r4, r5, r6, r7, lr}
 4422              		.cfi_def_cfa_offset 20
 4423              		.cfi_offset 4, -20
 4424              		.cfi_offset 5, -16
 4425              		.cfi_offset 6, -12
 4426              		.cfi_offset 7, -8
 4427              		.cfi_offset 14, -4
 4428 0002 C9B0     		sub	sp, sp, #292
 4429              		.cfi_def_cfa_offset 312
 4430 0004 1546     		mov	r5, r2
ARM GAS  C:\Users\IAHERN~1\AppData\Local\Temp\ccP26j2c.s 			page 100


1201:Middlewares/ST/BlueNRG-2/hci/controller/bluenrg1_gatt_aci.c ****   struct hci_request rq;
 4431              		.loc 1 1201 3 is_stmt 1 view .LVU1574
1202:Middlewares/ST/BlueNRG-2/hci/controller/bluenrg1_gatt_aci.c ****   uint8_t cmd_buffer[258];
 4432              		.loc 1 1202 3 view .LVU1575
1203:Middlewares/ST/BlueNRG-2/hci/controller/bluenrg1_gatt_aci.c ****   aci_gatt_write_char_desc_cp0 *cp0 = (aci_gatt_write_char_desc_cp0*)(cmd_buffer);
 4433              		.loc 1 1203 3 view .LVU1576
 4434              	.LVL484:
1204:Middlewares/ST/BlueNRG-2/hci/controller/bluenrg1_gatt_aci.c ****   tBleStatus status = 0;
 4435              		.loc 1 1204 3 view .LVU1577
 4436              		.loc 1 1204 14 is_stmt 0 view .LVU1578
 4437 0006 0DF10307 		add	r7, sp, #3
 4438 000a 0024     		movs	r4, #0
 4439 000c 8DF80340 		strb	r4, [sp, #3]
1205:Middlewares/ST/BlueNRG-2/hci/controller/bluenrg1_gatt_aci.c ****   uint8_t index_input = 0;
 4440              		.loc 1 1205 3 is_stmt 1 view .LVU1579
 4441              	.LVL485:
1206:Middlewares/ST/BlueNRG-2/hci/controller/bluenrg1_gatt_aci.c ****   cp0->Connection_Handle = htob(Connection_Handle, 2);
 4442              		.loc 1 1206 3 view .LVU1580
 4443              		.loc 1 1206 26 is_stmt 0 view .LVU1581
 4444 0010 01AE     		add	r6, sp, #4
 4445              	.LVL486:
 4446              		.loc 1 1206 26 view .LVU1582
 4447 0012 ADF80400 		strh	r0, [sp, #4]	@ movhi
1207:Middlewares/ST/BlueNRG-2/hci/controller/bluenrg1_gatt_aci.c ****   index_input += 2;
 4448              		.loc 1 1207 3 is_stmt 1 view .LVU1583
 4449              	.LVL487:
1208:Middlewares/ST/BlueNRG-2/hci/controller/bluenrg1_gatt_aci.c ****   cp0->Attr_Handle = htob(Attr_Handle, 2);
 4450              		.loc 1 1208 3 view .LVU1584
 4451              		.loc 1 1208 20 is_stmt 0 view .LVU1585
 4452 0016 ADF80610 		strh	r1, [sp, #6]	@ movhi
1209:Middlewares/ST/BlueNRG-2/hci/controller/bluenrg1_gatt_aci.c ****   index_input += 2;
 4453              		.loc 1 1209 3 is_stmt 1 view .LVU1586
 4454              	.LVL488:
1210:Middlewares/ST/BlueNRG-2/hci/controller/bluenrg1_gatt_aci.c ****   cp0->Attribute_Val_Length = htob(Attribute_Val_Length, 1);
 4455              		.loc 1 1210 3 view .LVU1587
 4456              		.loc 1 1210 29 is_stmt 0 view .LVU1588
 4457 001a 8DF80820 		strb	r2, [sp, #8]
1211:Middlewares/ST/BlueNRG-2/hci/controller/bluenrg1_gatt_aci.c ****   index_input += 1;
 4458              		.loc 1 1211 3 is_stmt 1 view .LVU1589
 4459              	.LVL489:
1212:Middlewares/ST/BlueNRG-2/hci/controller/bluenrg1_gatt_aci.c ****   /* var_len_data input */
1213:Middlewares/ST/BlueNRG-2/hci/controller/bluenrg1_gatt_aci.c ****   {
1214:Middlewares/ST/BlueNRG-2/hci/controller/bluenrg1_gatt_aci.c ****     BLUENRG_memcpy((void *) &cp0->Attribute_Val, (const void *) Attribute_Val, Attribute_Val_Length
 4460              		.loc 1 1214 5 view .LVU1590
 4461 001e 1946     		mov	r1, r3
 4462              	.LVL490:
 4463              		.loc 1 1214 5 is_stmt 0 view .LVU1591
 4464 0020 0DF10900 		add	r0, sp, #9
 4465              	.LVL491:
 4466              		.loc 1 1214 5 view .LVU1592
 4467 0024 FFF7FEFF 		bl	memcpy
 4468              	.LVL492:
1215:Middlewares/ST/BlueNRG-2/hci/controller/bluenrg1_gatt_aci.c ****     index_input += Attribute_Val_Length*sizeof(uint8_t);
 4469              		.loc 1 1215 5 is_stmt 1 view .LVU1593
 4470              		.loc 1 1215 17 is_stmt 0 view .LVU1594
 4471 0028 0535     		adds	r5, r5, #5
 4472              	.LVL493:
ARM GAS  C:\Users\IAHERN~1\AppData\Local\Temp\ccP26j2c.s 			page 101


 4473              		.loc 1 1215 17 view .LVU1595
 4474 002a EDB2     		uxtb	r5, r5
 4475              	.LVL494:
1216:Middlewares/ST/BlueNRG-2/hci/controller/bluenrg1_gatt_aci.c ****   }
1217:Middlewares/ST/BlueNRG-2/hci/controller/bluenrg1_gatt_aci.c ****   BLUENRG_memset(&rq, 0, sizeof(rq));
 4476              		.loc 1 1217 3 is_stmt 1 view .LVU1596
 4477 002c 4294     		str	r4, [sp, #264]
 4478 002e 4394     		str	r4, [sp, #268]
 4479 0030 4494     		str	r4, [sp, #272]
 4480 0032 4594     		str	r4, [sp, #276]
 4481 0034 4694     		str	r4, [sp, #280]
 4482 0036 4794     		str	r4, [sp, #284]
1218:Middlewares/ST/BlueNRG-2/hci/controller/bluenrg1_gatt_aci.c ****   rq.ogf = 0x3f;
 4483              		.loc 1 1218 3 view .LVU1597
 4484              		.loc 1 1218 10 is_stmt 0 view .LVU1598
 4485 0038 3F23     		movs	r3, #63
 4486 003a ADF80831 		strh	r3, [sp, #264]	@ movhi
1219:Middlewares/ST/BlueNRG-2/hci/controller/bluenrg1_gatt_aci.c ****   rq.ocf = 0x121;
 4487              		.loc 1 1219 3 is_stmt 1 view .LVU1599
 4488              		.loc 1 1219 10 is_stmt 0 view .LVU1600
 4489 003e 40F22113 		movw	r3, #289
 4490 0042 ADF80A31 		strh	r3, [sp, #266]	@ movhi
1220:Middlewares/ST/BlueNRG-2/hci/controller/bluenrg1_gatt_aci.c ****   rq.event = 0x0F;
 4491              		.loc 1 1220 3 is_stmt 1 view .LVU1601
 4492              		.loc 1 1220 12 is_stmt 0 view .LVU1602
 4493 0046 0F23     		movs	r3, #15
 4494 0048 4393     		str	r3, [sp, #268]
1221:Middlewares/ST/BlueNRG-2/hci/controller/bluenrg1_gatt_aci.c ****   rq.cparam = cmd_buffer;
 4495              		.loc 1 1221 3 is_stmt 1 view .LVU1603
 4496              		.loc 1 1221 13 is_stmt 0 view .LVU1604
 4497 004a 4496     		str	r6, [sp, #272]
1222:Middlewares/ST/BlueNRG-2/hci/controller/bluenrg1_gatt_aci.c ****   rq.clen = index_input;
 4498              		.loc 1 1222 3 is_stmt 1 view .LVU1605
 4499              		.loc 1 1222 11 is_stmt 0 view .LVU1606
 4500 004c 4595     		str	r5, [sp, #276]
1223:Middlewares/ST/BlueNRG-2/hci/controller/bluenrg1_gatt_aci.c ****   rq.rparam = &status;
 4501              		.loc 1 1223 3 is_stmt 1 view .LVU1607
 4502              		.loc 1 1223 13 is_stmt 0 view .LVU1608
 4503 004e 4697     		str	r7, [sp, #280]
1224:Middlewares/ST/BlueNRG-2/hci/controller/bluenrg1_gatt_aci.c ****   rq.rlen = 1;
 4504              		.loc 1 1224 3 is_stmt 1 view .LVU1609
 4505              		.loc 1 1224 11 is_stmt 0 view .LVU1610
 4506 0050 0123     		movs	r3, #1
 4507 0052 4793     		str	r3, [sp, #284]
1225:Middlewares/ST/BlueNRG-2/hci/controller/bluenrg1_gatt_aci.c ****   if (hci_send_req(&rq, FALSE) < 0)
 4508              		.loc 1 1225 3 is_stmt 1 view .LVU1611
 4509              		.loc 1 1225 7 is_stmt 0 view .LVU1612
 4510 0054 2146     		mov	r1, r4
 4511 0056 42A8     		add	r0, sp, #264
 4512 0058 FFF7FEFF 		bl	hci_send_req
 4513              	.LVL495:
 4514              		.loc 1 1225 6 discriminator 1 view .LVU1613
 4515 005c A042     		cmp	r0, r4
 4516 005e 03DB     		blt	.L176
1226:Middlewares/ST/BlueNRG-2/hci/controller/bluenrg1_gatt_aci.c ****     return BLE_STATUS_TIMEOUT;
1227:Middlewares/ST/BlueNRG-2/hci/controller/bluenrg1_gatt_aci.c ****   if (status) {
 4517              		.loc 1 1227 3 is_stmt 1 view .LVU1614
ARM GAS  C:\Users\IAHERN~1\AppData\Local\Temp\ccP26j2c.s 			page 102


 4518              		.loc 1 1227 7 is_stmt 0 view .LVU1615
 4519 0060 9DF80300 		ldrb	r0, [sp, #3]	@ zero_extendqisi2
 4520              	.L175:
1228:Middlewares/ST/BlueNRG-2/hci/controller/bluenrg1_gatt_aci.c ****     return status;
1229:Middlewares/ST/BlueNRG-2/hci/controller/bluenrg1_gatt_aci.c ****   }
1230:Middlewares/ST/BlueNRG-2/hci/controller/bluenrg1_gatt_aci.c ****   return BLE_STATUS_SUCCESS;
1231:Middlewares/ST/BlueNRG-2/hci/controller/bluenrg1_gatt_aci.c **** }
 4521              		.loc 1 1231 1 view .LVU1616
 4522 0064 49B0     		add	sp, sp, #292
 4523              		.cfi_remember_state
 4524              		.cfi_def_cfa_offset 20
 4525              		@ sp needed
 4526 0066 F0BD     		pop	{r4, r5, r6, r7, pc}
 4527              	.LVL496:
 4528              	.L176:
 4529              		.cfi_restore_state
1226:Middlewares/ST/BlueNRG-2/hci/controller/bluenrg1_gatt_aci.c ****     return BLE_STATUS_TIMEOUT;
 4530              		.loc 1 1226 12 view .LVU1617
 4531 0068 FF20     		movs	r0, #255
 4532 006a FBE7     		b	.L175
 4533              		.cfi_endproc
 4534              	.LFE169:
 4536              		.section	.text.aci_gatt_read_char_desc,"ax",%progbits
 4537              		.align	1
 4538              		.global	aci_gatt_read_char_desc
 4539              		.syntax unified
 4540              		.thumb
 4541              		.thumb_func
 4543              	aci_gatt_read_char_desc:
 4544              	.LVL497:
 4545              	.LFB170:
1232:Middlewares/ST/BlueNRG-2/hci/controller/bluenrg1_gatt_aci.c **** tBleStatus aci_gatt_read_char_desc(uint16_t Connection_Handle,
1233:Middlewares/ST/BlueNRG-2/hci/controller/bluenrg1_gatt_aci.c ****                                    uint16_t Attr_Handle)
1234:Middlewares/ST/BlueNRG-2/hci/controller/bluenrg1_gatt_aci.c **** {
 4546              		.loc 1 1234 1 is_stmt 1 view -0
 4547              		.cfi_startproc
 4548              		@ args = 0, pretend = 0, frame = 288
 4549              		@ frame_needed = 0, uses_anonymous_args = 0
 4550              		.loc 1 1234 1 is_stmt 0 view .LVU1619
 4551 0000 10B5     		push	{r4, lr}
 4552              		.cfi_def_cfa_offset 8
 4553              		.cfi_offset 4, -8
 4554              		.cfi_offset 14, -4
 4555 0002 C8B0     		sub	sp, sp, #288
 4556              		.cfi_def_cfa_offset 296
1235:Middlewares/ST/BlueNRG-2/hci/controller/bluenrg1_gatt_aci.c ****   struct hci_request rq;
 4557              		.loc 1 1235 3 is_stmt 1 view .LVU1620
1236:Middlewares/ST/BlueNRG-2/hci/controller/bluenrg1_gatt_aci.c ****   uint8_t cmd_buffer[258];
 4558              		.loc 1 1236 3 view .LVU1621
1237:Middlewares/ST/BlueNRG-2/hci/controller/bluenrg1_gatt_aci.c ****   aci_gatt_read_char_desc_cp0 *cp0 = (aci_gatt_read_char_desc_cp0*)(cmd_buffer);
 4559              		.loc 1 1237 3 view .LVU1622
 4560              	.LVL498:
1238:Middlewares/ST/BlueNRG-2/hci/controller/bluenrg1_gatt_aci.c ****   tBleStatus status = 0;
 4561              		.loc 1 1238 3 view .LVU1623
 4562              		.loc 1 1238 14 is_stmt 0 view .LVU1624
 4563 0004 0DF10304 		add	r4, sp, #3
 4564 0008 0023     		movs	r3, #0
ARM GAS  C:\Users\IAHERN~1\AppData\Local\Temp\ccP26j2c.s 			page 103


 4565 000a 8DF80330 		strb	r3, [sp, #3]
1239:Middlewares/ST/BlueNRG-2/hci/controller/bluenrg1_gatt_aci.c ****   uint8_t index_input = 0;
 4566              		.loc 1 1239 3 is_stmt 1 view .LVU1625
 4567              	.LVL499:
1240:Middlewares/ST/BlueNRG-2/hci/controller/bluenrg1_gatt_aci.c ****   cp0->Connection_Handle = htob(Connection_Handle, 2);
 4568              		.loc 1 1240 3 view .LVU1626
 4569              		.loc 1 1240 26 is_stmt 0 view .LVU1627
 4570 000e 01AA     		add	r2, sp, #4
 4571              	.LVL500:
 4572              		.loc 1 1240 26 view .LVU1628
 4573 0010 ADF80400 		strh	r0, [sp, #4]	@ movhi
1241:Middlewares/ST/BlueNRG-2/hci/controller/bluenrg1_gatt_aci.c ****   index_input += 2;
 4574              		.loc 1 1241 3 is_stmt 1 view .LVU1629
 4575              	.LVL501:
1242:Middlewares/ST/BlueNRG-2/hci/controller/bluenrg1_gatt_aci.c ****   cp0->Attr_Handle = htob(Attr_Handle, 2);
 4576              		.loc 1 1242 3 view .LVU1630
 4577              		.loc 1 1242 20 is_stmt 0 view .LVU1631
 4578 0014 ADF80610 		strh	r1, [sp, #6]	@ movhi
1243:Middlewares/ST/BlueNRG-2/hci/controller/bluenrg1_gatt_aci.c ****   index_input += 2;
 4579              		.loc 1 1243 3 is_stmt 1 view .LVU1632
 4580              	.LVL502:
1244:Middlewares/ST/BlueNRG-2/hci/controller/bluenrg1_gatt_aci.c ****   BLUENRG_memset(&rq, 0, sizeof(rq));
 4581              		.loc 1 1244 3 view .LVU1633
 4582 0018 4293     		str	r3, [sp, #264]
 4583 001a 4393     		str	r3, [sp, #268]
 4584 001c 4493     		str	r3, [sp, #272]
 4585 001e 4593     		str	r3, [sp, #276]
 4586 0020 4693     		str	r3, [sp, #280]
 4587 0022 4793     		str	r3, [sp, #284]
1245:Middlewares/ST/BlueNRG-2/hci/controller/bluenrg1_gatt_aci.c ****   rq.ogf = 0x3f;
 4588              		.loc 1 1245 3 view .LVU1634
 4589              		.loc 1 1245 10 is_stmt 0 view .LVU1635
 4590 0024 3F21     		movs	r1, #63
 4591              	.LVL503:
 4592              		.loc 1 1245 10 view .LVU1636
 4593 0026 ADF80811 		strh	r1, [sp, #264]	@ movhi
1246:Middlewares/ST/BlueNRG-2/hci/controller/bluenrg1_gatt_aci.c ****   rq.ocf = 0x122;
 4594              		.loc 1 1246 3 is_stmt 1 view .LVU1637
 4595              		.loc 1 1246 10 is_stmt 0 view .LVU1638
 4596 002a 4FF49171 		mov	r1, #290
 4597 002e ADF80A11 		strh	r1, [sp, #266]	@ movhi
1247:Middlewares/ST/BlueNRG-2/hci/controller/bluenrg1_gatt_aci.c ****   rq.event = 0x0F;
 4598              		.loc 1 1247 3 is_stmt 1 view .LVU1639
 4599              		.loc 1 1247 12 is_stmt 0 view .LVU1640
 4600 0032 0F21     		movs	r1, #15
 4601 0034 4391     		str	r1, [sp, #268]
1248:Middlewares/ST/BlueNRG-2/hci/controller/bluenrg1_gatt_aci.c ****   rq.cparam = cmd_buffer;
 4602              		.loc 1 1248 3 is_stmt 1 view .LVU1641
 4603              		.loc 1 1248 13 is_stmt 0 view .LVU1642
 4604 0036 4492     		str	r2, [sp, #272]
1249:Middlewares/ST/BlueNRG-2/hci/controller/bluenrg1_gatt_aci.c ****   rq.clen = index_input;
 4605              		.loc 1 1249 3 is_stmt 1 view .LVU1643
 4606              		.loc 1 1249 11 is_stmt 0 view .LVU1644
 4607 0038 0422     		movs	r2, #4
 4608              	.LVL504:
 4609              		.loc 1 1249 11 view .LVU1645
 4610 003a 4592     		str	r2, [sp, #276]
ARM GAS  C:\Users\IAHERN~1\AppData\Local\Temp\ccP26j2c.s 			page 104


1250:Middlewares/ST/BlueNRG-2/hci/controller/bluenrg1_gatt_aci.c ****   rq.rparam = &status;
 4611              		.loc 1 1250 3 is_stmt 1 view .LVU1646
 4612              		.loc 1 1250 13 is_stmt 0 view .LVU1647
 4613 003c 4694     		str	r4, [sp, #280]
1251:Middlewares/ST/BlueNRG-2/hci/controller/bluenrg1_gatt_aci.c ****   rq.rlen = 1;
 4614              		.loc 1 1251 3 is_stmt 1 view .LVU1648
 4615              		.loc 1 1251 11 is_stmt 0 view .LVU1649
 4616 003e 0122     		movs	r2, #1
 4617 0040 4792     		str	r2, [sp, #284]
1252:Middlewares/ST/BlueNRG-2/hci/controller/bluenrg1_gatt_aci.c ****   if (hci_send_req(&rq, FALSE) < 0)
 4618              		.loc 1 1252 3 is_stmt 1 view .LVU1650
 4619              		.loc 1 1252 7 is_stmt 0 view .LVU1651
 4620 0042 1946     		mov	r1, r3
 4621 0044 42A8     		add	r0, sp, #264
 4622              	.LVL505:
 4623              		.loc 1 1252 7 view .LVU1652
 4624 0046 FFF7FEFF 		bl	hci_send_req
 4625              	.LVL506:
 4626              		.loc 1 1252 6 discriminator 1 view .LVU1653
 4627 004a 0028     		cmp	r0, #0
 4628 004c 03DB     		blt	.L180
1253:Middlewares/ST/BlueNRG-2/hci/controller/bluenrg1_gatt_aci.c ****     return BLE_STATUS_TIMEOUT;
1254:Middlewares/ST/BlueNRG-2/hci/controller/bluenrg1_gatt_aci.c ****   if (status) {
 4629              		.loc 1 1254 3 is_stmt 1 view .LVU1654
 4630              		.loc 1 1254 7 is_stmt 0 view .LVU1655
 4631 004e 9DF80300 		ldrb	r0, [sp, #3]	@ zero_extendqisi2
 4632              	.L179:
1255:Middlewares/ST/BlueNRG-2/hci/controller/bluenrg1_gatt_aci.c ****     return status;
1256:Middlewares/ST/BlueNRG-2/hci/controller/bluenrg1_gatt_aci.c ****   }
1257:Middlewares/ST/BlueNRG-2/hci/controller/bluenrg1_gatt_aci.c ****   return BLE_STATUS_SUCCESS;
1258:Middlewares/ST/BlueNRG-2/hci/controller/bluenrg1_gatt_aci.c **** }
 4633              		.loc 1 1258 1 view .LVU1656
 4634 0052 48B0     		add	sp, sp, #288
 4635              		.cfi_remember_state
 4636              		.cfi_def_cfa_offset 8
 4637              		@ sp needed
 4638 0054 10BD     		pop	{r4, pc}
 4639              	.LVL507:
 4640              	.L180:
 4641              		.cfi_restore_state
1253:Middlewares/ST/BlueNRG-2/hci/controller/bluenrg1_gatt_aci.c ****     return BLE_STATUS_TIMEOUT;
 4642              		.loc 1 1253 12 view .LVU1657
 4643 0056 FF20     		movs	r0, #255
 4644 0058 FBE7     		b	.L179
 4645              		.cfi_endproc
 4646              	.LFE170:
 4648              		.section	.text.aci_gatt_write_without_resp,"ax",%progbits
 4649              		.align	1
 4650              		.global	aci_gatt_write_without_resp
 4651              		.syntax unified
 4652              		.thumb
 4653              		.thumb_func
 4655              	aci_gatt_write_without_resp:
 4656              	.LVL508:
 4657              	.LFB171:
1259:Middlewares/ST/BlueNRG-2/hci/controller/bluenrg1_gatt_aci.c **** tBleStatus aci_gatt_write_without_resp(uint16_t Connection_Handle,
1260:Middlewares/ST/BlueNRG-2/hci/controller/bluenrg1_gatt_aci.c ****                                        uint16_t Attr_Handle,
ARM GAS  C:\Users\IAHERN~1\AppData\Local\Temp\ccP26j2c.s 			page 105


1261:Middlewares/ST/BlueNRG-2/hci/controller/bluenrg1_gatt_aci.c ****                                        uint8_t Attribute_Val_Length,
1262:Middlewares/ST/BlueNRG-2/hci/controller/bluenrg1_gatt_aci.c ****                                        uint8_t Attribute_Val[])
1263:Middlewares/ST/BlueNRG-2/hci/controller/bluenrg1_gatt_aci.c **** {
 4658              		.loc 1 1263 1 is_stmt 1 view -0
 4659              		.cfi_startproc
 4660              		@ args = 0, pretend = 0, frame = 288
 4661              		@ frame_needed = 0, uses_anonymous_args = 0
 4662              		.loc 1 1263 1 is_stmt 0 view .LVU1659
 4663 0000 F0B5     		push	{r4, r5, r6, r7, lr}
 4664              		.cfi_def_cfa_offset 20
 4665              		.cfi_offset 4, -20
 4666              		.cfi_offset 5, -16
 4667              		.cfi_offset 6, -12
 4668              		.cfi_offset 7, -8
 4669              		.cfi_offset 14, -4
 4670 0002 C9B0     		sub	sp, sp, #292
 4671              		.cfi_def_cfa_offset 312
 4672 0004 1546     		mov	r5, r2
1264:Middlewares/ST/BlueNRG-2/hci/controller/bluenrg1_gatt_aci.c ****   struct hci_request rq;
 4673              		.loc 1 1264 3 is_stmt 1 view .LVU1660
1265:Middlewares/ST/BlueNRG-2/hci/controller/bluenrg1_gatt_aci.c ****   uint8_t cmd_buffer[258];
 4674              		.loc 1 1265 3 view .LVU1661
1266:Middlewares/ST/BlueNRG-2/hci/controller/bluenrg1_gatt_aci.c ****   aci_gatt_write_without_resp_cp0 *cp0 = (aci_gatt_write_without_resp_cp0*)(cmd_buffer);
 4675              		.loc 1 1266 3 view .LVU1662
 4676              	.LVL509:
1267:Middlewares/ST/BlueNRG-2/hci/controller/bluenrg1_gatt_aci.c ****   tBleStatus status = 0;
 4677              		.loc 1 1267 3 view .LVU1663
 4678              		.loc 1 1267 14 is_stmt 0 view .LVU1664
 4679 0006 0DF10307 		add	r7, sp, #3
 4680 000a 0024     		movs	r4, #0
 4681 000c 8DF80340 		strb	r4, [sp, #3]
1268:Middlewares/ST/BlueNRG-2/hci/controller/bluenrg1_gatt_aci.c ****   uint8_t index_input = 0;
 4682              		.loc 1 1268 3 is_stmt 1 view .LVU1665
 4683              	.LVL510:
1269:Middlewares/ST/BlueNRG-2/hci/controller/bluenrg1_gatt_aci.c ****   cp0->Connection_Handle = htob(Connection_Handle, 2);
 4684              		.loc 1 1269 3 view .LVU1666
 4685              		.loc 1 1269 26 is_stmt 0 view .LVU1667
 4686 0010 01AE     		add	r6, sp, #4
 4687              	.LVL511:
 4688              		.loc 1 1269 26 view .LVU1668
 4689 0012 ADF80400 		strh	r0, [sp, #4]	@ movhi
1270:Middlewares/ST/BlueNRG-2/hci/controller/bluenrg1_gatt_aci.c ****   index_input += 2;
 4690              		.loc 1 1270 3 is_stmt 1 view .LVU1669
 4691              	.LVL512:
1271:Middlewares/ST/BlueNRG-2/hci/controller/bluenrg1_gatt_aci.c ****   cp0->Attr_Handle = htob(Attr_Handle, 2);
 4692              		.loc 1 1271 3 view .LVU1670
 4693              		.loc 1 1271 20 is_stmt 0 view .LVU1671
 4694 0016 ADF80610 		strh	r1, [sp, #6]	@ movhi
1272:Middlewares/ST/BlueNRG-2/hci/controller/bluenrg1_gatt_aci.c ****   index_input += 2;
 4695              		.loc 1 1272 3 is_stmt 1 view .LVU1672
 4696              	.LVL513:
1273:Middlewares/ST/BlueNRG-2/hci/controller/bluenrg1_gatt_aci.c ****   cp0->Attribute_Val_Length = htob(Attribute_Val_Length, 1);
 4697              		.loc 1 1273 3 view .LVU1673
 4698              		.loc 1 1273 29 is_stmt 0 view .LVU1674
 4699 001a 8DF80820 		strb	r2, [sp, #8]
1274:Middlewares/ST/BlueNRG-2/hci/controller/bluenrg1_gatt_aci.c ****   index_input += 1;
 4700              		.loc 1 1274 3 is_stmt 1 view .LVU1675
ARM GAS  C:\Users\IAHERN~1\AppData\Local\Temp\ccP26j2c.s 			page 106


 4701              	.LVL514:
1275:Middlewares/ST/BlueNRG-2/hci/controller/bluenrg1_gatt_aci.c ****   /* var_len_data input */
1276:Middlewares/ST/BlueNRG-2/hci/controller/bluenrg1_gatt_aci.c ****   {
1277:Middlewares/ST/BlueNRG-2/hci/controller/bluenrg1_gatt_aci.c ****     BLUENRG_memcpy((void *) &cp0->Attribute_Val, (const void *) Attribute_Val, Attribute_Val_Length
 4702              		.loc 1 1277 5 view .LVU1676
 4703 001e 1946     		mov	r1, r3
 4704              	.LVL515:
 4705              		.loc 1 1277 5 is_stmt 0 view .LVU1677
 4706 0020 0DF10900 		add	r0, sp, #9
 4707              	.LVL516:
 4708              		.loc 1 1277 5 view .LVU1678
 4709 0024 FFF7FEFF 		bl	memcpy
 4710              	.LVL517:
1278:Middlewares/ST/BlueNRG-2/hci/controller/bluenrg1_gatt_aci.c ****     index_input += Attribute_Val_Length*sizeof(uint8_t);
 4711              		.loc 1 1278 5 is_stmt 1 view .LVU1679
 4712              		.loc 1 1278 17 is_stmt 0 view .LVU1680
 4713 0028 0535     		adds	r5, r5, #5
 4714              	.LVL518:
 4715              		.loc 1 1278 17 view .LVU1681
 4716 002a EDB2     		uxtb	r5, r5
 4717              	.LVL519:
1279:Middlewares/ST/BlueNRG-2/hci/controller/bluenrg1_gatt_aci.c ****   }
1280:Middlewares/ST/BlueNRG-2/hci/controller/bluenrg1_gatt_aci.c ****   BLUENRG_memset(&rq, 0, sizeof(rq));
 4718              		.loc 1 1280 3 is_stmt 1 view .LVU1682
 4719 002c 4294     		str	r4, [sp, #264]
 4720 002e 4394     		str	r4, [sp, #268]
 4721 0030 4494     		str	r4, [sp, #272]
 4722 0032 4594     		str	r4, [sp, #276]
 4723 0034 4694     		str	r4, [sp, #280]
 4724 0036 4794     		str	r4, [sp, #284]
1281:Middlewares/ST/BlueNRG-2/hci/controller/bluenrg1_gatt_aci.c ****   rq.ogf = 0x3f;
 4725              		.loc 1 1281 3 view .LVU1683
 4726              		.loc 1 1281 10 is_stmt 0 view .LVU1684
 4727 0038 3F23     		movs	r3, #63
 4728 003a ADF80831 		strh	r3, [sp, #264]	@ movhi
1282:Middlewares/ST/BlueNRG-2/hci/controller/bluenrg1_gatt_aci.c ****   rq.ocf = 0x123;
 4729              		.loc 1 1282 3 is_stmt 1 view .LVU1685
 4730              		.loc 1 1282 10 is_stmt 0 view .LVU1686
 4731 003e 40F22313 		movw	r3, #291
 4732 0042 ADF80A31 		strh	r3, [sp, #266]	@ movhi
1283:Middlewares/ST/BlueNRG-2/hci/controller/bluenrg1_gatt_aci.c ****   rq.cparam = cmd_buffer;
 4733              		.loc 1 1283 3 is_stmt 1 view .LVU1687
 4734              		.loc 1 1283 13 is_stmt 0 view .LVU1688
 4735 0046 4496     		str	r6, [sp, #272]
1284:Middlewares/ST/BlueNRG-2/hci/controller/bluenrg1_gatt_aci.c ****   rq.clen = index_input;
 4736              		.loc 1 1284 3 is_stmt 1 view .LVU1689
 4737              		.loc 1 1284 11 is_stmt 0 view .LVU1690
 4738 0048 4595     		str	r5, [sp, #276]
1285:Middlewares/ST/BlueNRG-2/hci/controller/bluenrg1_gatt_aci.c ****   rq.rparam = &status;
 4739              		.loc 1 1285 3 is_stmt 1 view .LVU1691
 4740              		.loc 1 1285 13 is_stmt 0 view .LVU1692
 4741 004a 4697     		str	r7, [sp, #280]
1286:Middlewares/ST/BlueNRG-2/hci/controller/bluenrg1_gatt_aci.c ****   rq.rlen = 1;
 4742              		.loc 1 1286 3 is_stmt 1 view .LVU1693
 4743              		.loc 1 1286 11 is_stmt 0 view .LVU1694
 4744 004c 0123     		movs	r3, #1
 4745 004e 4793     		str	r3, [sp, #284]
ARM GAS  C:\Users\IAHERN~1\AppData\Local\Temp\ccP26j2c.s 			page 107


1287:Middlewares/ST/BlueNRG-2/hci/controller/bluenrg1_gatt_aci.c ****   if (hci_send_req(&rq, FALSE) < 0)
 4746              		.loc 1 1287 3 is_stmt 1 view .LVU1695
 4747              		.loc 1 1287 7 is_stmt 0 view .LVU1696
 4748 0050 2146     		mov	r1, r4
 4749 0052 42A8     		add	r0, sp, #264
 4750 0054 FFF7FEFF 		bl	hci_send_req
 4751              	.LVL520:
 4752              		.loc 1 1287 6 discriminator 1 view .LVU1697
 4753 0058 A042     		cmp	r0, r4
 4754 005a 03DB     		blt	.L184
1288:Middlewares/ST/BlueNRG-2/hci/controller/bluenrg1_gatt_aci.c ****     return BLE_STATUS_TIMEOUT;
1289:Middlewares/ST/BlueNRG-2/hci/controller/bluenrg1_gatt_aci.c ****   if (status) {
 4755              		.loc 1 1289 3 is_stmt 1 view .LVU1698
 4756              		.loc 1 1289 7 is_stmt 0 view .LVU1699
 4757 005c 9DF80300 		ldrb	r0, [sp, #3]	@ zero_extendqisi2
 4758              	.L183:
1290:Middlewares/ST/BlueNRG-2/hci/controller/bluenrg1_gatt_aci.c ****     return status;
1291:Middlewares/ST/BlueNRG-2/hci/controller/bluenrg1_gatt_aci.c ****   }
1292:Middlewares/ST/BlueNRG-2/hci/controller/bluenrg1_gatt_aci.c ****   return BLE_STATUS_SUCCESS;
1293:Middlewares/ST/BlueNRG-2/hci/controller/bluenrg1_gatt_aci.c **** }
 4759              		.loc 1 1293 1 view .LVU1700
 4760 0060 49B0     		add	sp, sp, #292
 4761              		.cfi_remember_state
 4762              		.cfi_def_cfa_offset 20
 4763              		@ sp needed
 4764 0062 F0BD     		pop	{r4, r5, r6, r7, pc}
 4765              	.LVL521:
 4766              	.L184:
 4767              		.cfi_restore_state
1288:Middlewares/ST/BlueNRG-2/hci/controller/bluenrg1_gatt_aci.c ****     return BLE_STATUS_TIMEOUT;
 4768              		.loc 1 1288 12 view .LVU1701
 4769 0064 FF20     		movs	r0, #255
 4770 0066 FBE7     		b	.L183
 4771              		.cfi_endproc
 4772              	.LFE171:
 4774              		.section	.text.aci_gatt_signed_write_without_resp,"ax",%progbits
 4775              		.align	1
 4776              		.global	aci_gatt_signed_write_without_resp
 4777              		.syntax unified
 4778              		.thumb
 4779              		.thumb_func
 4781              	aci_gatt_signed_write_without_resp:
 4782              	.LVL522:
 4783              	.LFB172:
1294:Middlewares/ST/BlueNRG-2/hci/controller/bluenrg1_gatt_aci.c **** tBleStatus aci_gatt_signed_write_without_resp(uint16_t Connection_Handle,
1295:Middlewares/ST/BlueNRG-2/hci/controller/bluenrg1_gatt_aci.c ****                                               uint16_t Attr_Handle,
1296:Middlewares/ST/BlueNRG-2/hci/controller/bluenrg1_gatt_aci.c ****                                               uint8_t Attribute_Val_Length,
1297:Middlewares/ST/BlueNRG-2/hci/controller/bluenrg1_gatt_aci.c ****                                               uint8_t Attribute_Val[])
1298:Middlewares/ST/BlueNRG-2/hci/controller/bluenrg1_gatt_aci.c **** {
 4784              		.loc 1 1298 1 is_stmt 1 view -0
 4785              		.cfi_startproc
 4786              		@ args = 0, pretend = 0, frame = 288
 4787              		@ frame_needed = 0, uses_anonymous_args = 0
 4788              		.loc 1 1298 1 is_stmt 0 view .LVU1703
 4789 0000 F0B5     		push	{r4, r5, r6, r7, lr}
 4790              		.cfi_def_cfa_offset 20
 4791              		.cfi_offset 4, -20
ARM GAS  C:\Users\IAHERN~1\AppData\Local\Temp\ccP26j2c.s 			page 108


 4792              		.cfi_offset 5, -16
 4793              		.cfi_offset 6, -12
 4794              		.cfi_offset 7, -8
 4795              		.cfi_offset 14, -4
 4796 0002 C9B0     		sub	sp, sp, #292
 4797              		.cfi_def_cfa_offset 312
 4798 0004 1546     		mov	r5, r2
1299:Middlewares/ST/BlueNRG-2/hci/controller/bluenrg1_gatt_aci.c ****   struct hci_request rq;
 4799              		.loc 1 1299 3 is_stmt 1 view .LVU1704
1300:Middlewares/ST/BlueNRG-2/hci/controller/bluenrg1_gatt_aci.c ****   uint8_t cmd_buffer[258];
 4800              		.loc 1 1300 3 view .LVU1705
1301:Middlewares/ST/BlueNRG-2/hci/controller/bluenrg1_gatt_aci.c ****   aci_gatt_signed_write_without_resp_cp0 *cp0 = (aci_gatt_signed_write_without_resp_cp0*)(cmd_buffe
 4801              		.loc 1 1301 3 view .LVU1706
 4802              	.LVL523:
1302:Middlewares/ST/BlueNRG-2/hci/controller/bluenrg1_gatt_aci.c ****   tBleStatus status = 0;
 4803              		.loc 1 1302 3 view .LVU1707
 4804              		.loc 1 1302 14 is_stmt 0 view .LVU1708
 4805 0006 0DF10307 		add	r7, sp, #3
 4806 000a 0024     		movs	r4, #0
 4807 000c 8DF80340 		strb	r4, [sp, #3]
1303:Middlewares/ST/BlueNRG-2/hci/controller/bluenrg1_gatt_aci.c ****   uint8_t index_input = 0;
 4808              		.loc 1 1303 3 is_stmt 1 view .LVU1709
 4809              	.LVL524:
1304:Middlewares/ST/BlueNRG-2/hci/controller/bluenrg1_gatt_aci.c ****   cp0->Connection_Handle = htob(Connection_Handle, 2);
 4810              		.loc 1 1304 3 view .LVU1710
 4811              		.loc 1 1304 26 is_stmt 0 view .LVU1711
 4812 0010 01AE     		add	r6, sp, #4
 4813              	.LVL525:
 4814              		.loc 1 1304 26 view .LVU1712
 4815 0012 ADF80400 		strh	r0, [sp, #4]	@ movhi
1305:Middlewares/ST/BlueNRG-2/hci/controller/bluenrg1_gatt_aci.c ****   index_input += 2;
 4816              		.loc 1 1305 3 is_stmt 1 view .LVU1713
 4817              	.LVL526:
1306:Middlewares/ST/BlueNRG-2/hci/controller/bluenrg1_gatt_aci.c ****   cp0->Attr_Handle = htob(Attr_Handle, 2);
 4818              		.loc 1 1306 3 view .LVU1714
 4819              		.loc 1 1306 20 is_stmt 0 view .LVU1715
 4820 0016 ADF80610 		strh	r1, [sp, #6]	@ movhi
1307:Middlewares/ST/BlueNRG-2/hci/controller/bluenrg1_gatt_aci.c ****   index_input += 2;
 4821              		.loc 1 1307 3 is_stmt 1 view .LVU1716
 4822              	.LVL527:
1308:Middlewares/ST/BlueNRG-2/hci/controller/bluenrg1_gatt_aci.c ****   cp0->Attribute_Val_Length = htob(Attribute_Val_Length, 1);
 4823              		.loc 1 1308 3 view .LVU1717
 4824              		.loc 1 1308 29 is_stmt 0 view .LVU1718
 4825 001a 8DF80820 		strb	r2, [sp, #8]
1309:Middlewares/ST/BlueNRG-2/hci/controller/bluenrg1_gatt_aci.c ****   index_input += 1;
 4826              		.loc 1 1309 3 is_stmt 1 view .LVU1719
 4827              	.LVL528:
1310:Middlewares/ST/BlueNRG-2/hci/controller/bluenrg1_gatt_aci.c ****   /* var_len_data input */
1311:Middlewares/ST/BlueNRG-2/hci/controller/bluenrg1_gatt_aci.c ****   {
1312:Middlewares/ST/BlueNRG-2/hci/controller/bluenrg1_gatt_aci.c ****     BLUENRG_memcpy((void *) &cp0->Attribute_Val, (const void *) Attribute_Val, Attribute_Val_Length
 4828              		.loc 1 1312 5 view .LVU1720
 4829 001e 1946     		mov	r1, r3
 4830              	.LVL529:
 4831              		.loc 1 1312 5 is_stmt 0 view .LVU1721
 4832 0020 0DF10900 		add	r0, sp, #9
 4833              	.LVL530:
 4834              		.loc 1 1312 5 view .LVU1722
ARM GAS  C:\Users\IAHERN~1\AppData\Local\Temp\ccP26j2c.s 			page 109


 4835 0024 FFF7FEFF 		bl	memcpy
 4836              	.LVL531:
1313:Middlewares/ST/BlueNRG-2/hci/controller/bluenrg1_gatt_aci.c ****     index_input += Attribute_Val_Length*sizeof(uint8_t);
 4837              		.loc 1 1313 5 is_stmt 1 view .LVU1723
 4838              		.loc 1 1313 17 is_stmt 0 view .LVU1724
 4839 0028 0535     		adds	r5, r5, #5
 4840              	.LVL532:
 4841              		.loc 1 1313 17 view .LVU1725
 4842 002a EDB2     		uxtb	r5, r5
 4843              	.LVL533:
1314:Middlewares/ST/BlueNRG-2/hci/controller/bluenrg1_gatt_aci.c ****   }
1315:Middlewares/ST/BlueNRG-2/hci/controller/bluenrg1_gatt_aci.c ****   BLUENRG_memset(&rq, 0, sizeof(rq));
 4844              		.loc 1 1315 3 is_stmt 1 view .LVU1726
 4845 002c 4294     		str	r4, [sp, #264]
 4846 002e 4394     		str	r4, [sp, #268]
 4847 0030 4494     		str	r4, [sp, #272]
 4848 0032 4594     		str	r4, [sp, #276]
 4849 0034 4694     		str	r4, [sp, #280]
 4850 0036 4794     		str	r4, [sp, #284]
1316:Middlewares/ST/BlueNRG-2/hci/controller/bluenrg1_gatt_aci.c ****   rq.ogf = 0x3f;
 4851              		.loc 1 1316 3 view .LVU1727
 4852              		.loc 1 1316 10 is_stmt 0 view .LVU1728
 4853 0038 3F23     		movs	r3, #63
 4854 003a ADF80831 		strh	r3, [sp, #264]	@ movhi
1317:Middlewares/ST/BlueNRG-2/hci/controller/bluenrg1_gatt_aci.c ****   rq.ocf = 0x124;
 4855              		.loc 1 1317 3 is_stmt 1 view .LVU1729
 4856              		.loc 1 1317 10 is_stmt 0 view .LVU1730
 4857 003e 4FF49273 		mov	r3, #292
 4858 0042 ADF80A31 		strh	r3, [sp, #266]	@ movhi
1318:Middlewares/ST/BlueNRG-2/hci/controller/bluenrg1_gatt_aci.c ****   rq.cparam = cmd_buffer;
 4859              		.loc 1 1318 3 is_stmt 1 view .LVU1731
 4860              		.loc 1 1318 13 is_stmt 0 view .LVU1732
 4861 0046 4496     		str	r6, [sp, #272]
1319:Middlewares/ST/BlueNRG-2/hci/controller/bluenrg1_gatt_aci.c ****   rq.clen = index_input;
 4862              		.loc 1 1319 3 is_stmt 1 view .LVU1733
 4863              		.loc 1 1319 11 is_stmt 0 view .LVU1734
 4864 0048 4595     		str	r5, [sp, #276]
1320:Middlewares/ST/BlueNRG-2/hci/controller/bluenrg1_gatt_aci.c ****   rq.rparam = &status;
 4865              		.loc 1 1320 3 is_stmt 1 view .LVU1735
 4866              		.loc 1 1320 13 is_stmt 0 view .LVU1736
 4867 004a 4697     		str	r7, [sp, #280]
1321:Middlewares/ST/BlueNRG-2/hci/controller/bluenrg1_gatt_aci.c ****   rq.rlen = 1;
 4868              		.loc 1 1321 3 is_stmt 1 view .LVU1737
 4869              		.loc 1 1321 11 is_stmt 0 view .LVU1738
 4870 004c 0123     		movs	r3, #1
 4871 004e 4793     		str	r3, [sp, #284]
1322:Middlewares/ST/BlueNRG-2/hci/controller/bluenrg1_gatt_aci.c ****   if (hci_send_req(&rq, FALSE) < 0)
 4872              		.loc 1 1322 3 is_stmt 1 view .LVU1739
 4873              		.loc 1 1322 7 is_stmt 0 view .LVU1740
 4874 0050 2146     		mov	r1, r4
 4875 0052 42A8     		add	r0, sp, #264
 4876 0054 FFF7FEFF 		bl	hci_send_req
 4877              	.LVL534:
 4878              		.loc 1 1322 6 discriminator 1 view .LVU1741
 4879 0058 A042     		cmp	r0, r4
 4880 005a 03DB     		blt	.L188
1323:Middlewares/ST/BlueNRG-2/hci/controller/bluenrg1_gatt_aci.c ****     return BLE_STATUS_TIMEOUT;
ARM GAS  C:\Users\IAHERN~1\AppData\Local\Temp\ccP26j2c.s 			page 110


1324:Middlewares/ST/BlueNRG-2/hci/controller/bluenrg1_gatt_aci.c ****   if (status) {
 4881              		.loc 1 1324 3 is_stmt 1 view .LVU1742
 4882              		.loc 1 1324 7 is_stmt 0 view .LVU1743
 4883 005c 9DF80300 		ldrb	r0, [sp, #3]	@ zero_extendqisi2
 4884              	.L187:
1325:Middlewares/ST/BlueNRG-2/hci/controller/bluenrg1_gatt_aci.c ****     return status;
1326:Middlewares/ST/BlueNRG-2/hci/controller/bluenrg1_gatt_aci.c ****   }
1327:Middlewares/ST/BlueNRG-2/hci/controller/bluenrg1_gatt_aci.c ****   return BLE_STATUS_SUCCESS;
1328:Middlewares/ST/BlueNRG-2/hci/controller/bluenrg1_gatt_aci.c **** }
 4885              		.loc 1 1328 1 view .LVU1744
 4886 0060 49B0     		add	sp, sp, #292
 4887              		.cfi_remember_state
 4888              		.cfi_def_cfa_offset 20
 4889              		@ sp needed
 4890 0062 F0BD     		pop	{r4, r5, r6, r7, pc}
 4891              	.LVL535:
 4892              	.L188:
 4893              		.cfi_restore_state
1323:Middlewares/ST/BlueNRG-2/hci/controller/bluenrg1_gatt_aci.c ****     return BLE_STATUS_TIMEOUT;
 4894              		.loc 1 1323 12 view .LVU1745
 4895 0064 FF20     		movs	r0, #255
 4896 0066 FBE7     		b	.L187
 4897              		.cfi_endproc
 4898              	.LFE172:
 4900              		.section	.text.aci_gatt_confirm_indication,"ax",%progbits
 4901              		.align	1
 4902              		.global	aci_gatt_confirm_indication
 4903              		.syntax unified
 4904              		.thumb
 4905              		.thumb_func
 4907              	aci_gatt_confirm_indication:
 4908              	.LVL536:
 4909              	.LFB173:
1329:Middlewares/ST/BlueNRG-2/hci/controller/bluenrg1_gatt_aci.c **** tBleStatus aci_gatt_confirm_indication(uint16_t Connection_Handle)
1330:Middlewares/ST/BlueNRG-2/hci/controller/bluenrg1_gatt_aci.c **** {
 4910              		.loc 1 1330 1 is_stmt 1 view -0
 4911              		.cfi_startproc
 4912              		@ args = 0, pretend = 0, frame = 288
 4913              		@ frame_needed = 0, uses_anonymous_args = 0
 4914              		.loc 1 1330 1 is_stmt 0 view .LVU1747
 4915 0000 00B5     		push	{lr}
 4916              		.cfi_def_cfa_offset 4
 4917              		.cfi_offset 14, -4
 4918 0002 C9B0     		sub	sp, sp, #292
 4919              		.cfi_def_cfa_offset 296
1331:Middlewares/ST/BlueNRG-2/hci/controller/bluenrg1_gatt_aci.c ****   struct hci_request rq;
 4920              		.loc 1 1331 3 is_stmt 1 view .LVU1748
1332:Middlewares/ST/BlueNRG-2/hci/controller/bluenrg1_gatt_aci.c ****   uint8_t cmd_buffer[258];
 4921              		.loc 1 1332 3 view .LVU1749
1333:Middlewares/ST/BlueNRG-2/hci/controller/bluenrg1_gatt_aci.c ****   aci_gatt_confirm_indication_cp0 *cp0 = (aci_gatt_confirm_indication_cp0*)(cmd_buffer);
 4922              		.loc 1 1333 3 view .LVU1750
 4923              	.LVL537:
1334:Middlewares/ST/BlueNRG-2/hci/controller/bluenrg1_gatt_aci.c ****   tBleStatus status = 0;
 4924              		.loc 1 1334 3 view .LVU1751
 4925              		.loc 1 1334 14 is_stmt 0 view .LVU1752
 4926 0004 0DF10303 		add	r3, sp, #3
 4927 0008 0021     		movs	r1, #0
ARM GAS  C:\Users\IAHERN~1\AppData\Local\Temp\ccP26j2c.s 			page 111


 4928 000a 8DF80310 		strb	r1, [sp, #3]
1335:Middlewares/ST/BlueNRG-2/hci/controller/bluenrg1_gatt_aci.c ****   uint8_t index_input = 0;
 4929              		.loc 1 1335 3 is_stmt 1 view .LVU1753
 4930              	.LVL538:
1336:Middlewares/ST/BlueNRG-2/hci/controller/bluenrg1_gatt_aci.c ****   cp0->Connection_Handle = htob(Connection_Handle, 2);
 4931              		.loc 1 1336 3 view .LVU1754
 4932              		.loc 1 1336 26 is_stmt 0 view .LVU1755
 4933 000e 01AA     		add	r2, sp, #4
 4934              	.LVL539:
 4935              		.loc 1 1336 26 view .LVU1756
 4936 0010 ADF80400 		strh	r0, [sp, #4]	@ movhi
1337:Middlewares/ST/BlueNRG-2/hci/controller/bluenrg1_gatt_aci.c ****   index_input += 2;
 4937              		.loc 1 1337 3 is_stmt 1 view .LVU1757
 4938              	.LVL540:
1338:Middlewares/ST/BlueNRG-2/hci/controller/bluenrg1_gatt_aci.c ****   BLUENRG_memset(&rq, 0, sizeof(rq));
 4939              		.loc 1 1338 3 view .LVU1758
 4940 0014 4291     		str	r1, [sp, #264]
 4941 0016 4391     		str	r1, [sp, #268]
 4942 0018 4491     		str	r1, [sp, #272]
 4943 001a 4591     		str	r1, [sp, #276]
 4944 001c 4691     		str	r1, [sp, #280]
 4945 001e 4791     		str	r1, [sp, #284]
1339:Middlewares/ST/BlueNRG-2/hci/controller/bluenrg1_gatt_aci.c ****   rq.ogf = 0x3f;
 4946              		.loc 1 1339 3 view .LVU1759
 4947              		.loc 1 1339 10 is_stmt 0 view .LVU1760
 4948 0020 3F20     		movs	r0, #63
 4949              	.LVL541:
 4950              		.loc 1 1339 10 view .LVU1761
 4951 0022 ADF80801 		strh	r0, [sp, #264]	@ movhi
1340:Middlewares/ST/BlueNRG-2/hci/controller/bluenrg1_gatt_aci.c ****   rq.ocf = 0x125;
 4952              		.loc 1 1340 3 is_stmt 1 view .LVU1762
 4953              		.loc 1 1340 10 is_stmt 0 view .LVU1763
 4954 0026 40F22510 		movw	r0, #293
 4955 002a ADF80A01 		strh	r0, [sp, #266]	@ movhi
1341:Middlewares/ST/BlueNRG-2/hci/controller/bluenrg1_gatt_aci.c ****   rq.cparam = cmd_buffer;
 4956              		.loc 1 1341 3 is_stmt 1 view .LVU1764
 4957              		.loc 1 1341 13 is_stmt 0 view .LVU1765
 4958 002e 4492     		str	r2, [sp, #272]
1342:Middlewares/ST/BlueNRG-2/hci/controller/bluenrg1_gatt_aci.c ****   rq.clen = index_input;
 4959              		.loc 1 1342 3 is_stmt 1 view .LVU1766
 4960              		.loc 1 1342 11 is_stmt 0 view .LVU1767
 4961 0030 0222     		movs	r2, #2
 4962              	.LVL542:
 4963              		.loc 1 1342 11 view .LVU1768
 4964 0032 4592     		str	r2, [sp, #276]
1343:Middlewares/ST/BlueNRG-2/hci/controller/bluenrg1_gatt_aci.c ****   rq.rparam = &status;
 4965              		.loc 1 1343 3 is_stmt 1 view .LVU1769
 4966              		.loc 1 1343 13 is_stmt 0 view .LVU1770
 4967 0034 4693     		str	r3, [sp, #280]
1344:Middlewares/ST/BlueNRG-2/hci/controller/bluenrg1_gatt_aci.c ****   rq.rlen = 1;
 4968              		.loc 1 1344 3 is_stmt 1 view .LVU1771
 4969              		.loc 1 1344 11 is_stmt 0 view .LVU1772
 4970 0036 0123     		movs	r3, #1
 4971 0038 4793     		str	r3, [sp, #284]
1345:Middlewares/ST/BlueNRG-2/hci/controller/bluenrg1_gatt_aci.c ****   if (hci_send_req(&rq, FALSE) < 0)
 4972              		.loc 1 1345 3 is_stmt 1 view .LVU1773
 4973              		.loc 1 1345 7 is_stmt 0 view .LVU1774
ARM GAS  C:\Users\IAHERN~1\AppData\Local\Temp\ccP26j2c.s 			page 112


 4974 003a 42A8     		add	r0, sp, #264
 4975 003c FFF7FEFF 		bl	hci_send_req
 4976              	.LVL543:
 4977              		.loc 1 1345 6 discriminator 1 view .LVU1775
 4978 0040 0028     		cmp	r0, #0
 4979 0042 04DB     		blt	.L192
1346:Middlewares/ST/BlueNRG-2/hci/controller/bluenrg1_gatt_aci.c ****     return BLE_STATUS_TIMEOUT;
1347:Middlewares/ST/BlueNRG-2/hci/controller/bluenrg1_gatt_aci.c ****   if (status) {
 4980              		.loc 1 1347 3 is_stmt 1 view .LVU1776
 4981              		.loc 1 1347 7 is_stmt 0 view .LVU1777
 4982 0044 9DF80300 		ldrb	r0, [sp, #3]	@ zero_extendqisi2
 4983              	.L191:
1348:Middlewares/ST/BlueNRG-2/hci/controller/bluenrg1_gatt_aci.c ****     return status;
1349:Middlewares/ST/BlueNRG-2/hci/controller/bluenrg1_gatt_aci.c ****   }
1350:Middlewares/ST/BlueNRG-2/hci/controller/bluenrg1_gatt_aci.c ****   return BLE_STATUS_SUCCESS;
1351:Middlewares/ST/BlueNRG-2/hci/controller/bluenrg1_gatt_aci.c **** }
 4984              		.loc 1 1351 1 view .LVU1778
 4985 0048 49B0     		add	sp, sp, #292
 4986              		.cfi_remember_state
 4987              		.cfi_def_cfa_offset 4
 4988              		@ sp needed
 4989 004a 5DF804FB 		ldr	pc, [sp], #4
 4990              	.LVL544:
 4991              	.L192:
 4992              		.cfi_restore_state
1346:Middlewares/ST/BlueNRG-2/hci/controller/bluenrg1_gatt_aci.c ****     return BLE_STATUS_TIMEOUT;
 4993              		.loc 1 1346 12 view .LVU1779
 4994 004e FF20     		movs	r0, #255
 4995 0050 FAE7     		b	.L191
 4996              		.cfi_endproc
 4997              	.LFE173:
 4999              		.section	.text.aci_gatt_write_resp,"ax",%progbits
 5000              		.align	1
 5001              		.global	aci_gatt_write_resp
 5002              		.syntax unified
 5003              		.thumb
 5004              		.thumb_func
 5006              	aci_gatt_write_resp:
 5007              	.LVL545:
 5008              	.LFB174:
1352:Middlewares/ST/BlueNRG-2/hci/controller/bluenrg1_gatt_aci.c **** tBleStatus aci_gatt_write_resp(uint16_t Connection_Handle,
1353:Middlewares/ST/BlueNRG-2/hci/controller/bluenrg1_gatt_aci.c ****                                uint16_t Attr_Handle,
1354:Middlewares/ST/BlueNRG-2/hci/controller/bluenrg1_gatt_aci.c ****                                uint8_t Write_status,
1355:Middlewares/ST/BlueNRG-2/hci/controller/bluenrg1_gatt_aci.c ****                                uint8_t Error_Code,
1356:Middlewares/ST/BlueNRG-2/hci/controller/bluenrg1_gatt_aci.c ****                                uint8_t Attribute_Val_Length,
1357:Middlewares/ST/BlueNRG-2/hci/controller/bluenrg1_gatt_aci.c ****                                uint8_t Attribute_Val[])
1358:Middlewares/ST/BlueNRG-2/hci/controller/bluenrg1_gatt_aci.c **** {
 5009              		.loc 1 1358 1 is_stmt 1 view -0
 5010              		.cfi_startproc
 5011              		@ args = 8, pretend = 0, frame = 288
 5012              		@ frame_needed = 0, uses_anonymous_args = 0
 5013              		.loc 1 1358 1 is_stmt 0 view .LVU1781
 5014 0000 F0B5     		push	{r4, r5, r6, r7, lr}
 5015              		.cfi_def_cfa_offset 20
 5016              		.cfi_offset 4, -20
 5017              		.cfi_offset 5, -16
 5018              		.cfi_offset 6, -12
ARM GAS  C:\Users\IAHERN~1\AppData\Local\Temp\ccP26j2c.s 			page 113


 5019              		.cfi_offset 7, -8
 5020              		.cfi_offset 14, -4
 5021 0002 C9B0     		sub	sp, sp, #292
 5022              		.cfi_def_cfa_offset 312
 5023 0004 9DF83851 		ldrb	r5, [sp, #312]	@ zero_extendqisi2
1359:Middlewares/ST/BlueNRG-2/hci/controller/bluenrg1_gatt_aci.c ****   struct hci_request rq;
 5024              		.loc 1 1359 3 is_stmt 1 view .LVU1782
1360:Middlewares/ST/BlueNRG-2/hci/controller/bluenrg1_gatt_aci.c ****   uint8_t cmd_buffer[258];
 5025              		.loc 1 1360 3 view .LVU1783
1361:Middlewares/ST/BlueNRG-2/hci/controller/bluenrg1_gatt_aci.c ****   aci_gatt_write_resp_cp0 *cp0 = (aci_gatt_write_resp_cp0*)(cmd_buffer);
 5026              		.loc 1 1361 3 view .LVU1784
 5027              	.LVL546:
1362:Middlewares/ST/BlueNRG-2/hci/controller/bluenrg1_gatt_aci.c ****   tBleStatus status = 0;
 5028              		.loc 1 1362 3 view .LVU1785
 5029              		.loc 1 1362 14 is_stmt 0 view .LVU1786
 5030 0008 0DF10307 		add	r7, sp, #3
 5031 000c 0024     		movs	r4, #0
 5032 000e 8DF80340 		strb	r4, [sp, #3]
1363:Middlewares/ST/BlueNRG-2/hci/controller/bluenrg1_gatt_aci.c ****   uint8_t index_input = 0;
 5033              		.loc 1 1363 3 is_stmt 1 view .LVU1787
 5034              	.LVL547:
1364:Middlewares/ST/BlueNRG-2/hci/controller/bluenrg1_gatt_aci.c ****   cp0->Connection_Handle = htob(Connection_Handle, 2);
 5035              		.loc 1 1364 3 view .LVU1788
 5036              		.loc 1 1364 26 is_stmt 0 view .LVU1789
 5037 0012 01AE     		add	r6, sp, #4
 5038              	.LVL548:
 5039              		.loc 1 1364 26 view .LVU1790
 5040 0014 ADF80400 		strh	r0, [sp, #4]	@ movhi
1365:Middlewares/ST/BlueNRG-2/hci/controller/bluenrg1_gatt_aci.c ****   index_input += 2;
 5041              		.loc 1 1365 3 is_stmt 1 view .LVU1791
 5042              	.LVL549:
1366:Middlewares/ST/BlueNRG-2/hci/controller/bluenrg1_gatt_aci.c ****   cp0->Attr_Handle = htob(Attr_Handle, 2);
 5043              		.loc 1 1366 3 view .LVU1792
 5044              		.loc 1 1366 20 is_stmt 0 view .LVU1793
 5045 0018 ADF80610 		strh	r1, [sp, #6]	@ movhi
1367:Middlewares/ST/BlueNRG-2/hci/controller/bluenrg1_gatt_aci.c ****   index_input += 2;
 5046              		.loc 1 1367 3 is_stmt 1 view .LVU1794
 5047              	.LVL550:
1368:Middlewares/ST/BlueNRG-2/hci/controller/bluenrg1_gatt_aci.c ****   cp0->Write_status = htob(Write_status, 1);
 5048              		.loc 1 1368 3 view .LVU1795
 5049              		.loc 1 1368 21 is_stmt 0 view .LVU1796
 5050 001c 8DF80820 		strb	r2, [sp, #8]
1369:Middlewares/ST/BlueNRG-2/hci/controller/bluenrg1_gatt_aci.c ****   index_input += 1;
 5051              		.loc 1 1369 3 is_stmt 1 view .LVU1797
 5052              	.LVL551:
1370:Middlewares/ST/BlueNRG-2/hci/controller/bluenrg1_gatt_aci.c ****   cp0->Error_Code = htob(Error_Code, 1);
 5053              		.loc 1 1370 3 view .LVU1798
 5054              		.loc 1 1370 19 is_stmt 0 view .LVU1799
 5055 0020 8DF80930 		strb	r3, [sp, #9]
1371:Middlewares/ST/BlueNRG-2/hci/controller/bluenrg1_gatt_aci.c ****   index_input += 1;
 5056              		.loc 1 1371 3 is_stmt 1 view .LVU1800
 5057              	.LVL552:
1372:Middlewares/ST/BlueNRG-2/hci/controller/bluenrg1_gatt_aci.c ****   cp0->Attribute_Val_Length = htob(Attribute_Val_Length, 1);
 5058              		.loc 1 1372 3 view .LVU1801
 5059              		.loc 1 1372 29 is_stmt 0 view .LVU1802
 5060 0024 8DF80A50 		strb	r5, [sp, #10]
1373:Middlewares/ST/BlueNRG-2/hci/controller/bluenrg1_gatt_aci.c ****   index_input += 1;
ARM GAS  C:\Users\IAHERN~1\AppData\Local\Temp\ccP26j2c.s 			page 114


 5061              		.loc 1 1373 3 is_stmt 1 view .LVU1803
 5062              	.LVL553:
1374:Middlewares/ST/BlueNRG-2/hci/controller/bluenrg1_gatt_aci.c ****   /* var_len_data input */
1375:Middlewares/ST/BlueNRG-2/hci/controller/bluenrg1_gatt_aci.c ****   {
1376:Middlewares/ST/BlueNRG-2/hci/controller/bluenrg1_gatt_aci.c ****     BLUENRG_memcpy((void *) &cp0->Attribute_Val, (const void *) Attribute_Val, Attribute_Val_Length
 5063              		.loc 1 1376 5 view .LVU1804
 5064 0028 2A46     		mov	r2, r5
 5065              	.LVL554:
 5066              		.loc 1 1376 5 is_stmt 0 view .LVU1805
 5067 002a 4F99     		ldr	r1, [sp, #316]
 5068              	.LVL555:
 5069              		.loc 1 1376 5 view .LVU1806
 5070 002c 0DF10B00 		add	r0, sp, #11
 5071              	.LVL556:
 5072              		.loc 1 1376 5 view .LVU1807
 5073 0030 FFF7FEFF 		bl	memcpy
 5074              	.LVL557:
1377:Middlewares/ST/BlueNRG-2/hci/controller/bluenrg1_gatt_aci.c ****     index_input += Attribute_Val_Length*sizeof(uint8_t);
 5075              		.loc 1 1377 5 is_stmt 1 view .LVU1808
 5076              		.loc 1 1377 17 is_stmt 0 view .LVU1809
 5077 0034 0735     		adds	r5, r5, #7
 5078 0036 EDB2     		uxtb	r5, r5
 5079              	.LVL558:
1378:Middlewares/ST/BlueNRG-2/hci/controller/bluenrg1_gatt_aci.c ****   }
1379:Middlewares/ST/BlueNRG-2/hci/controller/bluenrg1_gatt_aci.c ****   BLUENRG_memset(&rq, 0, sizeof(rq));
 5080              		.loc 1 1379 3 is_stmt 1 view .LVU1810
 5081 0038 4294     		str	r4, [sp, #264]
 5082 003a 4394     		str	r4, [sp, #268]
 5083 003c 4494     		str	r4, [sp, #272]
 5084 003e 4594     		str	r4, [sp, #276]
 5085 0040 4694     		str	r4, [sp, #280]
 5086 0042 4794     		str	r4, [sp, #284]
1380:Middlewares/ST/BlueNRG-2/hci/controller/bluenrg1_gatt_aci.c ****   rq.ogf = 0x3f;
 5087              		.loc 1 1380 3 view .LVU1811
 5088              		.loc 1 1380 10 is_stmt 0 view .LVU1812
 5089 0044 3F23     		movs	r3, #63
 5090 0046 ADF80831 		strh	r3, [sp, #264]	@ movhi
1381:Middlewares/ST/BlueNRG-2/hci/controller/bluenrg1_gatt_aci.c ****   rq.ocf = 0x126;
 5091              		.loc 1 1381 3 is_stmt 1 view .LVU1813
 5092              		.loc 1 1381 10 is_stmt 0 view .LVU1814
 5093 004a 4FF49373 		mov	r3, #294
 5094 004e ADF80A31 		strh	r3, [sp, #266]	@ movhi
1382:Middlewares/ST/BlueNRG-2/hci/controller/bluenrg1_gatt_aci.c ****   rq.cparam = cmd_buffer;
 5095              		.loc 1 1382 3 is_stmt 1 view .LVU1815
 5096              		.loc 1 1382 13 is_stmt 0 view .LVU1816
 5097 0052 4496     		str	r6, [sp, #272]
1383:Middlewares/ST/BlueNRG-2/hci/controller/bluenrg1_gatt_aci.c ****   rq.clen = index_input;
 5098              		.loc 1 1383 3 is_stmt 1 view .LVU1817
 5099              		.loc 1 1383 11 is_stmt 0 view .LVU1818
 5100 0054 4595     		str	r5, [sp, #276]
1384:Middlewares/ST/BlueNRG-2/hci/controller/bluenrg1_gatt_aci.c ****   rq.rparam = &status;
 5101              		.loc 1 1384 3 is_stmt 1 view .LVU1819
 5102              		.loc 1 1384 13 is_stmt 0 view .LVU1820
 5103 0056 4697     		str	r7, [sp, #280]
1385:Middlewares/ST/BlueNRG-2/hci/controller/bluenrg1_gatt_aci.c ****   rq.rlen = 1;
 5104              		.loc 1 1385 3 is_stmt 1 view .LVU1821
 5105              		.loc 1 1385 11 is_stmt 0 view .LVU1822
ARM GAS  C:\Users\IAHERN~1\AppData\Local\Temp\ccP26j2c.s 			page 115


 5106 0058 0123     		movs	r3, #1
 5107 005a 4793     		str	r3, [sp, #284]
1386:Middlewares/ST/BlueNRG-2/hci/controller/bluenrg1_gatt_aci.c ****   if (hci_send_req(&rq, FALSE) < 0)
 5108              		.loc 1 1386 3 is_stmt 1 view .LVU1823
 5109              		.loc 1 1386 7 is_stmt 0 view .LVU1824
 5110 005c 2146     		mov	r1, r4
 5111 005e 42A8     		add	r0, sp, #264
 5112 0060 FFF7FEFF 		bl	hci_send_req
 5113              	.LVL559:
 5114              		.loc 1 1386 6 discriminator 1 view .LVU1825
 5115 0064 A042     		cmp	r0, r4
 5116 0066 03DB     		blt	.L196
1387:Middlewares/ST/BlueNRG-2/hci/controller/bluenrg1_gatt_aci.c ****     return BLE_STATUS_TIMEOUT;
1388:Middlewares/ST/BlueNRG-2/hci/controller/bluenrg1_gatt_aci.c ****   if (status) {
 5117              		.loc 1 1388 3 is_stmt 1 view .LVU1826
 5118              		.loc 1 1388 7 is_stmt 0 view .LVU1827
 5119 0068 9DF80300 		ldrb	r0, [sp, #3]	@ zero_extendqisi2
 5120              	.L195:
1389:Middlewares/ST/BlueNRG-2/hci/controller/bluenrg1_gatt_aci.c ****     return status;
1390:Middlewares/ST/BlueNRG-2/hci/controller/bluenrg1_gatt_aci.c ****   }
1391:Middlewares/ST/BlueNRG-2/hci/controller/bluenrg1_gatt_aci.c ****   return BLE_STATUS_SUCCESS;
1392:Middlewares/ST/BlueNRG-2/hci/controller/bluenrg1_gatt_aci.c **** }
 5121              		.loc 1 1392 1 view .LVU1828
 5122 006c 49B0     		add	sp, sp, #292
 5123              		.cfi_remember_state
 5124              		.cfi_def_cfa_offset 20
 5125              		@ sp needed
 5126 006e F0BD     		pop	{r4, r5, r6, r7, pc}
 5127              	.LVL560:
 5128              	.L196:
 5129              		.cfi_restore_state
1387:Middlewares/ST/BlueNRG-2/hci/controller/bluenrg1_gatt_aci.c ****     return BLE_STATUS_TIMEOUT;
 5130              		.loc 1 1387 12 view .LVU1829
 5131 0070 FF20     		movs	r0, #255
 5132 0072 FBE7     		b	.L195
 5133              		.cfi_endproc
 5134              	.LFE174:
 5136              		.section	.text.aci_gatt_allow_read,"ax",%progbits
 5137              		.align	1
 5138              		.global	aci_gatt_allow_read
 5139              		.syntax unified
 5140              		.thumb
 5141              		.thumb_func
 5143              	aci_gatt_allow_read:
 5144              	.LVL561:
 5145              	.LFB175:
1393:Middlewares/ST/BlueNRG-2/hci/controller/bluenrg1_gatt_aci.c **** tBleStatus aci_gatt_allow_read(uint16_t Connection_Handle)
1394:Middlewares/ST/BlueNRG-2/hci/controller/bluenrg1_gatt_aci.c **** {
 5146              		.loc 1 1394 1 is_stmt 1 view -0
 5147              		.cfi_startproc
 5148              		@ args = 0, pretend = 0, frame = 288
 5149              		@ frame_needed = 0, uses_anonymous_args = 0
 5150              		.loc 1 1394 1 is_stmt 0 view .LVU1831
 5151 0000 00B5     		push	{lr}
 5152              		.cfi_def_cfa_offset 4
 5153              		.cfi_offset 14, -4
 5154 0002 C9B0     		sub	sp, sp, #292
ARM GAS  C:\Users\IAHERN~1\AppData\Local\Temp\ccP26j2c.s 			page 116


 5155              		.cfi_def_cfa_offset 296
1395:Middlewares/ST/BlueNRG-2/hci/controller/bluenrg1_gatt_aci.c ****   struct hci_request rq;
 5156              		.loc 1 1395 3 is_stmt 1 view .LVU1832
1396:Middlewares/ST/BlueNRG-2/hci/controller/bluenrg1_gatt_aci.c ****   uint8_t cmd_buffer[258];
 5157              		.loc 1 1396 3 view .LVU1833
1397:Middlewares/ST/BlueNRG-2/hci/controller/bluenrg1_gatt_aci.c ****   aci_gatt_allow_read_cp0 *cp0 = (aci_gatt_allow_read_cp0*)(cmd_buffer);
 5158              		.loc 1 1397 3 view .LVU1834
 5159              	.LVL562:
1398:Middlewares/ST/BlueNRG-2/hci/controller/bluenrg1_gatt_aci.c ****   tBleStatus status = 0;
 5160              		.loc 1 1398 3 view .LVU1835
 5161              		.loc 1 1398 14 is_stmt 0 view .LVU1836
 5162 0004 0DF10303 		add	r3, sp, #3
 5163 0008 0021     		movs	r1, #0
 5164 000a 8DF80310 		strb	r1, [sp, #3]
1399:Middlewares/ST/BlueNRG-2/hci/controller/bluenrg1_gatt_aci.c ****   uint8_t index_input = 0;
 5165              		.loc 1 1399 3 is_stmt 1 view .LVU1837
 5166              	.LVL563:
1400:Middlewares/ST/BlueNRG-2/hci/controller/bluenrg1_gatt_aci.c ****   cp0->Connection_Handle = htob(Connection_Handle, 2);
 5167              		.loc 1 1400 3 view .LVU1838
 5168              		.loc 1 1400 26 is_stmt 0 view .LVU1839
 5169 000e 01AA     		add	r2, sp, #4
 5170              	.LVL564:
 5171              		.loc 1 1400 26 view .LVU1840
 5172 0010 ADF80400 		strh	r0, [sp, #4]	@ movhi
1401:Middlewares/ST/BlueNRG-2/hci/controller/bluenrg1_gatt_aci.c ****   index_input += 2;
 5173              		.loc 1 1401 3 is_stmt 1 view .LVU1841
 5174              	.LVL565:
1402:Middlewares/ST/BlueNRG-2/hci/controller/bluenrg1_gatt_aci.c ****   BLUENRG_memset(&rq, 0, sizeof(rq));
 5175              		.loc 1 1402 3 view .LVU1842
 5176 0014 4291     		str	r1, [sp, #264]
 5177 0016 4391     		str	r1, [sp, #268]
 5178 0018 4491     		str	r1, [sp, #272]
 5179 001a 4591     		str	r1, [sp, #276]
 5180 001c 4691     		str	r1, [sp, #280]
 5181 001e 4791     		str	r1, [sp, #284]
1403:Middlewares/ST/BlueNRG-2/hci/controller/bluenrg1_gatt_aci.c ****   rq.ogf = 0x3f;
 5182              		.loc 1 1403 3 view .LVU1843
 5183              		.loc 1 1403 10 is_stmt 0 view .LVU1844
 5184 0020 3F20     		movs	r0, #63
 5185              	.LVL566:
 5186              		.loc 1 1403 10 view .LVU1845
 5187 0022 ADF80801 		strh	r0, [sp, #264]	@ movhi
1404:Middlewares/ST/BlueNRG-2/hci/controller/bluenrg1_gatt_aci.c ****   rq.ocf = 0x127;
 5188              		.loc 1 1404 3 is_stmt 1 view .LVU1846
 5189              		.loc 1 1404 10 is_stmt 0 view .LVU1847
 5190 0026 40F22710 		movw	r0, #295
 5191 002a ADF80A01 		strh	r0, [sp, #266]	@ movhi
1405:Middlewares/ST/BlueNRG-2/hci/controller/bluenrg1_gatt_aci.c ****   rq.cparam = cmd_buffer;
 5192              		.loc 1 1405 3 is_stmt 1 view .LVU1848
 5193              		.loc 1 1405 13 is_stmt 0 view .LVU1849
 5194 002e 4492     		str	r2, [sp, #272]
1406:Middlewares/ST/BlueNRG-2/hci/controller/bluenrg1_gatt_aci.c ****   rq.clen = index_input;
 5195              		.loc 1 1406 3 is_stmt 1 view .LVU1850
 5196              		.loc 1 1406 11 is_stmt 0 view .LVU1851
 5197 0030 0222     		movs	r2, #2
 5198              	.LVL567:
 5199              		.loc 1 1406 11 view .LVU1852
ARM GAS  C:\Users\IAHERN~1\AppData\Local\Temp\ccP26j2c.s 			page 117


 5200 0032 4592     		str	r2, [sp, #276]
1407:Middlewares/ST/BlueNRG-2/hci/controller/bluenrg1_gatt_aci.c ****   rq.rparam = &status;
 5201              		.loc 1 1407 3 is_stmt 1 view .LVU1853
 5202              		.loc 1 1407 13 is_stmt 0 view .LVU1854
 5203 0034 4693     		str	r3, [sp, #280]
1408:Middlewares/ST/BlueNRG-2/hci/controller/bluenrg1_gatt_aci.c ****   rq.rlen = 1;
 5204              		.loc 1 1408 3 is_stmt 1 view .LVU1855
 5205              		.loc 1 1408 11 is_stmt 0 view .LVU1856
 5206 0036 0123     		movs	r3, #1
 5207 0038 4793     		str	r3, [sp, #284]
1409:Middlewares/ST/BlueNRG-2/hci/controller/bluenrg1_gatt_aci.c ****   if (hci_send_req(&rq, FALSE) < 0)
 5208              		.loc 1 1409 3 is_stmt 1 view .LVU1857
 5209              		.loc 1 1409 7 is_stmt 0 view .LVU1858
 5210 003a 42A8     		add	r0, sp, #264
 5211 003c FFF7FEFF 		bl	hci_send_req
 5212              	.LVL568:
 5213              		.loc 1 1409 6 discriminator 1 view .LVU1859
 5214 0040 0028     		cmp	r0, #0
 5215 0042 04DB     		blt	.L200
1410:Middlewares/ST/BlueNRG-2/hci/controller/bluenrg1_gatt_aci.c ****     return BLE_STATUS_TIMEOUT;
1411:Middlewares/ST/BlueNRG-2/hci/controller/bluenrg1_gatt_aci.c ****   if (status) {
 5216              		.loc 1 1411 3 is_stmt 1 view .LVU1860
 5217              		.loc 1 1411 7 is_stmt 0 view .LVU1861
 5218 0044 9DF80300 		ldrb	r0, [sp, #3]	@ zero_extendqisi2
 5219              	.L199:
1412:Middlewares/ST/BlueNRG-2/hci/controller/bluenrg1_gatt_aci.c ****     return status;
1413:Middlewares/ST/BlueNRG-2/hci/controller/bluenrg1_gatt_aci.c ****   }
1414:Middlewares/ST/BlueNRG-2/hci/controller/bluenrg1_gatt_aci.c ****   return BLE_STATUS_SUCCESS;
1415:Middlewares/ST/BlueNRG-2/hci/controller/bluenrg1_gatt_aci.c **** }
 5220              		.loc 1 1415 1 view .LVU1862
 5221 0048 49B0     		add	sp, sp, #292
 5222              		.cfi_remember_state
 5223              		.cfi_def_cfa_offset 4
 5224              		@ sp needed
 5225 004a 5DF804FB 		ldr	pc, [sp], #4
 5226              	.LVL569:
 5227              	.L200:
 5228              		.cfi_restore_state
1410:Middlewares/ST/BlueNRG-2/hci/controller/bluenrg1_gatt_aci.c ****     return BLE_STATUS_TIMEOUT;
 5229              		.loc 1 1410 12 view .LVU1863
 5230 004e FF20     		movs	r0, #255
 5231 0050 FAE7     		b	.L199
 5232              		.cfi_endproc
 5233              	.LFE175:
 5235              		.section	.text.aci_gatt_set_security_permission,"ax",%progbits
 5236              		.align	1
 5237              		.global	aci_gatt_set_security_permission
 5238              		.syntax unified
 5239              		.thumb
 5240              		.thumb_func
 5242              	aci_gatt_set_security_permission:
 5243              	.LVL570:
 5244              	.LFB176:
1416:Middlewares/ST/BlueNRG-2/hci/controller/bluenrg1_gatt_aci.c **** tBleStatus aci_gatt_set_security_permission(uint16_t Serv_Handle,
1417:Middlewares/ST/BlueNRG-2/hci/controller/bluenrg1_gatt_aci.c ****                                             uint16_t Attr_Handle,
1418:Middlewares/ST/BlueNRG-2/hci/controller/bluenrg1_gatt_aci.c ****                                             uint8_t Security_Permissions)
1419:Middlewares/ST/BlueNRG-2/hci/controller/bluenrg1_gatt_aci.c **** {
ARM GAS  C:\Users\IAHERN~1\AppData\Local\Temp\ccP26j2c.s 			page 118


 5245              		.loc 1 1419 1 is_stmt 1 view -0
 5246              		.cfi_startproc
 5247              		@ args = 0, pretend = 0, frame = 288
 5248              		@ frame_needed = 0, uses_anonymous_args = 0
 5249              		.loc 1 1419 1 is_stmt 0 view .LVU1865
 5250 0000 30B5     		push	{r4, r5, lr}
 5251              		.cfi_def_cfa_offset 12
 5252              		.cfi_offset 4, -12
 5253              		.cfi_offset 5, -8
 5254              		.cfi_offset 14, -4
 5255 0002 C9B0     		sub	sp, sp, #292
 5256              		.cfi_def_cfa_offset 304
1420:Middlewares/ST/BlueNRG-2/hci/controller/bluenrg1_gatt_aci.c ****   struct hci_request rq;
 5257              		.loc 1 1420 3 is_stmt 1 view .LVU1866
1421:Middlewares/ST/BlueNRG-2/hci/controller/bluenrg1_gatt_aci.c ****   uint8_t cmd_buffer[258];
 5258              		.loc 1 1421 3 view .LVU1867
1422:Middlewares/ST/BlueNRG-2/hci/controller/bluenrg1_gatt_aci.c ****   aci_gatt_set_security_permission_cp0 *cp0 = (aci_gatt_set_security_permission_cp0*)(cmd_buffer);
 5259              		.loc 1 1422 3 view .LVU1868
 5260              	.LVL571:
1423:Middlewares/ST/BlueNRG-2/hci/controller/bluenrg1_gatt_aci.c ****   tBleStatus status = 0;
 5261              		.loc 1 1423 3 view .LVU1869
 5262              		.loc 1 1423 14 is_stmt 0 view .LVU1870
 5263 0004 0DF10305 		add	r5, sp, #3
 5264 0008 0023     		movs	r3, #0
 5265 000a 8DF80330 		strb	r3, [sp, #3]
1424:Middlewares/ST/BlueNRG-2/hci/controller/bluenrg1_gatt_aci.c ****   uint8_t index_input = 0;
 5266              		.loc 1 1424 3 is_stmt 1 view .LVU1871
 5267              	.LVL572:
1425:Middlewares/ST/BlueNRG-2/hci/controller/bluenrg1_gatt_aci.c ****   cp0->Serv_Handle = htob(Serv_Handle, 2);
 5268              		.loc 1 1425 3 view .LVU1872
 5269              		.loc 1 1425 20 is_stmt 0 view .LVU1873
 5270 000e 01AC     		add	r4, sp, #4
 5271              	.LVL573:
 5272              		.loc 1 1425 20 view .LVU1874
 5273 0010 ADF80400 		strh	r0, [sp, #4]	@ movhi
1426:Middlewares/ST/BlueNRG-2/hci/controller/bluenrg1_gatt_aci.c ****   index_input += 2;
 5274              		.loc 1 1426 3 is_stmt 1 view .LVU1875
 5275              	.LVL574:
1427:Middlewares/ST/BlueNRG-2/hci/controller/bluenrg1_gatt_aci.c ****   cp0->Attr_Handle = htob(Attr_Handle, 2);
 5276              		.loc 1 1427 3 view .LVU1876
 5277              		.loc 1 1427 20 is_stmt 0 view .LVU1877
 5278 0014 ADF80610 		strh	r1, [sp, #6]	@ movhi
1428:Middlewares/ST/BlueNRG-2/hci/controller/bluenrg1_gatt_aci.c ****   index_input += 2;
 5279              		.loc 1 1428 3 is_stmt 1 view .LVU1878
 5280              	.LVL575:
1429:Middlewares/ST/BlueNRG-2/hci/controller/bluenrg1_gatt_aci.c ****   cp0->Security_Permissions = htob(Security_Permissions, 1);
 5281              		.loc 1 1429 3 view .LVU1879
 5282              		.loc 1 1429 29 is_stmt 0 view .LVU1880
 5283 0018 8DF80820 		strb	r2, [sp, #8]
1430:Middlewares/ST/BlueNRG-2/hci/controller/bluenrg1_gatt_aci.c ****   index_input += 1;
 5284              		.loc 1 1430 3 is_stmt 1 view .LVU1881
 5285              	.LVL576:
1431:Middlewares/ST/BlueNRG-2/hci/controller/bluenrg1_gatt_aci.c ****   BLUENRG_memset(&rq, 0, sizeof(rq));
 5286              		.loc 1 1431 3 view .LVU1882
 5287 001c 4293     		str	r3, [sp, #264]
 5288 001e 4393     		str	r3, [sp, #268]
 5289 0020 4493     		str	r3, [sp, #272]
ARM GAS  C:\Users\IAHERN~1\AppData\Local\Temp\ccP26j2c.s 			page 119


 5290 0022 4593     		str	r3, [sp, #276]
 5291 0024 4693     		str	r3, [sp, #280]
 5292 0026 4793     		str	r3, [sp, #284]
1432:Middlewares/ST/BlueNRG-2/hci/controller/bluenrg1_gatt_aci.c ****   rq.ogf = 0x3f;
 5293              		.loc 1 1432 3 view .LVU1883
 5294              		.loc 1 1432 10 is_stmt 0 view .LVU1884
 5295 0028 3F22     		movs	r2, #63
 5296              	.LVL577:
 5297              		.loc 1 1432 10 view .LVU1885
 5298 002a ADF80821 		strh	r2, [sp, #264]	@ movhi
1433:Middlewares/ST/BlueNRG-2/hci/controller/bluenrg1_gatt_aci.c ****   rq.ocf = 0x128;
 5299              		.loc 1 1433 3 is_stmt 1 view .LVU1886
 5300              		.loc 1 1433 10 is_stmt 0 view .LVU1887
 5301 002e 4FF49472 		mov	r2, #296
 5302 0032 ADF80A21 		strh	r2, [sp, #266]	@ movhi
1434:Middlewares/ST/BlueNRG-2/hci/controller/bluenrg1_gatt_aci.c ****   rq.cparam = cmd_buffer;
 5303              		.loc 1 1434 3 is_stmt 1 view .LVU1888
 5304              		.loc 1 1434 13 is_stmt 0 view .LVU1889
 5305 0036 4494     		str	r4, [sp, #272]
1435:Middlewares/ST/BlueNRG-2/hci/controller/bluenrg1_gatt_aci.c ****   rq.clen = index_input;
 5306              		.loc 1 1435 3 is_stmt 1 view .LVU1890
 5307              		.loc 1 1435 11 is_stmt 0 view .LVU1891
 5308 0038 0522     		movs	r2, #5
 5309 003a 4592     		str	r2, [sp, #276]
1436:Middlewares/ST/BlueNRG-2/hci/controller/bluenrg1_gatt_aci.c ****   rq.rparam = &status;
 5310              		.loc 1 1436 3 is_stmt 1 view .LVU1892
 5311              		.loc 1 1436 13 is_stmt 0 view .LVU1893
 5312 003c 4695     		str	r5, [sp, #280]
1437:Middlewares/ST/BlueNRG-2/hci/controller/bluenrg1_gatt_aci.c ****   rq.rlen = 1;
 5313              		.loc 1 1437 3 is_stmt 1 view .LVU1894
 5314              		.loc 1 1437 11 is_stmt 0 view .LVU1895
 5315 003e 0122     		movs	r2, #1
 5316 0040 4792     		str	r2, [sp, #284]
1438:Middlewares/ST/BlueNRG-2/hci/controller/bluenrg1_gatt_aci.c ****   if (hci_send_req(&rq, FALSE) < 0)
 5317              		.loc 1 1438 3 is_stmt 1 view .LVU1896
 5318              		.loc 1 1438 7 is_stmt 0 view .LVU1897
 5319 0042 1946     		mov	r1, r3
 5320              	.LVL578:
 5321              		.loc 1 1438 7 view .LVU1898
 5322 0044 42A8     		add	r0, sp, #264
 5323              	.LVL579:
 5324              		.loc 1 1438 7 view .LVU1899
 5325 0046 FFF7FEFF 		bl	hci_send_req
 5326              	.LVL580:
 5327              		.loc 1 1438 6 discriminator 1 view .LVU1900
 5328 004a 0028     		cmp	r0, #0
 5329 004c 03DB     		blt	.L204
1439:Middlewares/ST/BlueNRG-2/hci/controller/bluenrg1_gatt_aci.c ****     return BLE_STATUS_TIMEOUT;
1440:Middlewares/ST/BlueNRG-2/hci/controller/bluenrg1_gatt_aci.c ****   if (status) {
 5330              		.loc 1 1440 3 is_stmt 1 view .LVU1901
 5331              		.loc 1 1440 7 is_stmt 0 view .LVU1902
 5332 004e 9DF80300 		ldrb	r0, [sp, #3]	@ zero_extendqisi2
 5333              	.L203:
1441:Middlewares/ST/BlueNRG-2/hci/controller/bluenrg1_gatt_aci.c ****     return status;
1442:Middlewares/ST/BlueNRG-2/hci/controller/bluenrg1_gatt_aci.c ****   }
1443:Middlewares/ST/BlueNRG-2/hci/controller/bluenrg1_gatt_aci.c ****   return BLE_STATUS_SUCCESS;
1444:Middlewares/ST/BlueNRG-2/hci/controller/bluenrg1_gatt_aci.c **** }
ARM GAS  C:\Users\IAHERN~1\AppData\Local\Temp\ccP26j2c.s 			page 120


 5334              		.loc 1 1444 1 view .LVU1903
 5335 0052 49B0     		add	sp, sp, #292
 5336              		.cfi_remember_state
 5337              		.cfi_def_cfa_offset 12
 5338              		@ sp needed
 5339 0054 30BD     		pop	{r4, r5, pc}
 5340              	.LVL581:
 5341              	.L204:
 5342              		.cfi_restore_state
1439:Middlewares/ST/BlueNRG-2/hci/controller/bluenrg1_gatt_aci.c ****     return BLE_STATUS_TIMEOUT;
 5343              		.loc 1 1439 12 view .LVU1904
 5344 0056 FF20     		movs	r0, #255
 5345 0058 FBE7     		b	.L203
 5346              		.cfi_endproc
 5347              	.LFE176:
 5349              		.section	.text.aci_gatt_set_desc_value,"ax",%progbits
 5350              		.align	1
 5351              		.global	aci_gatt_set_desc_value
 5352              		.syntax unified
 5353              		.thumb
 5354              		.thumb_func
 5356              	aci_gatt_set_desc_value:
 5357              	.LVL582:
 5358              	.LFB177:
1445:Middlewares/ST/BlueNRG-2/hci/controller/bluenrg1_gatt_aci.c **** tBleStatus aci_gatt_set_desc_value(uint16_t Serv_Handle,
1446:Middlewares/ST/BlueNRG-2/hci/controller/bluenrg1_gatt_aci.c ****                                    uint16_t Char_Handle,
1447:Middlewares/ST/BlueNRG-2/hci/controller/bluenrg1_gatt_aci.c ****                                    uint16_t Char_Desc_Handle,
1448:Middlewares/ST/BlueNRG-2/hci/controller/bluenrg1_gatt_aci.c ****                                    uint16_t Val_Offset,
1449:Middlewares/ST/BlueNRG-2/hci/controller/bluenrg1_gatt_aci.c ****                                    uint8_t Char_Desc_Value_Length,
1450:Middlewares/ST/BlueNRG-2/hci/controller/bluenrg1_gatt_aci.c ****                                    uint8_t Char_Desc_Value[])
1451:Middlewares/ST/BlueNRG-2/hci/controller/bluenrg1_gatt_aci.c **** {
 5359              		.loc 1 1451 1 is_stmt 1 view -0
 5360              		.cfi_startproc
 5361              		@ args = 8, pretend = 0, frame = 288
 5362              		@ frame_needed = 0, uses_anonymous_args = 0
 5363              		.loc 1 1451 1 is_stmt 0 view .LVU1906
 5364 0000 F0B5     		push	{r4, r5, r6, r7, lr}
 5365              		.cfi_def_cfa_offset 20
 5366              		.cfi_offset 4, -20
 5367              		.cfi_offset 5, -16
 5368              		.cfi_offset 6, -12
 5369              		.cfi_offset 7, -8
 5370              		.cfi_offset 14, -4
 5371 0002 C9B0     		sub	sp, sp, #292
 5372              		.cfi_def_cfa_offset 312
 5373 0004 9DF83851 		ldrb	r5, [sp, #312]	@ zero_extendqisi2
1452:Middlewares/ST/BlueNRG-2/hci/controller/bluenrg1_gatt_aci.c ****   struct hci_request rq;
 5374              		.loc 1 1452 3 is_stmt 1 view .LVU1907
1453:Middlewares/ST/BlueNRG-2/hci/controller/bluenrg1_gatt_aci.c ****   uint8_t cmd_buffer[258];
 5375              		.loc 1 1453 3 view .LVU1908
1454:Middlewares/ST/BlueNRG-2/hci/controller/bluenrg1_gatt_aci.c ****   aci_gatt_set_desc_value_cp0 *cp0 = (aci_gatt_set_desc_value_cp0*)(cmd_buffer);
 5376              		.loc 1 1454 3 view .LVU1909
 5377              	.LVL583:
1455:Middlewares/ST/BlueNRG-2/hci/controller/bluenrg1_gatt_aci.c ****   tBleStatus status = 0;
 5378              		.loc 1 1455 3 view .LVU1910
 5379              		.loc 1 1455 14 is_stmt 0 view .LVU1911
 5380 0008 0DF10307 		add	r7, sp, #3
ARM GAS  C:\Users\IAHERN~1\AppData\Local\Temp\ccP26j2c.s 			page 121


 5381 000c 0024     		movs	r4, #0
 5382 000e 8DF80340 		strb	r4, [sp, #3]
1456:Middlewares/ST/BlueNRG-2/hci/controller/bluenrg1_gatt_aci.c ****   uint8_t index_input = 0;
 5383              		.loc 1 1456 3 is_stmt 1 view .LVU1912
 5384              	.LVL584:
1457:Middlewares/ST/BlueNRG-2/hci/controller/bluenrg1_gatt_aci.c ****   cp0->Serv_Handle = htob(Serv_Handle, 2);
 5385              		.loc 1 1457 3 view .LVU1913
 5386              		.loc 1 1457 20 is_stmt 0 view .LVU1914
 5387 0012 01AE     		add	r6, sp, #4
 5388              	.LVL585:
 5389              		.loc 1 1457 20 view .LVU1915
 5390 0014 ADF80400 		strh	r0, [sp, #4]	@ movhi
1458:Middlewares/ST/BlueNRG-2/hci/controller/bluenrg1_gatt_aci.c ****   index_input += 2;
 5391              		.loc 1 1458 3 is_stmt 1 view .LVU1916
 5392              	.LVL586:
1459:Middlewares/ST/BlueNRG-2/hci/controller/bluenrg1_gatt_aci.c ****   cp0->Char_Handle = htob(Char_Handle, 2);
 5393              		.loc 1 1459 3 view .LVU1917
 5394              		.loc 1 1459 20 is_stmt 0 view .LVU1918
 5395 0018 ADF80610 		strh	r1, [sp, #6]	@ movhi
1460:Middlewares/ST/BlueNRG-2/hci/controller/bluenrg1_gatt_aci.c ****   index_input += 2;
 5396              		.loc 1 1460 3 is_stmt 1 view .LVU1919
 5397              	.LVL587:
1461:Middlewares/ST/BlueNRG-2/hci/controller/bluenrg1_gatt_aci.c ****   cp0->Char_Desc_Handle = htob(Char_Desc_Handle, 2);
 5398              		.loc 1 1461 3 view .LVU1920
 5399              		.loc 1 1461 25 is_stmt 0 view .LVU1921
 5400 001c ADF80820 		strh	r2, [sp, #8]	@ movhi
1462:Middlewares/ST/BlueNRG-2/hci/controller/bluenrg1_gatt_aci.c ****   index_input += 2;
 5401              		.loc 1 1462 3 is_stmt 1 view .LVU1922
 5402              	.LVL588:
1463:Middlewares/ST/BlueNRG-2/hci/controller/bluenrg1_gatt_aci.c ****   cp0->Val_Offset = htob(Val_Offset, 2);
 5403              		.loc 1 1463 3 view .LVU1923
 5404              		.loc 1 1463 19 is_stmt 0 view .LVU1924
 5405 0020 ADF80A30 		strh	r3, [sp, #10]	@ movhi
1464:Middlewares/ST/BlueNRG-2/hci/controller/bluenrg1_gatt_aci.c ****   index_input += 2;
 5406              		.loc 1 1464 3 is_stmt 1 view .LVU1925
 5407              	.LVL589:
1465:Middlewares/ST/BlueNRG-2/hci/controller/bluenrg1_gatt_aci.c ****   cp0->Char_Desc_Value_Length = htob(Char_Desc_Value_Length, 1);
 5408              		.loc 1 1465 3 view .LVU1926
 5409              		.loc 1 1465 31 is_stmt 0 view .LVU1927
 5410 0024 8DF80C50 		strb	r5, [sp, #12]
1466:Middlewares/ST/BlueNRG-2/hci/controller/bluenrg1_gatt_aci.c ****   index_input += 1;
 5411              		.loc 1 1466 3 is_stmt 1 view .LVU1928
 5412              	.LVL590:
1467:Middlewares/ST/BlueNRG-2/hci/controller/bluenrg1_gatt_aci.c ****   /* var_len_data input */
1468:Middlewares/ST/BlueNRG-2/hci/controller/bluenrg1_gatt_aci.c ****   {
1469:Middlewares/ST/BlueNRG-2/hci/controller/bluenrg1_gatt_aci.c ****     BLUENRG_memcpy((void *) &cp0->Char_Desc_Value, (const void *) Char_Desc_Value, Char_Desc_Value_
 5413              		.loc 1 1469 5 view .LVU1929
 5414 0028 2A46     		mov	r2, r5
 5415              	.LVL591:
 5416              		.loc 1 1469 5 is_stmt 0 view .LVU1930
 5417 002a 4F99     		ldr	r1, [sp, #316]
 5418              	.LVL592:
 5419              		.loc 1 1469 5 view .LVU1931
 5420 002c 0DF10D00 		add	r0, sp, #13
 5421              	.LVL593:
 5422              		.loc 1 1469 5 view .LVU1932
 5423 0030 FFF7FEFF 		bl	memcpy
ARM GAS  C:\Users\IAHERN~1\AppData\Local\Temp\ccP26j2c.s 			page 122


 5424              	.LVL594:
1470:Middlewares/ST/BlueNRG-2/hci/controller/bluenrg1_gatt_aci.c ****     index_input += Char_Desc_Value_Length*sizeof(uint8_t);
 5425              		.loc 1 1470 5 is_stmt 1 view .LVU1933
 5426              		.loc 1 1470 17 is_stmt 0 view .LVU1934
 5427 0034 0935     		adds	r5, r5, #9
 5428 0036 EDB2     		uxtb	r5, r5
 5429              	.LVL595:
1471:Middlewares/ST/BlueNRG-2/hci/controller/bluenrg1_gatt_aci.c ****   }
1472:Middlewares/ST/BlueNRG-2/hci/controller/bluenrg1_gatt_aci.c ****   BLUENRG_memset(&rq, 0, sizeof(rq));
 5430              		.loc 1 1472 3 is_stmt 1 view .LVU1935
 5431 0038 4294     		str	r4, [sp, #264]
 5432 003a 4394     		str	r4, [sp, #268]
 5433 003c 4494     		str	r4, [sp, #272]
 5434 003e 4594     		str	r4, [sp, #276]
 5435 0040 4694     		str	r4, [sp, #280]
 5436 0042 4794     		str	r4, [sp, #284]
1473:Middlewares/ST/BlueNRG-2/hci/controller/bluenrg1_gatt_aci.c ****   rq.ogf = 0x3f;
 5437              		.loc 1 1473 3 view .LVU1936
 5438              		.loc 1 1473 10 is_stmt 0 view .LVU1937
 5439 0044 3F23     		movs	r3, #63
 5440 0046 ADF80831 		strh	r3, [sp, #264]	@ movhi
1474:Middlewares/ST/BlueNRG-2/hci/controller/bluenrg1_gatt_aci.c ****   rq.ocf = 0x129;
 5441              		.loc 1 1474 3 is_stmt 1 view .LVU1938
 5442              		.loc 1 1474 10 is_stmt 0 view .LVU1939
 5443 004a 40F22913 		movw	r3, #297
 5444 004e ADF80A31 		strh	r3, [sp, #266]	@ movhi
1475:Middlewares/ST/BlueNRG-2/hci/controller/bluenrg1_gatt_aci.c ****   rq.cparam = cmd_buffer;
 5445              		.loc 1 1475 3 is_stmt 1 view .LVU1940
 5446              		.loc 1 1475 13 is_stmt 0 view .LVU1941
 5447 0052 4496     		str	r6, [sp, #272]
1476:Middlewares/ST/BlueNRG-2/hci/controller/bluenrg1_gatt_aci.c ****   rq.clen = index_input;
 5448              		.loc 1 1476 3 is_stmt 1 view .LVU1942
 5449              		.loc 1 1476 11 is_stmt 0 view .LVU1943
 5450 0054 4595     		str	r5, [sp, #276]
1477:Middlewares/ST/BlueNRG-2/hci/controller/bluenrg1_gatt_aci.c ****   rq.rparam = &status;
 5451              		.loc 1 1477 3 is_stmt 1 view .LVU1944
 5452              		.loc 1 1477 13 is_stmt 0 view .LVU1945
 5453 0056 4697     		str	r7, [sp, #280]
1478:Middlewares/ST/BlueNRG-2/hci/controller/bluenrg1_gatt_aci.c ****   rq.rlen = 1;
 5454              		.loc 1 1478 3 is_stmt 1 view .LVU1946
 5455              		.loc 1 1478 11 is_stmt 0 view .LVU1947
 5456 0058 0123     		movs	r3, #1
 5457 005a 4793     		str	r3, [sp, #284]
1479:Middlewares/ST/BlueNRG-2/hci/controller/bluenrg1_gatt_aci.c ****   if (hci_send_req(&rq, FALSE) < 0)
 5458              		.loc 1 1479 3 is_stmt 1 view .LVU1948
 5459              		.loc 1 1479 7 is_stmt 0 view .LVU1949
 5460 005c 2146     		mov	r1, r4
 5461 005e 42A8     		add	r0, sp, #264
 5462 0060 FFF7FEFF 		bl	hci_send_req
 5463              	.LVL596:
 5464              		.loc 1 1479 6 discriminator 1 view .LVU1950
 5465 0064 A042     		cmp	r0, r4
 5466 0066 03DB     		blt	.L208
1480:Middlewares/ST/BlueNRG-2/hci/controller/bluenrg1_gatt_aci.c ****     return BLE_STATUS_TIMEOUT;
1481:Middlewares/ST/BlueNRG-2/hci/controller/bluenrg1_gatt_aci.c ****   if (status) {
 5467              		.loc 1 1481 3 is_stmt 1 view .LVU1951
 5468              		.loc 1 1481 7 is_stmt 0 view .LVU1952
ARM GAS  C:\Users\IAHERN~1\AppData\Local\Temp\ccP26j2c.s 			page 123


 5469 0068 9DF80300 		ldrb	r0, [sp, #3]	@ zero_extendqisi2
 5470              	.L207:
1482:Middlewares/ST/BlueNRG-2/hci/controller/bluenrg1_gatt_aci.c ****     return status;
1483:Middlewares/ST/BlueNRG-2/hci/controller/bluenrg1_gatt_aci.c ****   }
1484:Middlewares/ST/BlueNRG-2/hci/controller/bluenrg1_gatt_aci.c ****   return BLE_STATUS_SUCCESS;
1485:Middlewares/ST/BlueNRG-2/hci/controller/bluenrg1_gatt_aci.c **** }
 5471              		.loc 1 1485 1 view .LVU1953
 5472 006c 49B0     		add	sp, sp, #292
 5473              		.cfi_remember_state
 5474              		.cfi_def_cfa_offset 20
 5475              		@ sp needed
 5476 006e F0BD     		pop	{r4, r5, r6, r7, pc}
 5477              	.LVL597:
 5478              	.L208:
 5479              		.cfi_restore_state
1480:Middlewares/ST/BlueNRG-2/hci/controller/bluenrg1_gatt_aci.c ****     return BLE_STATUS_TIMEOUT;
 5480              		.loc 1 1480 12 view .LVU1954
 5481 0070 FF20     		movs	r0, #255
 5482 0072 FBE7     		b	.L207
 5483              		.cfi_endproc
 5484              	.LFE177:
 5486              		.section	.text.aci_gatt_read_handle_value,"ax",%progbits
 5487              		.align	1
 5488              		.global	aci_gatt_read_handle_value
 5489              		.syntax unified
 5490              		.thumb
 5491              		.thumb_func
 5493              	aci_gatt_read_handle_value:
 5494              	.LVL598:
 5495              	.LFB178:
1486:Middlewares/ST/BlueNRG-2/hci/controller/bluenrg1_gatt_aci.c **** tBleStatus aci_gatt_read_handle_value(uint16_t Attr_Handle,
1487:Middlewares/ST/BlueNRG-2/hci/controller/bluenrg1_gatt_aci.c ****                                       uint16_t Offset,
1488:Middlewares/ST/BlueNRG-2/hci/controller/bluenrg1_gatt_aci.c ****                                       uint16_t Value_Length_Requested,
1489:Middlewares/ST/BlueNRG-2/hci/controller/bluenrg1_gatt_aci.c ****                                       uint16_t *Length,
1490:Middlewares/ST/BlueNRG-2/hci/controller/bluenrg1_gatt_aci.c ****                                       uint16_t *Value_Length,
1491:Middlewares/ST/BlueNRG-2/hci/controller/bluenrg1_gatt_aci.c ****                                       uint8_t Value[])
1492:Middlewares/ST/BlueNRG-2/hci/controller/bluenrg1_gatt_aci.c **** {
 5496              		.loc 1 1492 1 is_stmt 1 view -0
 5497              		.cfi_startproc
 5498              		@ args = 8, pretend = 0, frame = 416
 5499              		@ frame_needed = 0, uses_anonymous_args = 0
 5500              		.loc 1 1492 1 is_stmt 0 view .LVU1956
 5501 0000 2DE9F047 		push	{r4, r5, r6, r7, r8, r9, r10, lr}
 5502              		.cfi_def_cfa_offset 32
 5503              		.cfi_offset 4, -32
 5504              		.cfi_offset 5, -28
 5505              		.cfi_offset 6, -24
 5506              		.cfi_offset 7, -20
 5507              		.cfi_offset 8, -16
 5508              		.cfi_offset 9, -12
 5509              		.cfi_offset 10, -8
 5510              		.cfi_offset 14, -4
 5511 0004 E8B0     		sub	sp, sp, #416
 5512              		.cfi_def_cfa_offset 448
 5513 0006 0746     		mov	r7, r0
 5514 0008 0E46     		mov	r6, r1
 5515 000a 1546     		mov	r5, r2
ARM GAS  C:\Users\IAHERN~1\AppData\Local\Temp\ccP26j2c.s 			page 124


 5516 000c 9846     		mov	r8, r3
1493:Middlewares/ST/BlueNRG-2/hci/controller/bluenrg1_gatt_aci.c ****   struct hci_request rq;
 5517              		.loc 1 1493 3 is_stmt 1 view .LVU1957
1494:Middlewares/ST/BlueNRG-2/hci/controller/bluenrg1_gatt_aci.c ****   uint8_t cmd_buffer[258];
 5518              		.loc 1 1494 3 view .LVU1958
1495:Middlewares/ST/BlueNRG-2/hci/controller/bluenrg1_gatt_aci.c ****   aci_gatt_read_handle_value_cp0 *cp0 = (aci_gatt_read_handle_value_cp0*)(cmd_buffer);
 5519              		.loc 1 1495 3 view .LVU1959
 5520              	.LVL599:
1496:Middlewares/ST/BlueNRG-2/hci/controller/bluenrg1_gatt_aci.c ****   aci_gatt_read_handle_value_rp0 resp;
 5521              		.loc 1 1496 3 view .LVU1960
1497:Middlewares/ST/BlueNRG-2/hci/controller/bluenrg1_gatt_aci.c ****   BLUENRG_memset(&resp, 0, sizeof(resp));
 5522              		.loc 1 1497 3 view .LVU1961
 5523 000e 0DF1040A 		add	r10, sp, #4
 5524 0012 4FF08009 		mov	r9, #128
 5525 0016 4A46     		mov	r2, r9
 5526              	.LVL600:
 5527              		.loc 1 1497 3 is_stmt 0 view .LVU1962
 5528 0018 0021     		movs	r1, #0
 5529              	.LVL601:
 5530              		.loc 1 1497 3 view .LVU1963
 5531 001a 5046     		mov	r0, r10
 5532              	.LVL602:
 5533              		.loc 1 1497 3 view .LVU1964
 5534 001c FFF7FEFF 		bl	memset
 5535              	.LVL603:
1498:Middlewares/ST/BlueNRG-2/hci/controller/bluenrg1_gatt_aci.c ****   uint8_t index_input = 0;
 5536              		.loc 1 1498 3 is_stmt 1 view .LVU1965
1499:Middlewares/ST/BlueNRG-2/hci/controller/bluenrg1_gatt_aci.c ****   cp0->Attr_Handle = htob(Attr_Handle, 2);
 5537              		.loc 1 1499 3 view .LVU1966
 5538              		.loc 1 1499 20 is_stmt 0 view .LVU1967
 5539 0020 21AC     		add	r4, sp, #132
 5540              	.LVL604:
 5541              		.loc 1 1499 20 view .LVU1968
 5542 0022 ADF88470 		strh	r7, [sp, #132]	@ movhi
1500:Middlewares/ST/BlueNRG-2/hci/controller/bluenrg1_gatt_aci.c ****   index_input += 2;
 5543              		.loc 1 1500 3 is_stmt 1 view .LVU1969
 5544              	.LVL605:
1501:Middlewares/ST/BlueNRG-2/hci/controller/bluenrg1_gatt_aci.c ****   cp0->Offset = htob(Offset, 2);
 5545              		.loc 1 1501 3 view .LVU1970
 5546              		.loc 1 1501 15 is_stmt 0 view .LVU1971
 5547 0026 ADF88660 		strh	r6, [sp, #134]	@ movhi
1502:Middlewares/ST/BlueNRG-2/hci/controller/bluenrg1_gatt_aci.c ****   index_input += 2;
 5548              		.loc 1 1502 3 is_stmt 1 view .LVU1972
 5549              	.LVL606:
1503:Middlewares/ST/BlueNRG-2/hci/controller/bluenrg1_gatt_aci.c ****   cp0->Value_Length_Requested = htob(Value_Length_Requested, 2);
 5550              		.loc 1 1503 3 view .LVU1973
 5551              		.loc 1 1503 31 is_stmt 0 view .LVU1974
 5552 002a ADF88850 		strh	r5, [sp, #136]	@ movhi
1504:Middlewares/ST/BlueNRG-2/hci/controller/bluenrg1_gatt_aci.c ****   index_input += 2;
 5553              		.loc 1 1504 3 is_stmt 1 view .LVU1975
 5554              	.LVL607:
1505:Middlewares/ST/BlueNRG-2/hci/controller/bluenrg1_gatt_aci.c ****   BLUENRG_memset(&rq, 0, sizeof(rq));
 5555              		.loc 1 1505 3 view .LVU1976
 5556 002e 0021     		movs	r1, #0
 5557 0030 6291     		str	r1, [sp, #392]
 5558 0032 6391     		str	r1, [sp, #396]
 5559 0034 6491     		str	r1, [sp, #400]
ARM GAS  C:\Users\IAHERN~1\AppData\Local\Temp\ccP26j2c.s 			page 125


 5560 0036 6591     		str	r1, [sp, #404]
 5561 0038 6691     		str	r1, [sp, #408]
 5562 003a 6791     		str	r1, [sp, #412]
1506:Middlewares/ST/BlueNRG-2/hci/controller/bluenrg1_gatt_aci.c ****   rq.ogf = 0x3f;
 5563              		.loc 1 1506 3 view .LVU1977
 5564              		.loc 1 1506 10 is_stmt 0 view .LVU1978
 5565 003c 3F23     		movs	r3, #63
 5566 003e ADF88831 		strh	r3, [sp, #392]	@ movhi
1507:Middlewares/ST/BlueNRG-2/hci/controller/bluenrg1_gatt_aci.c ****   rq.ocf = 0x12a;
 5567              		.loc 1 1507 3 is_stmt 1 view .LVU1979
 5568              		.loc 1 1507 10 is_stmt 0 view .LVU1980
 5569 0042 4FF49573 		mov	r3, #298
 5570 0046 ADF88A31 		strh	r3, [sp, #394]	@ movhi
1508:Middlewares/ST/BlueNRG-2/hci/controller/bluenrg1_gatt_aci.c ****   rq.cparam = cmd_buffer;
 5571              		.loc 1 1508 3 is_stmt 1 view .LVU1981
 5572              		.loc 1 1508 13 is_stmt 0 view .LVU1982
 5573 004a 6494     		str	r4, [sp, #400]
1509:Middlewares/ST/BlueNRG-2/hci/controller/bluenrg1_gatt_aci.c ****   rq.clen = index_input;
 5574              		.loc 1 1509 3 is_stmt 1 view .LVU1983
 5575              		.loc 1 1509 11 is_stmt 0 view .LVU1984
 5576 004c 0623     		movs	r3, #6
 5577 004e 6593     		str	r3, [sp, #404]
1510:Middlewares/ST/BlueNRG-2/hci/controller/bluenrg1_gatt_aci.c ****   rq.rparam = &resp;
 5578              		.loc 1 1510 3 is_stmt 1 view .LVU1985
 5579              		.loc 1 1510 13 is_stmt 0 view .LVU1986
 5580 0050 CDF898A1 		str	r10, [sp, #408]
1511:Middlewares/ST/BlueNRG-2/hci/controller/bluenrg1_gatt_aci.c ****   rq.rlen = sizeof(resp);
 5581              		.loc 1 1511 3 is_stmt 1 view .LVU1987
 5582              		.loc 1 1511 11 is_stmt 0 view .LVU1988
 5583 0054 CDF89C91 		str	r9, [sp, #412]
1512:Middlewares/ST/BlueNRG-2/hci/controller/bluenrg1_gatt_aci.c ****   if (hci_send_req(&rq, FALSE) < 0)
 5584              		.loc 1 1512 3 is_stmt 1 view .LVU1989
 5585              		.loc 1 1512 7 is_stmt 0 view .LVU1990
 5586 0058 62A8     		add	r0, sp, #392
 5587 005a FFF7FEFF 		bl	hci_send_req
 5588              	.LVL608:
 5589              		.loc 1 1512 6 discriminator 1 view .LVU1991
 5590 005e 0028     		cmp	r0, #0
 5591 0060 15DB     		blt	.L212
1513:Middlewares/ST/BlueNRG-2/hci/controller/bluenrg1_gatt_aci.c ****     return BLE_STATUS_TIMEOUT;
1514:Middlewares/ST/BlueNRG-2/hci/controller/bluenrg1_gatt_aci.c ****   if (resp.Status) {
 5592              		.loc 1 1514 3 is_stmt 1 view .LVU1992
 5593              		.loc 1 1514 11 is_stmt 0 view .LVU1993
 5594 0062 9DF80440 		ldrb	r4, [sp, #4]	@ zero_extendqisi2
 5595              	.LVL609:
 5596              		.loc 1 1514 6 view .LVU1994
 5597 0066 1CB1     		cbz	r4, .L214
 5598              	.L211:
1515:Middlewares/ST/BlueNRG-2/hci/controller/bluenrg1_gatt_aci.c ****     return resp.Status;
1516:Middlewares/ST/BlueNRG-2/hci/controller/bluenrg1_gatt_aci.c ****   }
1517:Middlewares/ST/BlueNRG-2/hci/controller/bluenrg1_gatt_aci.c ****   *Length = btoh(resp.Length, 2);
1518:Middlewares/ST/BlueNRG-2/hci/controller/bluenrg1_gatt_aci.c ****   *Value_Length = btoh(resp.Value_Length, 2);
1519:Middlewares/ST/BlueNRG-2/hci/controller/bluenrg1_gatt_aci.c ****   BLUENRG_memcpy((void *) Value, (const void *) resp.Value, *Value_Length*sizeof(uint8_t));
1520:Middlewares/ST/BlueNRG-2/hci/controller/bluenrg1_gatt_aci.c ****   return BLE_STATUS_SUCCESS;
1521:Middlewares/ST/BlueNRG-2/hci/controller/bluenrg1_gatt_aci.c **** }
 5599              		.loc 1 1521 1 view .LVU1995
 5600 0068 2046     		mov	r0, r4
ARM GAS  C:\Users\IAHERN~1\AppData\Local\Temp\ccP26j2c.s 			page 126


 5601 006a 68B0     		add	sp, sp, #416
 5602              		.cfi_remember_state
 5603              		.cfi_def_cfa_offset 32
 5604              		@ sp needed
 5605 006c BDE8F087 		pop	{r4, r5, r6, r7, r8, r9, r10, pc}
 5606              	.LVL610:
 5607              	.L214:
 5608              		.cfi_restore_state
1517:Middlewares/ST/BlueNRG-2/hci/controller/bluenrg1_gatt_aci.c ****   *Value_Length = btoh(resp.Value_Length, 2);
 5609              		.loc 1 1517 3 is_stmt 1 view .LVU1996
1517:Middlewares/ST/BlueNRG-2/hci/controller/bluenrg1_gatt_aci.c ****   *Value_Length = btoh(resp.Value_Length, 2);
 5610              		.loc 1 1517 13 is_stmt 0 view .LVU1997
 5611 0070 BDF80530 		ldrh	r3, [sp, #5]	@ unaligned
1517:Middlewares/ST/BlueNRG-2/hci/controller/bluenrg1_gatt_aci.c ****   *Value_Length = btoh(resp.Value_Length, 2);
 5612              		.loc 1 1517 11 view .LVU1998
 5613 0074 A8F80030 		strh	r3, [r8]	@ movhi
1518:Middlewares/ST/BlueNRG-2/hci/controller/bluenrg1_gatt_aci.c ****   BLUENRG_memcpy((void *) Value, (const void *) resp.Value, *Value_Length*sizeof(uint8_t));
 5614              		.loc 1 1518 3 is_stmt 1 view .LVU1999
1518:Middlewares/ST/BlueNRG-2/hci/controller/bluenrg1_gatt_aci.c ****   BLUENRG_memcpy((void *) Value, (const void *) resp.Value, *Value_Length*sizeof(uint8_t));
 5615              		.loc 1 1518 19 is_stmt 0 view .LVU2000
 5616 0078 BDF80720 		ldrh	r2, [sp, #7]	@ unaligned
1518:Middlewares/ST/BlueNRG-2/hci/controller/bluenrg1_gatt_aci.c ****   BLUENRG_memcpy((void *) Value, (const void *) resp.Value, *Value_Length*sizeof(uint8_t));
 5617              		.loc 1 1518 17 view .LVU2001
 5618 007c 709B     		ldr	r3, [sp, #448]
 5619 007e 1A80     		strh	r2, [r3]	@ movhi
1519:Middlewares/ST/BlueNRG-2/hci/controller/bluenrg1_gatt_aci.c ****   return BLE_STATUS_SUCCESS;
 5620              		.loc 1 1519 3 is_stmt 1 view .LVU2002
 5621 0080 92B2     		uxth	r2, r2
 5622 0082 0DF10901 		add	r1, sp, #9
 5623 0086 7198     		ldr	r0, [sp, #452]
 5624 0088 FFF7FEFF 		bl	memcpy
 5625              	.LVL611:
1520:Middlewares/ST/BlueNRG-2/hci/controller/bluenrg1_gatt_aci.c **** }
 5626              		.loc 1 1520 3 view .LVU2003
1520:Middlewares/ST/BlueNRG-2/hci/controller/bluenrg1_gatt_aci.c **** }
 5627              		.loc 1 1520 10 is_stmt 0 view .LVU2004
 5628 008c ECE7     		b	.L211
 5629              	.LVL612:
 5630              	.L212:
1513:Middlewares/ST/BlueNRG-2/hci/controller/bluenrg1_gatt_aci.c ****   if (resp.Status) {
 5631              		.loc 1 1513 12 view .LVU2005
 5632 008e FF24     		movs	r4, #255
 5633              	.LVL613:
1513:Middlewares/ST/BlueNRG-2/hci/controller/bluenrg1_gatt_aci.c ****   if (resp.Status) {
 5634              		.loc 1 1513 12 view .LVU2006
 5635 0090 EAE7     		b	.L211
 5636              		.cfi_endproc
 5637              	.LFE178:
 5639              		.section	.text.aci_gatt_update_char_value_ext,"ax",%progbits
 5640              		.align	1
 5641              		.global	aci_gatt_update_char_value_ext
 5642              		.syntax unified
 5643              		.thumb
 5644              		.thumb_func
 5646              	aci_gatt_update_char_value_ext:
 5647              	.LVL614:
 5648              	.LFB179:
ARM GAS  C:\Users\IAHERN~1\AppData\Local\Temp\ccP26j2c.s 			page 127


1522:Middlewares/ST/BlueNRG-2/hci/controller/bluenrg1_gatt_aci.c **** tBleStatus aci_gatt_update_char_value_ext(uint16_t Conn_Handle_To_Notify,
1523:Middlewares/ST/BlueNRG-2/hci/controller/bluenrg1_gatt_aci.c ****                                           uint16_t Service_Handle,
1524:Middlewares/ST/BlueNRG-2/hci/controller/bluenrg1_gatt_aci.c ****                                           uint16_t Char_Handle,
1525:Middlewares/ST/BlueNRG-2/hci/controller/bluenrg1_gatt_aci.c ****                                           uint8_t Update_Type,
1526:Middlewares/ST/BlueNRG-2/hci/controller/bluenrg1_gatt_aci.c ****                                           uint16_t Char_Length,
1527:Middlewares/ST/BlueNRG-2/hci/controller/bluenrg1_gatt_aci.c ****                                           uint16_t Value_Offset,
1528:Middlewares/ST/BlueNRG-2/hci/controller/bluenrg1_gatt_aci.c ****                                           uint8_t Value_Length,
1529:Middlewares/ST/BlueNRG-2/hci/controller/bluenrg1_gatt_aci.c ****                                           uint8_t Value[])
1530:Middlewares/ST/BlueNRG-2/hci/controller/bluenrg1_gatt_aci.c **** {
 5649              		.loc 1 1530 1 is_stmt 1 view -0
 5650              		.cfi_startproc
 5651              		@ args = 16, pretend = 0, frame = 288
 5652              		@ frame_needed = 0, uses_anonymous_args = 0
 5653              		.loc 1 1530 1 is_stmt 0 view .LVU2008
 5654 0000 F0B5     		push	{r4, r5, r6, r7, lr}
 5655              		.cfi_def_cfa_offset 20
 5656              		.cfi_offset 4, -20
 5657              		.cfi_offset 5, -16
 5658              		.cfi_offset 6, -12
 5659              		.cfi_offset 7, -8
 5660              		.cfi_offset 14, -4
 5661 0002 C9B0     		sub	sp, sp, #292
 5662              		.cfi_def_cfa_offset 312
 5663 0004 9DF84061 		ldrb	r6, [sp, #320]	@ zero_extendqisi2
1531:Middlewares/ST/BlueNRG-2/hci/controller/bluenrg1_gatt_aci.c ****   struct hci_request rq;
 5664              		.loc 1 1531 3 is_stmt 1 view .LVU2009
1532:Middlewares/ST/BlueNRG-2/hci/controller/bluenrg1_gatt_aci.c ****   uint8_t cmd_buffer[258];
 5665              		.loc 1 1532 3 view .LVU2010
1533:Middlewares/ST/BlueNRG-2/hci/controller/bluenrg1_gatt_aci.c ****   aci_gatt_update_char_value_ext_cp0 *cp0 = (aci_gatt_update_char_value_ext_cp0*)(cmd_buffer);
 5666              		.loc 1 1533 3 view .LVU2011
 5667              	.LVL615:
1534:Middlewares/ST/BlueNRG-2/hci/controller/bluenrg1_gatt_aci.c ****   tBleStatus status = 0;
 5668              		.loc 1 1534 3 view .LVU2012
 5669              		.loc 1 1534 14 is_stmt 0 view .LVU2013
 5670 0008 0DF10307 		add	r7, sp, #3
 5671 000c 0024     		movs	r4, #0
 5672 000e 8DF80340 		strb	r4, [sp, #3]
1535:Middlewares/ST/BlueNRG-2/hci/controller/bluenrg1_gatt_aci.c ****   uint8_t index_input = 0;
 5673              		.loc 1 1535 3 is_stmt 1 view .LVU2014
 5674              	.LVL616:
1536:Middlewares/ST/BlueNRG-2/hci/controller/bluenrg1_gatt_aci.c ****   cp0->Conn_Handle_To_Notify = htob(Conn_Handle_To_Notify, 2);
 5675              		.loc 1 1536 3 view .LVU2015
 5676              		.loc 1 1536 30 is_stmt 0 view .LVU2016
 5677 0012 01AD     		add	r5, sp, #4
 5678              	.LVL617:
 5679              		.loc 1 1536 30 view .LVU2017
 5680 0014 ADF80400 		strh	r0, [sp, #4]	@ movhi
1537:Middlewares/ST/BlueNRG-2/hci/controller/bluenrg1_gatt_aci.c ****   index_input += 2;
 5681              		.loc 1 1537 3 is_stmt 1 view .LVU2018
 5682              	.LVL618:
1538:Middlewares/ST/BlueNRG-2/hci/controller/bluenrg1_gatt_aci.c ****   cp0->Service_Handle = htob(Service_Handle, 2);
 5683              		.loc 1 1538 3 view .LVU2019
 5684              		.loc 1 1538 23 is_stmt 0 view .LVU2020
 5685 0018 ADF80610 		strh	r1, [sp, #6]	@ movhi
1539:Middlewares/ST/BlueNRG-2/hci/controller/bluenrg1_gatt_aci.c ****   index_input += 2;
 5686              		.loc 1 1539 3 is_stmt 1 view .LVU2021
 5687              	.LVL619:
ARM GAS  C:\Users\IAHERN~1\AppData\Local\Temp\ccP26j2c.s 			page 128


1540:Middlewares/ST/BlueNRG-2/hci/controller/bluenrg1_gatt_aci.c ****   cp0->Char_Handle = htob(Char_Handle, 2);
 5688              		.loc 1 1540 3 view .LVU2022
 5689              		.loc 1 1540 20 is_stmt 0 view .LVU2023
 5690 001c ADF80820 		strh	r2, [sp, #8]	@ movhi
1541:Middlewares/ST/BlueNRG-2/hci/controller/bluenrg1_gatt_aci.c ****   index_input += 2;
 5691              		.loc 1 1541 3 is_stmt 1 view .LVU2024
 5692              	.LVL620:
1542:Middlewares/ST/BlueNRG-2/hci/controller/bluenrg1_gatt_aci.c ****   cp0->Update_Type = htob(Update_Type, 1);
 5693              		.loc 1 1542 3 view .LVU2025
 5694              		.loc 1 1542 20 is_stmt 0 view .LVU2026
 5695 0020 8DF80A30 		strb	r3, [sp, #10]
1543:Middlewares/ST/BlueNRG-2/hci/controller/bluenrg1_gatt_aci.c ****   index_input += 1;
 5696              		.loc 1 1543 3 is_stmt 1 view .LVU2027
 5697              	.LVL621:
1544:Middlewares/ST/BlueNRG-2/hci/controller/bluenrg1_gatt_aci.c ****   cp0->Char_Length = htob(Char_Length, 2);
 5698              		.loc 1 1544 3 view .LVU2028
 5699              		.loc 1 1544 20 is_stmt 0 view .LVU2029
 5700 0024 BDF83831 		ldrh	r3, [sp, #312]
 5701              	.LVL622:
 5702              		.loc 1 1544 20 view .LVU2030
 5703 0028 ADF80B30 		strh	r3, [sp, #11]	@ unaligned
1545:Middlewares/ST/BlueNRG-2/hci/controller/bluenrg1_gatt_aci.c ****   index_input += 2;
 5704              		.loc 1 1545 3 is_stmt 1 view .LVU2031
 5705              	.LVL623:
1546:Middlewares/ST/BlueNRG-2/hci/controller/bluenrg1_gatt_aci.c ****   cp0->Value_Offset = htob(Value_Offset, 2);
 5706              		.loc 1 1546 3 view .LVU2032
 5707              		.loc 1 1546 21 is_stmt 0 view .LVU2033
 5708 002c BDF83C31 		ldrh	r3, [sp, #316]
 5709 0030 ADF80D30 		strh	r3, [sp, #13]	@ unaligned
1547:Middlewares/ST/BlueNRG-2/hci/controller/bluenrg1_gatt_aci.c ****   index_input += 2;
 5710              		.loc 1 1547 3 is_stmt 1 view .LVU2034
 5711              	.LVL624:
1548:Middlewares/ST/BlueNRG-2/hci/controller/bluenrg1_gatt_aci.c ****   cp0->Value_Length = htob(Value_Length, 1);
 5712              		.loc 1 1548 3 view .LVU2035
 5713              		.loc 1 1548 21 is_stmt 0 view .LVU2036
 5714 0034 8DF80F60 		strb	r6, [sp, #15]
1549:Middlewares/ST/BlueNRG-2/hci/controller/bluenrg1_gatt_aci.c ****   index_input += 1;
 5715              		.loc 1 1549 3 is_stmt 1 view .LVU2037
 5716              	.LVL625:
1550:Middlewares/ST/BlueNRG-2/hci/controller/bluenrg1_gatt_aci.c ****   /* var_len_data input */
1551:Middlewares/ST/BlueNRG-2/hci/controller/bluenrg1_gatt_aci.c ****   {
1552:Middlewares/ST/BlueNRG-2/hci/controller/bluenrg1_gatt_aci.c ****     BLUENRG_memcpy((void *) &cp0->Value, (const void *) Value, Value_Length*sizeof(uint8_t));
 5717              		.loc 1 1552 5 view .LVU2038
 5718 0038 3246     		mov	r2, r6
 5719              	.LVL626:
 5720              		.loc 1 1552 5 is_stmt 0 view .LVU2039
 5721 003a 5199     		ldr	r1, [sp, #324]
 5722              	.LVL627:
 5723              		.loc 1 1552 5 view .LVU2040
 5724 003c 04A8     		add	r0, sp, #16
 5725              	.LVL628:
 5726              		.loc 1 1552 5 view .LVU2041
 5727 003e FFF7FEFF 		bl	memcpy
 5728              	.LVL629:
1553:Middlewares/ST/BlueNRG-2/hci/controller/bluenrg1_gatt_aci.c ****     index_input += Value_Length*sizeof(uint8_t);
 5729              		.loc 1 1553 5 is_stmt 1 view .LVU2042
 5730              		.loc 1 1553 17 is_stmt 0 view .LVU2043
ARM GAS  C:\Users\IAHERN~1\AppData\Local\Temp\ccP26j2c.s 			page 129


 5731 0042 0C36     		adds	r6, r6, #12
 5732 0044 F6B2     		uxtb	r6, r6
 5733              	.LVL630:
1554:Middlewares/ST/BlueNRG-2/hci/controller/bluenrg1_gatt_aci.c ****   }
1555:Middlewares/ST/BlueNRG-2/hci/controller/bluenrg1_gatt_aci.c ****   BLUENRG_memset(&rq, 0, sizeof(rq));
 5734              		.loc 1 1555 3 is_stmt 1 view .LVU2044
 5735 0046 4294     		str	r4, [sp, #264]
 5736 0048 4394     		str	r4, [sp, #268]
 5737 004a 4494     		str	r4, [sp, #272]
 5738 004c 4594     		str	r4, [sp, #276]
 5739 004e 4694     		str	r4, [sp, #280]
 5740 0050 4794     		str	r4, [sp, #284]
1556:Middlewares/ST/BlueNRG-2/hci/controller/bluenrg1_gatt_aci.c ****   rq.ogf = 0x3f;
 5741              		.loc 1 1556 3 view .LVU2045
 5742              		.loc 1 1556 10 is_stmt 0 view .LVU2046
 5743 0052 3F23     		movs	r3, #63
 5744 0054 ADF80831 		strh	r3, [sp, #264]	@ movhi
1557:Middlewares/ST/BlueNRG-2/hci/controller/bluenrg1_gatt_aci.c ****   rq.ocf = 0x12c;
 5745              		.loc 1 1557 3 is_stmt 1 view .LVU2047
 5746              		.loc 1 1557 10 is_stmt 0 view .LVU2048
 5747 0058 4FF49673 		mov	r3, #300
 5748 005c ADF80A31 		strh	r3, [sp, #266]	@ movhi
1558:Middlewares/ST/BlueNRG-2/hci/controller/bluenrg1_gatt_aci.c ****   rq.cparam = cmd_buffer;
 5749              		.loc 1 1558 3 is_stmt 1 view .LVU2049
 5750              		.loc 1 1558 13 is_stmt 0 view .LVU2050
 5751 0060 4495     		str	r5, [sp, #272]
1559:Middlewares/ST/BlueNRG-2/hci/controller/bluenrg1_gatt_aci.c ****   rq.clen = index_input;
 5752              		.loc 1 1559 3 is_stmt 1 view .LVU2051
 5753              		.loc 1 1559 11 is_stmt 0 view .LVU2052
 5754 0062 4596     		str	r6, [sp, #276]
1560:Middlewares/ST/BlueNRG-2/hci/controller/bluenrg1_gatt_aci.c ****   rq.rparam = &status;
 5755              		.loc 1 1560 3 is_stmt 1 view .LVU2053
 5756              		.loc 1 1560 13 is_stmt 0 view .LVU2054
 5757 0064 4697     		str	r7, [sp, #280]
1561:Middlewares/ST/BlueNRG-2/hci/controller/bluenrg1_gatt_aci.c ****   rq.rlen = 1;
 5758              		.loc 1 1561 3 is_stmt 1 view .LVU2055
 5759              		.loc 1 1561 11 is_stmt 0 view .LVU2056
 5760 0066 0123     		movs	r3, #1
 5761 0068 4793     		str	r3, [sp, #284]
1562:Middlewares/ST/BlueNRG-2/hci/controller/bluenrg1_gatt_aci.c ****   if (hci_send_req(&rq, FALSE) < 0)
 5762              		.loc 1 1562 3 is_stmt 1 view .LVU2057
 5763              		.loc 1 1562 7 is_stmt 0 view .LVU2058
 5764 006a 2146     		mov	r1, r4
 5765 006c 42A8     		add	r0, sp, #264
 5766 006e FFF7FEFF 		bl	hci_send_req
 5767              	.LVL631:
 5768              		.loc 1 1562 6 discriminator 1 view .LVU2059
 5769 0072 A042     		cmp	r0, r4
 5770 0074 03DB     		blt	.L217
1563:Middlewares/ST/BlueNRG-2/hci/controller/bluenrg1_gatt_aci.c ****     return BLE_STATUS_TIMEOUT;
1564:Middlewares/ST/BlueNRG-2/hci/controller/bluenrg1_gatt_aci.c ****   if (status) {
 5771              		.loc 1 1564 3 is_stmt 1 view .LVU2060
 5772              		.loc 1 1564 7 is_stmt 0 view .LVU2061
 5773 0076 9DF80300 		ldrb	r0, [sp, #3]	@ zero_extendqisi2
 5774              	.L216:
1565:Middlewares/ST/BlueNRG-2/hci/controller/bluenrg1_gatt_aci.c ****     return status;
1566:Middlewares/ST/BlueNRG-2/hci/controller/bluenrg1_gatt_aci.c ****   }
ARM GAS  C:\Users\IAHERN~1\AppData\Local\Temp\ccP26j2c.s 			page 130


1567:Middlewares/ST/BlueNRG-2/hci/controller/bluenrg1_gatt_aci.c ****   return BLE_STATUS_SUCCESS;
1568:Middlewares/ST/BlueNRG-2/hci/controller/bluenrg1_gatt_aci.c **** }
 5775              		.loc 1 1568 1 view .LVU2062
 5776 007a 49B0     		add	sp, sp, #292
 5777              		.cfi_remember_state
 5778              		.cfi_def_cfa_offset 20
 5779              		@ sp needed
 5780 007c F0BD     		pop	{r4, r5, r6, r7, pc}
 5781              	.LVL632:
 5782              	.L217:
 5783              		.cfi_restore_state
1563:Middlewares/ST/BlueNRG-2/hci/controller/bluenrg1_gatt_aci.c ****     return BLE_STATUS_TIMEOUT;
 5784              		.loc 1 1563 12 view .LVU2063
 5785 007e FF20     		movs	r0, #255
 5786 0080 FBE7     		b	.L216
 5787              		.cfi_endproc
 5788              	.LFE179:
 5790              		.section	.text.aci_gatt_deny_read,"ax",%progbits
 5791              		.align	1
 5792              		.global	aci_gatt_deny_read
 5793              		.syntax unified
 5794              		.thumb
 5795              		.thumb_func
 5797              	aci_gatt_deny_read:
 5798              	.LVL633:
 5799              	.LFB180:
1569:Middlewares/ST/BlueNRG-2/hci/controller/bluenrg1_gatt_aci.c **** tBleStatus aci_gatt_deny_read(uint16_t Connection_Handle,
1570:Middlewares/ST/BlueNRG-2/hci/controller/bluenrg1_gatt_aci.c ****                               uint8_t Error_Code)
1571:Middlewares/ST/BlueNRG-2/hci/controller/bluenrg1_gatt_aci.c **** {
 5800              		.loc 1 1571 1 is_stmt 1 view -0
 5801              		.cfi_startproc
 5802              		@ args = 0, pretend = 0, frame = 288
 5803              		@ frame_needed = 0, uses_anonymous_args = 0
 5804              		.loc 1 1571 1 is_stmt 0 view .LVU2065
 5805 0000 10B5     		push	{r4, lr}
 5806              		.cfi_def_cfa_offset 8
 5807              		.cfi_offset 4, -8
 5808              		.cfi_offset 14, -4
 5809 0002 C8B0     		sub	sp, sp, #288
 5810              		.cfi_def_cfa_offset 296
1572:Middlewares/ST/BlueNRG-2/hci/controller/bluenrg1_gatt_aci.c ****   struct hci_request rq;
 5811              		.loc 1 1572 3 is_stmt 1 view .LVU2066
1573:Middlewares/ST/BlueNRG-2/hci/controller/bluenrg1_gatt_aci.c ****   uint8_t cmd_buffer[258];
 5812              		.loc 1 1573 3 view .LVU2067
1574:Middlewares/ST/BlueNRG-2/hci/controller/bluenrg1_gatt_aci.c ****   aci_gatt_deny_read_cp0 *cp0 = (aci_gatt_deny_read_cp0*)(cmd_buffer);
 5813              		.loc 1 1574 3 view .LVU2068
 5814              	.LVL634:
1575:Middlewares/ST/BlueNRG-2/hci/controller/bluenrg1_gatt_aci.c ****   tBleStatus status = 0;
 5815              		.loc 1 1575 3 view .LVU2069
 5816              		.loc 1 1575 14 is_stmt 0 view .LVU2070
 5817 0004 0DF10304 		add	r4, sp, #3
 5818 0008 0023     		movs	r3, #0
 5819 000a 8DF80330 		strb	r3, [sp, #3]
1576:Middlewares/ST/BlueNRG-2/hci/controller/bluenrg1_gatt_aci.c ****   uint8_t index_input = 0;
 5820              		.loc 1 1576 3 is_stmt 1 view .LVU2071
 5821              	.LVL635:
1577:Middlewares/ST/BlueNRG-2/hci/controller/bluenrg1_gatt_aci.c ****   cp0->Connection_Handle = htob(Connection_Handle, 2);
ARM GAS  C:\Users\IAHERN~1\AppData\Local\Temp\ccP26j2c.s 			page 131


 5822              		.loc 1 1577 3 view .LVU2072
 5823              		.loc 1 1577 26 is_stmt 0 view .LVU2073
 5824 000e 01AA     		add	r2, sp, #4
 5825              	.LVL636:
 5826              		.loc 1 1577 26 view .LVU2074
 5827 0010 ADF80400 		strh	r0, [sp, #4]	@ movhi
1578:Middlewares/ST/BlueNRG-2/hci/controller/bluenrg1_gatt_aci.c ****   index_input += 2;
 5828              		.loc 1 1578 3 is_stmt 1 view .LVU2075
 5829              	.LVL637:
1579:Middlewares/ST/BlueNRG-2/hci/controller/bluenrg1_gatt_aci.c ****   cp0->Error_Code = htob(Error_Code, 1);
 5830              		.loc 1 1579 3 view .LVU2076
 5831              		.loc 1 1579 19 is_stmt 0 view .LVU2077
 5832 0014 8DF80610 		strb	r1, [sp, #6]
1580:Middlewares/ST/BlueNRG-2/hci/controller/bluenrg1_gatt_aci.c ****   index_input += 1;
 5833              		.loc 1 1580 3 is_stmt 1 view .LVU2078
 5834              	.LVL638:
1581:Middlewares/ST/BlueNRG-2/hci/controller/bluenrg1_gatt_aci.c ****   BLUENRG_memset(&rq, 0, sizeof(rq));
 5835              		.loc 1 1581 3 view .LVU2079
 5836 0018 4293     		str	r3, [sp, #264]
 5837 001a 4393     		str	r3, [sp, #268]
 5838 001c 4493     		str	r3, [sp, #272]
 5839 001e 4593     		str	r3, [sp, #276]
 5840 0020 4693     		str	r3, [sp, #280]
 5841 0022 4793     		str	r3, [sp, #284]
1582:Middlewares/ST/BlueNRG-2/hci/controller/bluenrg1_gatt_aci.c ****   rq.ogf = 0x3f;
 5842              		.loc 1 1582 3 view .LVU2080
 5843              		.loc 1 1582 10 is_stmt 0 view .LVU2081
 5844 0024 3F21     		movs	r1, #63
 5845              	.LVL639:
 5846              		.loc 1 1582 10 view .LVU2082
 5847 0026 ADF80811 		strh	r1, [sp, #264]	@ movhi
1583:Middlewares/ST/BlueNRG-2/hci/controller/bluenrg1_gatt_aci.c ****   rq.ocf = 0x12d;
 5848              		.loc 1 1583 3 is_stmt 1 view .LVU2083
 5849              		.loc 1 1583 10 is_stmt 0 view .LVU2084
 5850 002a 40F22D11 		movw	r1, #301
 5851 002e ADF80A11 		strh	r1, [sp, #266]	@ movhi
1584:Middlewares/ST/BlueNRG-2/hci/controller/bluenrg1_gatt_aci.c ****   rq.cparam = cmd_buffer;
 5852              		.loc 1 1584 3 is_stmt 1 view .LVU2085
 5853              		.loc 1 1584 13 is_stmt 0 view .LVU2086
 5854 0032 4492     		str	r2, [sp, #272]
1585:Middlewares/ST/BlueNRG-2/hci/controller/bluenrg1_gatt_aci.c ****   rq.clen = index_input;
 5855              		.loc 1 1585 3 is_stmt 1 view .LVU2087
 5856              		.loc 1 1585 11 is_stmt 0 view .LVU2088
 5857 0034 0322     		movs	r2, #3
 5858              	.LVL640:
 5859              		.loc 1 1585 11 view .LVU2089
 5860 0036 4592     		str	r2, [sp, #276]
1586:Middlewares/ST/BlueNRG-2/hci/controller/bluenrg1_gatt_aci.c ****   rq.rparam = &status;
 5861              		.loc 1 1586 3 is_stmt 1 view .LVU2090
 5862              		.loc 1 1586 13 is_stmt 0 view .LVU2091
 5863 0038 4694     		str	r4, [sp, #280]
1587:Middlewares/ST/BlueNRG-2/hci/controller/bluenrg1_gatt_aci.c ****   rq.rlen = 1;
 5864              		.loc 1 1587 3 is_stmt 1 view .LVU2092
 5865              		.loc 1 1587 11 is_stmt 0 view .LVU2093
 5866 003a 0122     		movs	r2, #1
 5867 003c 4792     		str	r2, [sp, #284]
1588:Middlewares/ST/BlueNRG-2/hci/controller/bluenrg1_gatt_aci.c ****   if (hci_send_req(&rq, FALSE) < 0)
ARM GAS  C:\Users\IAHERN~1\AppData\Local\Temp\ccP26j2c.s 			page 132


 5868              		.loc 1 1588 3 is_stmt 1 view .LVU2094
 5869              		.loc 1 1588 7 is_stmt 0 view .LVU2095
 5870 003e 1946     		mov	r1, r3
 5871 0040 42A8     		add	r0, sp, #264
 5872              	.LVL641:
 5873              		.loc 1 1588 7 view .LVU2096
 5874 0042 FFF7FEFF 		bl	hci_send_req
 5875              	.LVL642:
 5876              		.loc 1 1588 6 discriminator 1 view .LVU2097
 5877 0046 0028     		cmp	r0, #0
 5878 0048 03DB     		blt	.L221
1589:Middlewares/ST/BlueNRG-2/hci/controller/bluenrg1_gatt_aci.c ****     return BLE_STATUS_TIMEOUT;
1590:Middlewares/ST/BlueNRG-2/hci/controller/bluenrg1_gatt_aci.c ****   if (status) {
 5879              		.loc 1 1590 3 is_stmt 1 view .LVU2098
 5880              		.loc 1 1590 7 is_stmt 0 view .LVU2099
 5881 004a 9DF80300 		ldrb	r0, [sp, #3]	@ zero_extendqisi2
 5882              	.L220:
1591:Middlewares/ST/BlueNRG-2/hci/controller/bluenrg1_gatt_aci.c ****     return status;
1592:Middlewares/ST/BlueNRG-2/hci/controller/bluenrg1_gatt_aci.c ****   }
1593:Middlewares/ST/BlueNRG-2/hci/controller/bluenrg1_gatt_aci.c ****   return BLE_STATUS_SUCCESS;
1594:Middlewares/ST/BlueNRG-2/hci/controller/bluenrg1_gatt_aci.c **** }
 5883              		.loc 1 1594 1 view .LVU2100
 5884 004e 48B0     		add	sp, sp, #288
 5885              		.cfi_remember_state
 5886              		.cfi_def_cfa_offset 8
 5887              		@ sp needed
 5888 0050 10BD     		pop	{r4, pc}
 5889              	.LVL643:
 5890              	.L221:
 5891              		.cfi_restore_state
1589:Middlewares/ST/BlueNRG-2/hci/controller/bluenrg1_gatt_aci.c ****     return BLE_STATUS_TIMEOUT;
 5892              		.loc 1 1589 12 view .LVU2101
 5893 0052 FF20     		movs	r0, #255
 5894 0054 FBE7     		b	.L220
 5895              		.cfi_endproc
 5896              	.LFE180:
 5898              		.section	.text.aci_gatt_set_access_permission,"ax",%progbits
 5899              		.align	1
 5900              		.global	aci_gatt_set_access_permission
 5901              		.syntax unified
 5902              		.thumb
 5903              		.thumb_func
 5905              	aci_gatt_set_access_permission:
 5906              	.LVL644:
 5907              	.LFB181:
1595:Middlewares/ST/BlueNRG-2/hci/controller/bluenrg1_gatt_aci.c **** tBleStatus aci_gatt_set_access_permission(uint16_t Serv_Handle,
1596:Middlewares/ST/BlueNRG-2/hci/controller/bluenrg1_gatt_aci.c ****                                           uint16_t Attr_Handle,
1597:Middlewares/ST/BlueNRG-2/hci/controller/bluenrg1_gatt_aci.c ****                                           uint8_t Access_Permissions)
1598:Middlewares/ST/BlueNRG-2/hci/controller/bluenrg1_gatt_aci.c **** {
 5908              		.loc 1 1598 1 is_stmt 1 view -0
 5909              		.cfi_startproc
 5910              		@ args = 0, pretend = 0, frame = 288
 5911              		@ frame_needed = 0, uses_anonymous_args = 0
 5912              		.loc 1 1598 1 is_stmt 0 view .LVU2103
 5913 0000 30B5     		push	{r4, r5, lr}
 5914              		.cfi_def_cfa_offset 12
 5915              		.cfi_offset 4, -12
ARM GAS  C:\Users\IAHERN~1\AppData\Local\Temp\ccP26j2c.s 			page 133


 5916              		.cfi_offset 5, -8
 5917              		.cfi_offset 14, -4
 5918 0002 C9B0     		sub	sp, sp, #292
 5919              		.cfi_def_cfa_offset 304
1599:Middlewares/ST/BlueNRG-2/hci/controller/bluenrg1_gatt_aci.c ****   struct hci_request rq;
 5920              		.loc 1 1599 3 is_stmt 1 view .LVU2104
1600:Middlewares/ST/BlueNRG-2/hci/controller/bluenrg1_gatt_aci.c ****   uint8_t cmd_buffer[258];
 5921              		.loc 1 1600 3 view .LVU2105
1601:Middlewares/ST/BlueNRG-2/hci/controller/bluenrg1_gatt_aci.c ****   aci_gatt_set_access_permission_cp0 *cp0 = (aci_gatt_set_access_permission_cp0*)(cmd_buffer);
 5922              		.loc 1 1601 3 view .LVU2106
 5923              	.LVL645:
1602:Middlewares/ST/BlueNRG-2/hci/controller/bluenrg1_gatt_aci.c ****   tBleStatus status = 0;
 5924              		.loc 1 1602 3 view .LVU2107
 5925              		.loc 1 1602 14 is_stmt 0 view .LVU2108
 5926 0004 0DF10305 		add	r5, sp, #3
 5927 0008 0023     		movs	r3, #0
 5928 000a 8DF80330 		strb	r3, [sp, #3]
1603:Middlewares/ST/BlueNRG-2/hci/controller/bluenrg1_gatt_aci.c ****   uint8_t index_input = 0;
 5929              		.loc 1 1603 3 is_stmt 1 view .LVU2109
 5930              	.LVL646:
1604:Middlewares/ST/BlueNRG-2/hci/controller/bluenrg1_gatt_aci.c ****   cp0->Serv_Handle = htob(Serv_Handle, 2);
 5931              		.loc 1 1604 3 view .LVU2110
 5932              		.loc 1 1604 20 is_stmt 0 view .LVU2111
 5933 000e 01AC     		add	r4, sp, #4
 5934              	.LVL647:
 5935              		.loc 1 1604 20 view .LVU2112
 5936 0010 ADF80400 		strh	r0, [sp, #4]	@ movhi
1605:Middlewares/ST/BlueNRG-2/hci/controller/bluenrg1_gatt_aci.c ****   index_input += 2;
 5937              		.loc 1 1605 3 is_stmt 1 view .LVU2113
 5938              	.LVL648:
1606:Middlewares/ST/BlueNRG-2/hci/controller/bluenrg1_gatt_aci.c ****   cp0->Attr_Handle = htob(Attr_Handle, 2);
 5939              		.loc 1 1606 3 view .LVU2114
 5940              		.loc 1 1606 20 is_stmt 0 view .LVU2115
 5941 0014 ADF80610 		strh	r1, [sp, #6]	@ movhi
1607:Middlewares/ST/BlueNRG-2/hci/controller/bluenrg1_gatt_aci.c ****   index_input += 2;
 5942              		.loc 1 1607 3 is_stmt 1 view .LVU2116
 5943              	.LVL649:
1608:Middlewares/ST/BlueNRG-2/hci/controller/bluenrg1_gatt_aci.c ****   cp0->Access_Permissions = htob(Access_Permissions, 1);
 5944              		.loc 1 1608 3 view .LVU2117
 5945              		.loc 1 1608 27 is_stmt 0 view .LVU2118
 5946 0018 8DF80820 		strb	r2, [sp, #8]
1609:Middlewares/ST/BlueNRG-2/hci/controller/bluenrg1_gatt_aci.c ****   index_input += 1;
 5947              		.loc 1 1609 3 is_stmt 1 view .LVU2119
 5948              	.LVL650:
1610:Middlewares/ST/BlueNRG-2/hci/controller/bluenrg1_gatt_aci.c ****   BLUENRG_memset(&rq, 0, sizeof(rq));
 5949              		.loc 1 1610 3 view .LVU2120
 5950 001c 4293     		str	r3, [sp, #264]
 5951 001e 4393     		str	r3, [sp, #268]
 5952 0020 4493     		str	r3, [sp, #272]
 5953 0022 4593     		str	r3, [sp, #276]
 5954 0024 4693     		str	r3, [sp, #280]
 5955 0026 4793     		str	r3, [sp, #284]
1611:Middlewares/ST/BlueNRG-2/hci/controller/bluenrg1_gatt_aci.c ****   rq.ogf = 0x3f;
 5956              		.loc 1 1611 3 view .LVU2121
 5957              		.loc 1 1611 10 is_stmt 0 view .LVU2122
 5958 0028 3F22     		movs	r2, #63
 5959              	.LVL651:
ARM GAS  C:\Users\IAHERN~1\AppData\Local\Temp\ccP26j2c.s 			page 134


 5960              		.loc 1 1611 10 view .LVU2123
 5961 002a ADF80821 		strh	r2, [sp, #264]	@ movhi
1612:Middlewares/ST/BlueNRG-2/hci/controller/bluenrg1_gatt_aci.c ****   rq.ocf = 0x12e;
 5962              		.loc 1 1612 3 is_stmt 1 view .LVU2124
 5963              		.loc 1 1612 10 is_stmt 0 view .LVU2125
 5964 002e 4FF49772 		mov	r2, #302
 5965 0032 ADF80A21 		strh	r2, [sp, #266]	@ movhi
1613:Middlewares/ST/BlueNRG-2/hci/controller/bluenrg1_gatt_aci.c ****   rq.cparam = cmd_buffer;
 5966              		.loc 1 1613 3 is_stmt 1 view .LVU2126
 5967              		.loc 1 1613 13 is_stmt 0 view .LVU2127
 5968 0036 4494     		str	r4, [sp, #272]
1614:Middlewares/ST/BlueNRG-2/hci/controller/bluenrg1_gatt_aci.c ****   rq.clen = index_input;
 5969              		.loc 1 1614 3 is_stmt 1 view .LVU2128
 5970              		.loc 1 1614 11 is_stmt 0 view .LVU2129
 5971 0038 0522     		movs	r2, #5
 5972 003a 4592     		str	r2, [sp, #276]
1615:Middlewares/ST/BlueNRG-2/hci/controller/bluenrg1_gatt_aci.c ****   rq.rparam = &status;
 5973              		.loc 1 1615 3 is_stmt 1 view .LVU2130
 5974              		.loc 1 1615 13 is_stmt 0 view .LVU2131
 5975 003c 4695     		str	r5, [sp, #280]
1616:Middlewares/ST/BlueNRG-2/hci/controller/bluenrg1_gatt_aci.c ****   rq.rlen = 1;
 5976              		.loc 1 1616 3 is_stmt 1 view .LVU2132
 5977              		.loc 1 1616 11 is_stmt 0 view .LVU2133
 5978 003e 0122     		movs	r2, #1
 5979 0040 4792     		str	r2, [sp, #284]
1617:Middlewares/ST/BlueNRG-2/hci/controller/bluenrg1_gatt_aci.c ****   if (hci_send_req(&rq, FALSE) < 0)
 5980              		.loc 1 1617 3 is_stmt 1 view .LVU2134
 5981              		.loc 1 1617 7 is_stmt 0 view .LVU2135
 5982 0042 1946     		mov	r1, r3
 5983              	.LVL652:
 5984              		.loc 1 1617 7 view .LVU2136
 5985 0044 42A8     		add	r0, sp, #264
 5986              	.LVL653:
 5987              		.loc 1 1617 7 view .LVU2137
 5988 0046 FFF7FEFF 		bl	hci_send_req
 5989              	.LVL654:
 5990              		.loc 1 1617 6 discriminator 1 view .LVU2138
 5991 004a 0028     		cmp	r0, #0
 5992 004c 03DB     		blt	.L225
1618:Middlewares/ST/BlueNRG-2/hci/controller/bluenrg1_gatt_aci.c ****     return BLE_STATUS_TIMEOUT;
1619:Middlewares/ST/BlueNRG-2/hci/controller/bluenrg1_gatt_aci.c ****   if (status) {
 5993              		.loc 1 1619 3 is_stmt 1 view .LVU2139
 5994              		.loc 1 1619 7 is_stmt 0 view .LVU2140
 5995 004e 9DF80300 		ldrb	r0, [sp, #3]	@ zero_extendqisi2
 5996              	.L224:
1620:Middlewares/ST/BlueNRG-2/hci/controller/bluenrg1_gatt_aci.c ****     return status;
1621:Middlewares/ST/BlueNRG-2/hci/controller/bluenrg1_gatt_aci.c ****   }
1622:Middlewares/ST/BlueNRG-2/hci/controller/bluenrg1_gatt_aci.c ****   return BLE_STATUS_SUCCESS;
1623:Middlewares/ST/BlueNRG-2/hci/controller/bluenrg1_gatt_aci.c **** }
 5997              		.loc 1 1623 1 view .LVU2141
 5998 0052 49B0     		add	sp, sp, #292
 5999              		.cfi_remember_state
 6000              		.cfi_def_cfa_offset 12
 6001              		@ sp needed
 6002 0054 30BD     		pop	{r4, r5, pc}
 6003              	.LVL655:
 6004              	.L225:
ARM GAS  C:\Users\IAHERN~1\AppData\Local\Temp\ccP26j2c.s 			page 135


 6005              		.cfi_restore_state
1618:Middlewares/ST/BlueNRG-2/hci/controller/bluenrg1_gatt_aci.c ****     return BLE_STATUS_TIMEOUT;
 6006              		.loc 1 1618 12 view .LVU2142
 6007 0056 FF20     		movs	r0, #255
 6008 0058 FBE7     		b	.L224
 6009              		.cfi_endproc
 6010              	.LFE181:
 6012              		.text
 6013              	.Letext0:
 6014              		.file 2 "C:/Users/iahernandez/AppData/Roaming/Code/User/globalStorage/bmd.stm32-for-vscode/@xpack-
 6015              		.file 3 "C:/Users/iahernandez/AppData/Roaming/Code/User/globalStorage/bmd.stm32-for-vscode/@xpack-
 6016              		.file 4 "Middlewares/ST/BlueNRG-2/includes/ble_types.h"
 6017              		.file 5 "C:/Users/iahernandez/AppData/Roaming/Code/User/globalStorage/bmd.stm32-for-vscode/@xpack-
 6018              		.file 6 "Middlewares/ST/BlueNRG-2/hci/hci_tl_patterns/Basic/hci_tl.h"
 6019              		.file 7 "Middlewares/ST/BlueNRG-2/includes/bluenrg1_types.h"
 6020              		.file 8 "Middlewares/ST/BlueNRG-2/includes/bluenrg1_gatt_aci.h"
 6021              		.file 9 "C:/Users/iahernandez/AppData/Roaming/Code/User/globalStorage/bmd.stm32-for-vscode/@xpack-
 6022              		.file 10 "<built-in>"
ARM GAS  C:\Users\IAHERN~1\AppData\Local\Temp\ccP26j2c.s 			page 136


DEFINED SYMBOLS
                            *ABS*:00000000 bluenrg1_gatt_aci.c
C:\Users\IAHERN~1\AppData\Local\Temp\ccP26j2c.s:21     .text.aci_gatt_init:00000000 $t
C:\Users\IAHERN~1\AppData\Local\Temp\ccP26j2c.s:27     .text.aci_gatt_init:00000000 aci_gatt_init
C:\Users\IAHERN~1\AppData\Local\Temp\ccP26j2c.s:93     .text.aci_gatt_add_service:00000000 $t
C:\Users\IAHERN~1\AppData\Local\Temp\ccP26j2c.s:99     .text.aci_gatt_add_service:00000000 aci_gatt_add_service
C:\Users\IAHERN~1\AppData\Local\Temp\ccP26j2c.s:287    .text.aci_gatt_include_service:00000000 $t
C:\Users\IAHERN~1\AppData\Local\Temp\ccP26j2c.s:293    .text.aci_gatt_include_service:00000000 aci_gatt_include_service
C:\Users\IAHERN~1\AppData\Local\Temp\ccP26j2c.s:453    .text.aci_gatt_add_char:00000000 $t
C:\Users\IAHERN~1\AppData\Local\Temp\ccP26j2c.s:459    .text.aci_gatt_add_char:00000000 aci_gatt_add_char
C:\Users\IAHERN~1\AppData\Local\Temp\ccP26j2c.s:679    .text.aci_gatt_add_char_desc:00000000 $t
C:\Users\IAHERN~1\AppData\Local\Temp\ccP26j2c.s:685    .text.aci_gatt_add_char_desc:00000000 aci_gatt_add_char_desc
C:\Users\IAHERN~1\AppData\Local\Temp\ccP26j2c.s:960    .text.aci_gatt_update_char_value:00000000 $t
C:\Users\IAHERN~1\AppData\Local\Temp\ccP26j2c.s:966    .text.aci_gatt_update_char_value:00000000 aci_gatt_update_char_value
C:\Users\IAHERN~1\AppData\Local\Temp\ccP26j2c.s:1094   .text.aci_gatt_del_char:00000000 $t
C:\Users\IAHERN~1\AppData\Local\Temp\ccP26j2c.s:1100   .text.aci_gatt_del_char:00000000 aci_gatt_del_char
C:\Users\IAHERN~1\AppData\Local\Temp\ccP26j2c.s:1202   .text.aci_gatt_del_service:00000000 $t
C:\Users\IAHERN~1\AppData\Local\Temp\ccP26j2c.s:1208   .text.aci_gatt_del_service:00000000 aci_gatt_del_service
C:\Users\IAHERN~1\AppData\Local\Temp\ccP26j2c.s:1301   .text.aci_gatt_del_include_service:00000000 $t
C:\Users\IAHERN~1\AppData\Local\Temp\ccP26j2c.s:1307   .text.aci_gatt_del_include_service:00000000 aci_gatt_del_include_service
C:\Users\IAHERN~1\AppData\Local\Temp\ccP26j2c.s:1409   .text.aci_gatt_set_event_mask:00000000 $t
C:\Users\IAHERN~1\AppData\Local\Temp\ccP26j2c.s:1415   .text.aci_gatt_set_event_mask:00000000 aci_gatt_set_event_mask
C:\Users\IAHERN~1\AppData\Local\Temp\ccP26j2c.s:1508   .text.aci_gatt_exchange_config:00000000 $t
C:\Users\IAHERN~1\AppData\Local\Temp\ccP26j2c.s:1514   .text.aci_gatt_exchange_config:00000000 aci_gatt_exchange_config
C:\Users\IAHERN~1\AppData\Local\Temp\ccP26j2c.s:1611   .text.aci_att_find_info_req:00000000 $t
C:\Users\IAHERN~1\AppData\Local\Temp\ccP26j2c.s:1617   .text.aci_att_find_info_req:00000000 aci_att_find_info_req
C:\Users\IAHERN~1\AppData\Local\Temp\ccP26j2c.s:1729   .text.aci_att_find_by_type_value_req:00000000 $t
C:\Users\IAHERN~1\AppData\Local\Temp\ccP26j2c.s:1735   .text.aci_att_find_by_type_value_req:00000000 aci_att_find_by_type_value_req
C:\Users\IAHERN~1\AppData\Local\Temp\ccP26j2c.s:1870   .text.aci_att_read_by_type_req:00000000 $t
C:\Users\IAHERN~1\AppData\Local\Temp\ccP26j2c.s:1876   .text.aci_att_read_by_type_req:00000000 aci_att_read_by_type_req
C:\Users\IAHERN~1\AppData\Local\Temp\ccP26j2c.s:2031   .text.aci_att_read_by_group_type_req:00000000 $t
C:\Users\IAHERN~1\AppData\Local\Temp\ccP26j2c.s:2037   .text.aci_att_read_by_group_type_req:00000000 aci_att_read_by_group_type_req
C:\Users\IAHERN~1\AppData\Local\Temp\ccP26j2c.s:2192   .text.aci_att_prepare_write_req:00000000 $t
C:\Users\IAHERN~1\AppData\Local\Temp\ccP26j2c.s:2198   .text.aci_att_prepare_write_req:00000000 aci_att_prepare_write_req
C:\Users\IAHERN~1\AppData\Local\Temp\ccP26j2c.s:2330   .text.aci_att_execute_write_req:00000000 $t
C:\Users\IAHERN~1\AppData\Local\Temp\ccP26j2c.s:2336   .text.aci_att_execute_write_req:00000000 aci_att_execute_write_req
C:\Users\IAHERN~1\AppData\Local\Temp\ccP26j2c.s:2442   .text.aci_gatt_disc_all_primary_services:00000000 $t
C:\Users\IAHERN~1\AppData\Local\Temp\ccP26j2c.s:2448   .text.aci_gatt_disc_all_primary_services:00000000 aci_gatt_disc_all_primary_services
C:\Users\IAHERN~1\AppData\Local\Temp\ccP26j2c.s:2545   .text.aci_gatt_disc_primary_service_by_uuid:00000000 $t
C:\Users\IAHERN~1\AppData\Local\Temp\ccP26j2c.s:2551   .text.aci_gatt_disc_primary_service_by_uuid:00000000 aci_gatt_disc_primary_service_by_uuid
C:\Users\IAHERN~1\AppData\Local\Temp\ccP26j2c.s:2695   .text.aci_gatt_find_included_services:00000000 $t
C:\Users\IAHERN~1\AppData\Local\Temp\ccP26j2c.s:2701   .text.aci_gatt_find_included_services:00000000 aci_gatt_find_included_services
C:\Users\IAHERN~1\AppData\Local\Temp\ccP26j2c.s:2813   .text.aci_gatt_disc_all_char_of_service:00000000 $t
C:\Users\IAHERN~1\AppData\Local\Temp\ccP26j2c.s:2819   .text.aci_gatt_disc_all_char_of_service:00000000 aci_gatt_disc_all_char_of_service
C:\Users\IAHERN~1\AppData\Local\Temp\ccP26j2c.s:2931   .text.aci_gatt_disc_char_by_uuid:00000000 $t
C:\Users\IAHERN~1\AppData\Local\Temp\ccP26j2c.s:2937   .text.aci_gatt_disc_char_by_uuid:00000000 aci_gatt_disc_char_by_uuid
C:\Users\IAHERN~1\AppData\Local\Temp\ccP26j2c.s:3092   .text.aci_gatt_disc_all_char_desc:00000000 $t
C:\Users\IAHERN~1\AppData\Local\Temp\ccP26j2c.s:3098   .text.aci_gatt_disc_all_char_desc:00000000 aci_gatt_disc_all_char_desc
C:\Users\IAHERN~1\AppData\Local\Temp\ccP26j2c.s:3210   .text.aci_gatt_read_char_value:00000000 $t
C:\Users\IAHERN~1\AppData\Local\Temp\ccP26j2c.s:3216   .text.aci_gatt_read_char_value:00000000 aci_gatt_read_char_value
C:\Users\IAHERN~1\AppData\Local\Temp\ccP26j2c.s:3322   .text.aci_gatt_read_using_char_uuid:00000000 $t
C:\Users\IAHERN~1\AppData\Local\Temp\ccP26j2c.s:3328   .text.aci_gatt_read_using_char_uuid:00000000 aci_gatt_read_using_char_uuid
C:\Users\IAHERN~1\AppData\Local\Temp\ccP26j2c.s:3483   .text.aci_gatt_read_long_char_value:00000000 $t
C:\Users\IAHERN~1\AppData\Local\Temp\ccP26j2c.s:3489   .text.aci_gatt_read_long_char_value:00000000 aci_gatt_read_long_char_value
C:\Users\IAHERN~1\AppData\Local\Temp\ccP26j2c.s:3601   .text.aci_gatt_read_multiple_char_value:00000000 $t
C:\Users\IAHERN~1\AppData\Local\Temp\ccP26j2c.s:3607   .text.aci_gatt_read_multiple_char_value:00000000 aci_gatt_read_multiple_char_value
C:\Users\IAHERN~1\AppData\Local\Temp\ccP26j2c.s:3745   .text.aci_gatt_write_char_value:00000000 $t
ARM GAS  C:\Users\IAHERN~1\AppData\Local\Temp\ccP26j2c.s 			page 137


C:\Users\IAHERN~1\AppData\Local\Temp\ccP26j2c.s:3751   .text.aci_gatt_write_char_value:00000000 aci_gatt_write_char_value
C:\Users\IAHERN~1\AppData\Local\Temp\ccP26j2c.s:3875   .text.aci_gatt_write_long_char_value:00000000 $t
C:\Users\IAHERN~1\AppData\Local\Temp\ccP26j2c.s:3881   .text.aci_gatt_write_long_char_value:00000000 aci_gatt_write_long_char_value
C:\Users\IAHERN~1\AppData\Local\Temp\ccP26j2c.s:4013   .text.aci_gatt_write_char_reliable:00000000 $t
C:\Users\IAHERN~1\AppData\Local\Temp\ccP26j2c.s:4019   .text.aci_gatt_write_char_reliable:00000000 aci_gatt_write_char_reliable
C:\Users\IAHERN~1\AppData\Local\Temp\ccP26j2c.s:4151   .text.aci_gatt_write_long_char_desc:00000000 $t
C:\Users\IAHERN~1\AppData\Local\Temp\ccP26j2c.s:4157   .text.aci_gatt_write_long_char_desc:00000000 aci_gatt_write_long_char_desc
C:\Users\IAHERN~1\AppData\Local\Temp\ccP26j2c.s:4289   .text.aci_gatt_read_long_char_desc:00000000 $t
C:\Users\IAHERN~1\AppData\Local\Temp\ccP26j2c.s:4295   .text.aci_gatt_read_long_char_desc:00000000 aci_gatt_read_long_char_desc
C:\Users\IAHERN~1\AppData\Local\Temp\ccP26j2c.s:4407   .text.aci_gatt_write_char_desc:00000000 $t
C:\Users\IAHERN~1\AppData\Local\Temp\ccP26j2c.s:4413   .text.aci_gatt_write_char_desc:00000000 aci_gatt_write_char_desc
C:\Users\IAHERN~1\AppData\Local\Temp\ccP26j2c.s:4537   .text.aci_gatt_read_char_desc:00000000 $t
C:\Users\IAHERN~1\AppData\Local\Temp\ccP26j2c.s:4543   .text.aci_gatt_read_char_desc:00000000 aci_gatt_read_char_desc
C:\Users\IAHERN~1\AppData\Local\Temp\ccP26j2c.s:4649   .text.aci_gatt_write_without_resp:00000000 $t
C:\Users\IAHERN~1\AppData\Local\Temp\ccP26j2c.s:4655   .text.aci_gatt_write_without_resp:00000000 aci_gatt_write_without_resp
C:\Users\IAHERN~1\AppData\Local\Temp\ccP26j2c.s:4775   .text.aci_gatt_signed_write_without_resp:00000000 $t
C:\Users\IAHERN~1\AppData\Local\Temp\ccP26j2c.s:4781   .text.aci_gatt_signed_write_without_resp:00000000 aci_gatt_signed_write_without_resp
C:\Users\IAHERN~1\AppData\Local\Temp\ccP26j2c.s:4901   .text.aci_gatt_confirm_indication:00000000 $t
C:\Users\IAHERN~1\AppData\Local\Temp\ccP26j2c.s:4907   .text.aci_gatt_confirm_indication:00000000 aci_gatt_confirm_indication
C:\Users\IAHERN~1\AppData\Local\Temp\ccP26j2c.s:5000   .text.aci_gatt_write_resp:00000000 $t
C:\Users\IAHERN~1\AppData\Local\Temp\ccP26j2c.s:5006   .text.aci_gatt_write_resp:00000000 aci_gatt_write_resp
C:\Users\IAHERN~1\AppData\Local\Temp\ccP26j2c.s:5137   .text.aci_gatt_allow_read:00000000 $t
C:\Users\IAHERN~1\AppData\Local\Temp\ccP26j2c.s:5143   .text.aci_gatt_allow_read:00000000 aci_gatt_allow_read
C:\Users\IAHERN~1\AppData\Local\Temp\ccP26j2c.s:5236   .text.aci_gatt_set_security_permission:00000000 $t
C:\Users\IAHERN~1\AppData\Local\Temp\ccP26j2c.s:5242   .text.aci_gatt_set_security_permission:00000000 aci_gatt_set_security_permission
C:\Users\IAHERN~1\AppData\Local\Temp\ccP26j2c.s:5350   .text.aci_gatt_set_desc_value:00000000 $t
C:\Users\IAHERN~1\AppData\Local\Temp\ccP26j2c.s:5356   .text.aci_gatt_set_desc_value:00000000 aci_gatt_set_desc_value
C:\Users\IAHERN~1\AppData\Local\Temp\ccP26j2c.s:5487   .text.aci_gatt_read_handle_value:00000000 $t
C:\Users\IAHERN~1\AppData\Local\Temp\ccP26j2c.s:5493   .text.aci_gatt_read_handle_value:00000000 aci_gatt_read_handle_value
C:\Users\IAHERN~1\AppData\Local\Temp\ccP26j2c.s:5640   .text.aci_gatt_update_char_value_ext:00000000 $t
C:\Users\IAHERN~1\AppData\Local\Temp\ccP26j2c.s:5646   .text.aci_gatt_update_char_value_ext:00000000 aci_gatt_update_char_value_ext
C:\Users\IAHERN~1\AppData\Local\Temp\ccP26j2c.s:5791   .text.aci_gatt_deny_read:00000000 $t
C:\Users\IAHERN~1\AppData\Local\Temp\ccP26j2c.s:5797   .text.aci_gatt_deny_read:00000000 aci_gatt_deny_read
C:\Users\IAHERN~1\AppData\Local\Temp\ccP26j2c.s:5899   .text.aci_gatt_set_access_permission:00000000 $t
C:\Users\IAHERN~1\AppData\Local\Temp\ccP26j2c.s:5905   .text.aci_gatt_set_access_permission:00000000 aci_gatt_set_access_permission

UNDEFINED SYMBOLS
hci_send_req
memcpy
memset
