ARM GAS  C:\Users\IAHERN~1\AppData\Local\Temp\ccP26j2c.s 			page 1


   1              		.cpu cortex-m4
   2              		.arch armv7e-m
   3              		.fpu fpv4-sp-d16
   4              		.eabi_attribute 27, 1
   5              		.eabi_attribute 28, 1
   6              		.eabi_attribute 20, 1
   7              		.eabi_attribute 21, 1
   8              		.eabi_attribute 23, 3
   9              		.eabi_attribute 24, 1
  10              		.eabi_attribute 25, 1
  11              		.eabi_attribute 26, 1
  12              		.eabi_attribute 30, 1
  13              		.eabi_attribute 34, 1
  14              		.eabi_attribute 18, 4
  15              		.file	"bluenrg1_gatt_aci.c"
  16              		.text
  17              	.Ltext0:
  18              		.cfi_sections	.debug_frame
  19              		.file 1 "Middlewares/ST/BlueNRG-2/hci/controller/bluenrg1_gatt_aci.c"
  20              		.section	.text.aci_gatt_init,"ax",%progbits
  21              		.align	1
  22              		.global	aci_gatt_init
  23              		.syntax unified
  24              		.thumb
  25              		.thumb_func
  27              	aci_gatt_init:
  28              	.LFB137:
   1:Middlewares/ST/BlueNRG-2/hci/controller/bluenrg1_gatt_aci.c **** /**
   2:Middlewares/ST/BlueNRG-2/hci/controller/bluenrg1_gatt_aci.c ****   ******************************************************************************
   3:Middlewares/ST/BlueNRG-2/hci/controller/bluenrg1_gatt_aci.c ****   * @file    bluenrg1_gatt_aci.c
   4:Middlewares/ST/BlueNRG-2/hci/controller/bluenrg1_gatt_aci.c ****   * @author  AMG - RF Application team
   5:Middlewares/ST/BlueNRG-2/hci/controller/bluenrg1_gatt_aci.c ****   * @brief   Source file for external uC - BlueNRG-x in network coprocessor mode
   6:Middlewares/ST/BlueNRG-2/hci/controller/bluenrg1_gatt_aci.c ****   *          (gatt_aci)
   7:Middlewares/ST/BlueNRG-2/hci/controller/bluenrg1_gatt_aci.c ****   *          Autogenerated files, do not edit!!
   8:Middlewares/ST/BlueNRG-2/hci/controller/bluenrg1_gatt_aci.c ****   ******************************************************************************
   9:Middlewares/ST/BlueNRG-2/hci/controller/bluenrg1_gatt_aci.c ****   * @attention
  10:Middlewares/ST/BlueNRG-2/hci/controller/bluenrg1_gatt_aci.c ****   *
  11:Middlewares/ST/BlueNRG-2/hci/controller/bluenrg1_gatt_aci.c ****   * Copyright (c) 2020 STMicroelectronics.
  12:Middlewares/ST/BlueNRG-2/hci/controller/bluenrg1_gatt_aci.c ****   * All rights reserved.
  13:Middlewares/ST/BlueNRG-2/hci/controller/bluenrg1_gatt_aci.c ****   *
  14:Middlewares/ST/BlueNRG-2/hci/controller/bluenrg1_gatt_aci.c ****   * This software is licensed under terms that can be found in the LICENSE file
  15:Middlewares/ST/BlueNRG-2/hci/controller/bluenrg1_gatt_aci.c ****   * in the root directory of this software component.
  16:Middlewares/ST/BlueNRG-2/hci/controller/bluenrg1_gatt_aci.c ****   * If no LICENSE file comes with this software, it is provided AS-IS.
  17:Middlewares/ST/BlueNRG-2/hci/controller/bluenrg1_gatt_aci.c ****   *
  18:Middlewares/ST/BlueNRG-2/hci/controller/bluenrg1_gatt_aci.c ****   ******************************************************************************
  19:Middlewares/ST/BlueNRG-2/hci/controller/bluenrg1_gatt_aci.c ****   */
  20:Middlewares/ST/BlueNRG-2/hci/controller/bluenrg1_gatt_aci.c **** #include "ble_types.h"
  21:Middlewares/ST/BlueNRG-2/hci/controller/bluenrg1_gatt_aci.c **** #include "bluenrg1_gatt_aci.h"
  22:Middlewares/ST/BlueNRG-2/hci/controller/bluenrg1_gatt_aci.c **** tBleStatus aci_gatt_init(void)
  23:Middlewares/ST/BlueNRG-2/hci/controller/bluenrg1_gatt_aci.c **** {
  29              		.loc 1 23 1 view -0
  30              		.cfi_startproc
  31              		@ args = 0, pretend = 0, frame = 32
  32              		@ frame_needed = 0, uses_anonymous_args = 0
  33 0000 00B5     		push	{lr}
  34              		.cfi_def_cfa_offset 4
  35              		.cfi_offset 14, -4
ARM GAS  C:\Users\IAHERN~1\AppData\Local\Temp\ccP26j2c.s 			page 2


  36 0002 89B0     		sub	sp, sp, #36
  37              		.cfi_def_cfa_offset 40
  24:Middlewares/ST/BlueNRG-2/hci/controller/bluenrg1_gatt_aci.c ****   struct hci_request rq;
  38              		.loc 1 24 3 view .LVU1
  25:Middlewares/ST/BlueNRG-2/hci/controller/bluenrg1_gatt_aci.c ****   tBleStatus status = 0;
  39              		.loc 1 25 3 view .LVU2
  40              		.loc 1 25 14 is_stmt 0 view .LVU3
  41 0004 0021     		movs	r1, #0
  42 0006 8DF80710 		strb	r1, [sp, #7]
  26:Middlewares/ST/BlueNRG-2/hci/controller/bluenrg1_gatt_aci.c ****   BLUENRG_memset(&rq, 0, sizeof(rq));
  43              		.loc 1 26 3 is_stmt 1 view .LVU4
  44 000a 0291     		str	r1, [sp, #8]
  45 000c 0391     		str	r1, [sp, #12]
  46 000e 0491     		str	r1, [sp, #16]
  47 0010 0591     		str	r1, [sp, #20]
  48 0012 0691     		str	r1, [sp, #24]
  49 0014 0791     		str	r1, [sp, #28]
  27:Middlewares/ST/BlueNRG-2/hci/controller/bluenrg1_gatt_aci.c ****   rq.ogf = 0x3f;
  50              		.loc 1 27 3 view .LVU5
  51              		.loc 1 27 10 is_stmt 0 view .LVU6
  52 0016 3F23     		movs	r3, #63
  53 0018 ADF80830 		strh	r3, [sp, #8]	@ movhi
  28:Middlewares/ST/BlueNRG-2/hci/controller/bluenrg1_gatt_aci.c ****   rq.ocf = 0x101;
  54              		.loc 1 28 3 is_stmt 1 view .LVU7
  55              		.loc 1 28 10 is_stmt 0 view .LVU8
  56 001c 40F20113 		movw	r3, #257
  57 0020 ADF80A30 		strh	r3, [sp, #10]	@ movhi
  29:Middlewares/ST/BlueNRG-2/hci/controller/bluenrg1_gatt_aci.c ****   rq.rparam = &status;
  58              		.loc 1 29 3 is_stmt 1 view .LVU9
  59              		.loc 1 29 13 is_stmt 0 view .LVU10
  60 0024 0DF10703 		add	r3, sp, #7
  61 0028 0693     		str	r3, [sp, #24]
  30:Middlewares/ST/BlueNRG-2/hci/controller/bluenrg1_gatt_aci.c ****   rq.rlen = 1;
  62              		.loc 1 30 3 is_stmt 1 view .LVU11
  63              		.loc 1 30 11 is_stmt 0 view .LVU12
  64 002a 0123     		movs	r3, #1
  65 002c 0793     		str	r3, [sp, #28]
  31:Middlewares/ST/BlueNRG-2/hci/controller/bluenrg1_gatt_aci.c ****   if (hci_send_req(&rq, FALSE) < 0)
  66              		.loc 1 31 3 is_stmt 1 view .LVU13
  67              		.loc 1 31 7 is_stmt 0 view .LVU14
  68 002e 02A8     		add	r0, sp, #8
  69 0030 FFF7FEFF 		bl	hci_send_req
  70              	.LVL0:
  71              		.loc 1 31 6 discriminator 1 view .LVU15
  72 0034 0028     		cmp	r0, #0
  73 0036 04DB     		blt	.L3
  32:Middlewares/ST/BlueNRG-2/hci/controller/bluenrg1_gatt_aci.c ****     return BLE_STATUS_TIMEOUT;
  33:Middlewares/ST/BlueNRG-2/hci/controller/bluenrg1_gatt_aci.c ****   if (status) {
  74              		.loc 1 33 3 is_stmt 1 view .LVU16
  75              		.loc 1 33 7 is_stmt 0 view .LVU17
  76 0038 9DF80700 		ldrb	r0, [sp, #7]	@ zero_extendqisi2
  77              	.L2:
  34:Middlewares/ST/BlueNRG-2/hci/controller/bluenrg1_gatt_aci.c ****     return status;
  35:Middlewares/ST/BlueNRG-2/hci/controller/bluenrg1_gatt_aci.c ****   }
  36:Middlewares/ST/BlueNRG-2/hci/controller/bluenrg1_gatt_aci.c ****   return BLE_STATUS_SUCCESS;
  37:Middlewares/ST/BlueNRG-2/hci/controller/bluenrg1_gatt_aci.c **** }
  78              		.loc 1 37 1 view .LVU18
ARM GAS  C:\Users\IAHERN~1\AppData\Local\Temp\ccP26j2c.s 			page 3


  79 003c 09B0     		add	sp, sp, #36
  80              		.cfi_remember_state
  81              		.cfi_def_cfa_offset 4
  82              		@ sp needed
  83 003e 5DF804FB 		ldr	pc, [sp], #4
  84              	.L3:
  85              		.cfi_restore_state
  32:Middlewares/ST/BlueNRG-2/hci/controller/bluenrg1_gatt_aci.c ****     return BLE_STATUS_TIMEOUT;
  86              		.loc 1 32 12 view .LVU19
  87 0042 FF20     		movs	r0, #255
  88 0044 FAE7     		b	.L2
  89              		.cfi_endproc
  90              	.LFE137:
  92              		.section	.text.aci_gatt_add_service,"ax",%progbits
  93              		.align	1
  94              		.global	aci_gatt_add_service
  95              		.syntax unified
  96              		.thumb
  97              		.thumb_func
  99              	aci_gatt_add_service:
 100              	.LVL1:
 101              	.LFB138:
  38:Middlewares/ST/BlueNRG-2/hci/controller/bluenrg1_gatt_aci.c **** tBleStatus aci_gatt_add_service(uint8_t Service_UUID_Type,
  39:Middlewares/ST/BlueNRG-2/hci/controller/bluenrg1_gatt_aci.c ****                                 Service_UUID_t *Service_UUID,
  40:Middlewares/ST/BlueNRG-2/hci/controller/bluenrg1_gatt_aci.c ****                                 uint8_t Service_Type,
  41:Middlewares/ST/BlueNRG-2/hci/controller/bluenrg1_gatt_aci.c ****                                 uint8_t Max_Attribute_Records,
  42:Middlewares/ST/BlueNRG-2/hci/controller/bluenrg1_gatt_aci.c ****                                 uint16_t *Service_Handle)
  43:Middlewares/ST/BlueNRG-2/hci/controller/bluenrg1_gatt_aci.c **** {
 102              		.loc 1 43 1 is_stmt 1 view -0
 103              		.cfi_startproc
 104              		@ args = 4, pretend = 0, frame = 288
 105              		@ frame_needed = 0, uses_anonymous_args = 0
 106              		.loc 1 43 1 is_stmt 0 view .LVU21
 107 0000 F0B5     		push	{r4, r5, r6, r7, lr}
 108              		.cfi_def_cfa_offset 20
 109              		.cfi_offset 4, -20
 110              		.cfi_offset 5, -16
 111              		.cfi_offset 6, -12
 112              		.cfi_offset 7, -8
 113              		.cfi_offset 14, -4
 114 0002 C9B0     		sub	sp, sp, #292
 115              		.cfi_def_cfa_offset 312
 116 0004 1646     		mov	r6, r2
 117 0006 1D46     		mov	r5, r3
  44:Middlewares/ST/BlueNRG-2/hci/controller/bluenrg1_gatt_aci.c ****   struct hci_request rq;
 118              		.loc 1 44 3 is_stmt 1 view .LVU22
  45:Middlewares/ST/BlueNRG-2/hci/controller/bluenrg1_gatt_aci.c ****   uint8_t cmd_buffer[258];
 119              		.loc 1 45 3 view .LVU23
  46:Middlewares/ST/BlueNRG-2/hci/controller/bluenrg1_gatt_aci.c ****   aci_gatt_add_service_cp0 *cp0 = (aci_gatt_add_service_cp0*)(cmd_buffer);
 120              		.loc 1 46 3 view .LVU24
 121              	.LVL2:
  47:Middlewares/ST/BlueNRG-2/hci/controller/bluenrg1_gatt_aci.c ****   aci_gatt_add_service_cp1 *cp1 = (aci_gatt_add_service_cp1*)(cmd_buffer + 1 + (Service_UUID_Type =
 122              		.loc 1 47 3 view .LVU25
 123              		.loc 1 47 78 is_stmt 0 view .LVU26
 124 0008 0128     		cmp	r0, #1
 125 000a 13D0     		beq	.L9
 126              		.loc 1 47 78 discriminator 1 view .LVU27
ARM GAS  C:\Users\IAHERN~1\AppData\Local\Temp\ccP26j2c.s 			page 4


 127 000c 0228     		cmp	r0, #2
 128 000e 0FD0     		beq	.L15
 129              		.loc 1 47 78 discriminator 4 view .LVU28
 130 0010 0124     		movs	r4, #1
 131              	.L6:
 132              		.loc 1 47 29 discriminator 8 view .LVU29
 133 0012 01AB     		add	r3, sp, #4
 134              	.LVL3:
 135              		.loc 1 47 29 discriminator 8 view .LVU30
 136 0014 1C44     		add	r4, r4, r3
 137              	.LVL4:
  48:Middlewares/ST/BlueNRG-2/hci/controller/bluenrg1_gatt_aci.c ****   aci_gatt_add_service_rp0 resp;
 138              		.loc 1 48 3 is_stmt 1 view .LVU31
  49:Middlewares/ST/BlueNRG-2/hci/controller/bluenrg1_gatt_aci.c ****   BLUENRG_memset(&resp, 0, sizeof(resp));
 139              		.loc 1 49 3 view .LVU32
 140 0016 0023     		movs	r3, #0
 141              	.LVL5:
 142              		.loc 1 49 3 is_stmt 0 view .LVU33
 143 0018 ADF80030 		strh	r3, [sp]	@ movhi
 144 001c 8DF80230 		strb	r3, [sp, #2]
  50:Middlewares/ST/BlueNRG-2/hci/controller/bluenrg1_gatt_aci.c ****   uint8_t index_input = 0;
 145              		.loc 1 50 3 is_stmt 1 view .LVU34
 146              	.LVL6:
  51:Middlewares/ST/BlueNRG-2/hci/controller/bluenrg1_gatt_aci.c ****   cp0->Service_UUID_Type = htob(Service_UUID_Type, 1);
 147              		.loc 1 51 3 view .LVU35
 148              		.loc 1 51 26 is_stmt 0 view .LVU36
 149 0020 8DF80400 		strb	r0, [sp, #4]
  52:Middlewares/ST/BlueNRG-2/hci/controller/bluenrg1_gatt_aci.c ****   index_input += 1;
 150              		.loc 1 52 3 is_stmt 1 view .LVU37
 151              	.LVL7:
 152              	.LBB2:
  53:Middlewares/ST/BlueNRG-2/hci/controller/bluenrg1_gatt_aci.c ****   /* var_len_data input */
  54:Middlewares/ST/BlueNRG-2/hci/controller/bluenrg1_gatt_aci.c ****   {
  55:Middlewares/ST/BlueNRG-2/hci/controller/bluenrg1_gatt_aci.c ****     uint8_t size;
 153              		.loc 1 55 5 view .LVU38
  56:Middlewares/ST/BlueNRG-2/hci/controller/bluenrg1_gatt_aci.c ****     switch (Service_UUID_Type) {
 154              		.loc 1 56 5 view .LVU39
 155 0024 0128     		cmp	r0, #1
 156 0026 07D0     		beq	.L11
 157              		.loc 1 56 5 is_stmt 0 view .LVU40
 158 0028 0228     		cmp	r0, #2
 159 002a 31D1     		bne	.L12
  57:Middlewares/ST/BlueNRG-2/hci/controller/bluenrg1_gatt_aci.c ****       case 1: size = 2; break;
  58:Middlewares/ST/BlueNRG-2/hci/controller/bluenrg1_gatt_aci.c ****       case 2: size = 16; break;
 160              		.loc 1 58 20 view .LVU41
 161 002c 1027     		movs	r7, #16
 162 002e 04E0     		b	.L7
 163              	.LVL8:
 164              	.L15:
 165              		.loc 1 58 20 view .LVU42
 166              	.LBE2:
  47:Middlewares/ST/BlueNRG-2/hci/controller/bluenrg1_gatt_aci.c ****   aci_gatt_add_service_rp0 resp;
 167              		.loc 1 47 78 discriminator 3 view .LVU43
 168 0030 1124     		movs	r4, #17
 169 0032 EEE7     		b	.L6
 170              	.L9:
  47:Middlewares/ST/BlueNRG-2/hci/controller/bluenrg1_gatt_aci.c ****   aci_gatt_add_service_rp0 resp;
ARM GAS  C:\Users\IAHERN~1\AppData\Local\Temp\ccP26j2c.s 			page 5


 171              		.loc 1 47 78 discriminator 2 view .LVU44
 172 0034 0324     		movs	r4, #3
 173 0036 ECE7     		b	.L6
 174              	.LVL9:
 175              	.L11:
 176              	.LBB3:
  56:Middlewares/ST/BlueNRG-2/hci/controller/bluenrg1_gatt_aci.c ****     switch (Service_UUID_Type) {
 177              		.loc 1 56 5 view .LVU45
 178 0038 0227     		movs	r7, #2
 179              	.L7:
 180              	.LVL10:
  59:Middlewares/ST/BlueNRG-2/hci/controller/bluenrg1_gatt_aci.c ****       default: return BLE_STATUS_ERROR;
  60:Middlewares/ST/BlueNRG-2/hci/controller/bluenrg1_gatt_aci.c ****     }
  61:Middlewares/ST/BlueNRG-2/hci/controller/bluenrg1_gatt_aci.c ****     BLUENRG_memcpy((void *) &cp0->Service_UUID, (const void *) Service_UUID, size);
 181              		.loc 1 61 5 is_stmt 1 view .LVU46
 182 003a 3A46     		mov	r2, r7
 183              	.LVL11:
 184              		.loc 1 61 5 is_stmt 0 view .LVU47
 185 003c 0DF10500 		add	r0, sp, #5
 186              	.LVL12:
 187              		.loc 1 61 5 view .LVU48
 188 0040 FFF7FEFF 		bl	memcpy
 189              	.LVL13:
  62:Middlewares/ST/BlueNRG-2/hci/controller/bluenrg1_gatt_aci.c ****     index_input += size;
 190              		.loc 1 62 5 is_stmt 1 view .LVU49
  63:Middlewares/ST/BlueNRG-2/hci/controller/bluenrg1_gatt_aci.c ****     {
  64:Middlewares/ST/BlueNRG-2/hci/controller/bluenrg1_gatt_aci.c ****       cp1->Service_Type = htob(Service_Type, 1);
 191              		.loc 1 64 7 view .LVU50
 192              		.loc 1 64 25 is_stmt 0 view .LVU51
 193 0044 2670     		strb	r6, [r4]
  65:Middlewares/ST/BlueNRG-2/hci/controller/bluenrg1_gatt_aci.c ****     }
  66:Middlewares/ST/BlueNRG-2/hci/controller/bluenrg1_gatt_aci.c ****     index_input += 1;
 194              		.loc 1 66 5 is_stmt 1 view .LVU52
 195              	.LVL14:
  67:Middlewares/ST/BlueNRG-2/hci/controller/bluenrg1_gatt_aci.c ****     {
  68:Middlewares/ST/BlueNRG-2/hci/controller/bluenrg1_gatt_aci.c ****       cp1->Max_Attribute_Records = htob(Max_Attribute_Records, 1);
 196              		.loc 1 68 7 view .LVU53
 197              		.loc 1 68 34 is_stmt 0 view .LVU54
 198 0046 6570     		strb	r5, [r4, #1]
  69:Middlewares/ST/BlueNRG-2/hci/controller/bluenrg1_gatt_aci.c ****     }
  70:Middlewares/ST/BlueNRG-2/hci/controller/bluenrg1_gatt_aci.c ****     index_input += 1;
 199              		.loc 1 70 5 is_stmt 1 view .LVU55
 200              		.loc 1 70 17 is_stmt 0 view .LVU56
 201 0048 0337     		adds	r7, r7, #3
 202              	.LVL15:
 203              		.loc 1 70 17 view .LVU57
 204              	.LBE3:
  71:Middlewares/ST/BlueNRG-2/hci/controller/bluenrg1_gatt_aci.c ****   }
  72:Middlewares/ST/BlueNRG-2/hci/controller/bluenrg1_gatt_aci.c ****   BLUENRG_memset(&rq, 0, sizeof(rq));
 205              		.loc 1 72 3 is_stmt 1 view .LVU58
 206 004a 0021     		movs	r1, #0
 207 004c 4291     		str	r1, [sp, #264]
 208 004e 4391     		str	r1, [sp, #268]
 209 0050 4491     		str	r1, [sp, #272]
 210 0052 4591     		str	r1, [sp, #276]
 211 0054 4691     		str	r1, [sp, #280]
 212 0056 4791     		str	r1, [sp, #284]
ARM GAS  C:\Users\IAHERN~1\AppData\Local\Temp\ccP26j2c.s 			page 6


  73:Middlewares/ST/BlueNRG-2/hci/controller/bluenrg1_gatt_aci.c ****   rq.ogf = 0x3f;
 213              		.loc 1 73 3 view .LVU59
 214              		.loc 1 73 10 is_stmt 0 view .LVU60
 215 0058 3F23     		movs	r3, #63
 216 005a ADF80831 		strh	r3, [sp, #264]	@ movhi
  74:Middlewares/ST/BlueNRG-2/hci/controller/bluenrg1_gatt_aci.c ****   rq.ocf = 0x102;
 217              		.loc 1 74 3 is_stmt 1 view .LVU61
 218              		.loc 1 74 10 is_stmt 0 view .LVU62
 219 005e 4FF48173 		mov	r3, #258
 220 0062 ADF80A31 		strh	r3, [sp, #266]	@ movhi
  75:Middlewares/ST/BlueNRG-2/hci/controller/bluenrg1_gatt_aci.c ****   rq.cparam = cmd_buffer;
 221              		.loc 1 75 3 is_stmt 1 view .LVU63
 222              		.loc 1 75 13 is_stmt 0 view .LVU64
 223 0066 01AB     		add	r3, sp, #4
 224              	.LVL16:
 225              		.loc 1 75 13 view .LVU65
 226 0068 4493     		str	r3, [sp, #272]
  76:Middlewares/ST/BlueNRG-2/hci/controller/bluenrg1_gatt_aci.c ****   rq.clen = index_input;
 227              		.loc 1 76 3 is_stmt 1 view .LVU66
 228              		.loc 1 76 11 is_stmt 0 view .LVU67
 229 006a 4597     		str	r7, [sp, #276]
  77:Middlewares/ST/BlueNRG-2/hci/controller/bluenrg1_gatt_aci.c ****   rq.rparam = &resp;
 230              		.loc 1 77 3 is_stmt 1 view .LVU68
 231              		.loc 1 77 13 is_stmt 0 view .LVU69
 232 006c CDF818D1 		str	sp, [sp, #280]
  78:Middlewares/ST/BlueNRG-2/hci/controller/bluenrg1_gatt_aci.c ****   rq.rlen = sizeof(resp);
 233              		.loc 1 78 3 is_stmt 1 view .LVU70
 234              		.loc 1 78 11 is_stmt 0 view .LVU71
 235 0070 0323     		movs	r3, #3
 236              	.LVL17:
 237              		.loc 1 78 11 view .LVU72
 238 0072 4793     		str	r3, [sp, #284]
  79:Middlewares/ST/BlueNRG-2/hci/controller/bluenrg1_gatt_aci.c ****   if (hci_send_req(&rq, FALSE) < 0)
 239              		.loc 1 79 3 is_stmt 1 view .LVU73
 240              		.loc 1 79 7 is_stmt 0 view .LVU74
 241 0074 42A8     		add	r0, sp, #264
 242 0076 FFF7FEFF 		bl	hci_send_req
 243              	.LVL18:
 244              		.loc 1 79 6 discriminator 1 view .LVU75
 245 007a 0028     		cmp	r0, #0
 246 007c 0ADB     		blt	.L13
  80:Middlewares/ST/BlueNRG-2/hci/controller/bluenrg1_gatt_aci.c ****     return BLE_STATUS_TIMEOUT;
  81:Middlewares/ST/BlueNRG-2/hci/controller/bluenrg1_gatt_aci.c ****   if (resp.Status) {
 247              		.loc 1 81 3 is_stmt 1 view .LVU76
 248              		.loc 1 81 11 is_stmt 0 view .LVU77
 249 007e 9DF80000 		ldrb	r0, [sp]	@ zero_extendqisi2
 250              		.loc 1 81 6 view .LVU78
 251 0082 18B9     		cbnz	r0, .L8
  82:Middlewares/ST/BlueNRG-2/hci/controller/bluenrg1_gatt_aci.c ****     return resp.Status;
  83:Middlewares/ST/BlueNRG-2/hci/controller/bluenrg1_gatt_aci.c ****   }
  84:Middlewares/ST/BlueNRG-2/hci/controller/bluenrg1_gatt_aci.c ****   *Service_Handle = btoh(resp.Service_Handle, 2);
 252              		.loc 1 84 3 is_stmt 1 view .LVU79
 253              		.loc 1 84 21 is_stmt 0 view .LVU80
 254 0084 BDF80120 		ldrh	r2, [sp, #1]	@ unaligned
 255              		.loc 1 84 19 view .LVU81
 256 0088 4E9B     		ldr	r3, [sp, #312]
 257 008a 1A80     		strh	r2, [r3]	@ movhi
ARM GAS  C:\Users\IAHERN~1\AppData\Local\Temp\ccP26j2c.s 			page 7


  85:Middlewares/ST/BlueNRG-2/hci/controller/bluenrg1_gatt_aci.c ****   return BLE_STATUS_SUCCESS;
 258              		.loc 1 85 3 is_stmt 1 view .LVU82
 259              	.LVL19:
 260              	.L8:
  86:Middlewares/ST/BlueNRG-2/hci/controller/bluenrg1_gatt_aci.c **** }
 261              		.loc 1 86 1 is_stmt 0 view .LVU83
 262 008c 49B0     		add	sp, sp, #292
 263              		.cfi_remember_state
 264              		.cfi_def_cfa_offset 20
 265              		@ sp needed
 266 008e F0BD     		pop	{r4, r5, r6, r7, pc}
 267              	.LVL20:
 268              	.L12:
 269              		.cfi_restore_state
 270              	.LBB4:
  56:Middlewares/ST/BlueNRG-2/hci/controller/bluenrg1_gatt_aci.c ****       case 1: size = 2; break;
 271              		.loc 1 56 5 view .LVU84
 272 0090 4720     		movs	r0, #71
 273              	.LVL21:
  56:Middlewares/ST/BlueNRG-2/hci/controller/bluenrg1_gatt_aci.c ****       case 1: size = 2; break;
 274              		.loc 1 56 5 view .LVU85
 275 0092 FBE7     		b	.L8
 276              	.LVL22:
 277              	.L13:
  56:Middlewares/ST/BlueNRG-2/hci/controller/bluenrg1_gatt_aci.c ****       case 1: size = 2; break;
 278              		.loc 1 56 5 view .LVU86
 279              	.LBE4:
  80:Middlewares/ST/BlueNRG-2/hci/controller/bluenrg1_gatt_aci.c ****   if (resp.Status) {
 280              		.loc 1 80 12 view .LVU87
 281 0094 FF20     		movs	r0, #255
 282 0096 F9E7     		b	.L8
 283              		.cfi_endproc
 284              	.LFE138:
 286              		.section	.text.aci_gatt_include_service,"ax",%progbits
 287              		.align	1
 288              		.global	aci_gatt_include_service
 289              		.syntax unified
 290              		.thumb
 291              		.thumb_func
 293              	aci_gatt_include_service:
 294              	.LVL23:
 295              	.LFB139:
  87:Middlewares/ST/BlueNRG-2/hci/controller/bluenrg1_gatt_aci.c **** tBleStatus aci_gatt_include_service(uint16_t Service_Handle,
  88:Middlewares/ST/BlueNRG-2/hci/controller/bluenrg1_gatt_aci.c ****                                     uint16_t Include_Start_Handle,
  89:Middlewares/ST/BlueNRG-2/hci/controller/bluenrg1_gatt_aci.c ****                                     uint16_t Include_End_Handle,
  90:Middlewares/ST/BlueNRG-2/hci/controller/bluenrg1_gatt_aci.c ****                                     uint8_t Include_UUID_Type,
  91:Middlewares/ST/BlueNRG-2/hci/controller/bluenrg1_gatt_aci.c ****                                     Include_UUID_t *Include_UUID,
  92:Middlewares/ST/BlueNRG-2/hci/controller/bluenrg1_gatt_aci.c ****                                     uint16_t *Include_Handle)
  93:Middlewares/ST/BlueNRG-2/hci/controller/bluenrg1_gatt_aci.c **** {
 296              		.loc 1 93 1 is_stmt 1 view -0
 297              		.cfi_startproc
 298              		@ args = 8, pretend = 0, frame = 288
 299              		@ frame_needed = 0, uses_anonymous_args = 0
 300              		.loc 1 93 1 is_stmt 0 view .LVU89
 301 0000 10B5     		push	{r4, lr}
 302              		.cfi_def_cfa_offset 8
 303              		.cfi_offset 4, -8
ARM GAS  C:\Users\IAHERN~1\AppData\Local\Temp\ccP26j2c.s 			page 8


 304              		.cfi_offset 14, -4
 305 0002 C8B0     		sub	sp, sp, #288
 306              		.cfi_def_cfa_offset 296
  94:Middlewares/ST/BlueNRG-2/hci/controller/bluenrg1_gatt_aci.c ****   struct hci_request rq;
 307              		.loc 1 94 3 is_stmt 1 view .LVU90
  95:Middlewares/ST/BlueNRG-2/hci/controller/bluenrg1_gatt_aci.c ****   uint8_t cmd_buffer[258];
 308              		.loc 1 95 3 view .LVU91
  96:Middlewares/ST/BlueNRG-2/hci/controller/bluenrg1_gatt_aci.c ****   aci_gatt_include_service_cp0 *cp0 = (aci_gatt_include_service_cp0*)(cmd_buffer);
 309              		.loc 1 96 3 view .LVU92
 310              	.LVL24:
  97:Middlewares/ST/BlueNRG-2/hci/controller/bluenrg1_gatt_aci.c ****   aci_gatt_include_service_rp0 resp;
 311              		.loc 1 97 3 view .LVU93
  98:Middlewares/ST/BlueNRG-2/hci/controller/bluenrg1_gatt_aci.c ****   BLUENRG_memset(&resp, 0, sizeof(resp));
 312              		.loc 1 98 3 view .LVU94
 313 0004 0024     		movs	r4, #0
 314 0006 ADF80040 		strh	r4, [sp]	@ movhi
 315 000a 8DF80240 		strb	r4, [sp, #2]
  99:Middlewares/ST/BlueNRG-2/hci/controller/bluenrg1_gatt_aci.c ****   uint8_t index_input = 0;
 316              		.loc 1 99 3 view .LVU95
 317              	.LVL25:
 100:Middlewares/ST/BlueNRG-2/hci/controller/bluenrg1_gatt_aci.c ****   cp0->Service_Handle = htob(Service_Handle, 2);
 318              		.loc 1 100 3 view .LVU96
 319              		.loc 1 100 23 is_stmt 0 view .LVU97
 320 000e ADF80400 		strh	r0, [sp, #4]	@ movhi
 101:Middlewares/ST/BlueNRG-2/hci/controller/bluenrg1_gatt_aci.c ****   index_input += 2;
 321              		.loc 1 101 3 is_stmt 1 view .LVU98
 322              	.LVL26:
 102:Middlewares/ST/BlueNRG-2/hci/controller/bluenrg1_gatt_aci.c ****   cp0->Include_Start_Handle = htob(Include_Start_Handle, 2);
 323              		.loc 1 102 3 view .LVU99
 324              		.loc 1 102 29 is_stmt 0 view .LVU100
 325 0012 ADF80610 		strh	r1, [sp, #6]	@ movhi
 103:Middlewares/ST/BlueNRG-2/hci/controller/bluenrg1_gatt_aci.c ****   index_input += 2;
 326              		.loc 1 103 3 is_stmt 1 view .LVU101
 327              	.LVL27:
 104:Middlewares/ST/BlueNRG-2/hci/controller/bluenrg1_gatt_aci.c ****   cp0->Include_End_Handle = htob(Include_End_Handle, 2);
 328              		.loc 1 104 3 view .LVU102
 329              		.loc 1 104 27 is_stmt 0 view .LVU103
 330 0016 ADF80820 		strh	r2, [sp, #8]	@ movhi
 105:Middlewares/ST/BlueNRG-2/hci/controller/bluenrg1_gatt_aci.c ****   index_input += 2;
 331              		.loc 1 105 3 is_stmt 1 view .LVU104
 332              	.LVL28:
 106:Middlewares/ST/BlueNRG-2/hci/controller/bluenrg1_gatt_aci.c ****   cp0->Include_UUID_Type = htob(Include_UUID_Type, 1);
 333              		.loc 1 106 3 view .LVU105
 334              		.loc 1 106 26 is_stmt 0 view .LVU106
 335 001a 8DF80A30 		strb	r3, [sp, #10]
 107:Middlewares/ST/BlueNRG-2/hci/controller/bluenrg1_gatt_aci.c ****   index_input += 1;
 336              		.loc 1 107 3 is_stmt 1 view .LVU107
 337              	.LVL29:
 338              	.LBB5:
 108:Middlewares/ST/BlueNRG-2/hci/controller/bluenrg1_gatt_aci.c ****   /* var_len_data input */
 109:Middlewares/ST/BlueNRG-2/hci/controller/bluenrg1_gatt_aci.c ****   {
 110:Middlewares/ST/BlueNRG-2/hci/controller/bluenrg1_gatt_aci.c ****     uint8_t size;
 339              		.loc 1 110 5 view .LVU108
 111:Middlewares/ST/BlueNRG-2/hci/controller/bluenrg1_gatt_aci.c ****     switch (Include_UUID_Type) {
 340              		.loc 1 111 5 view .LVU109
 341 001e 012B     		cmp	r3, #1
 342 0020 03D0     		beq	.L19
ARM GAS  C:\Users\IAHERN~1\AppData\Local\Temp\ccP26j2c.s 			page 9


 343 0022 022B     		cmp	r3, #2
 344 0024 2CD1     		bne	.L20
 112:Middlewares/ST/BlueNRG-2/hci/controller/bluenrg1_gatt_aci.c ****       case 1: size = 2; break;
 113:Middlewares/ST/BlueNRG-2/hci/controller/bluenrg1_gatt_aci.c ****       case 2: size = 16; break;
 345              		.loc 1 113 20 is_stmt 0 view .LVU110
 346 0026 1024     		movs	r4, #16
 347 0028 00E0     		b	.L17
 348              	.L19:
 111:Middlewares/ST/BlueNRG-2/hci/controller/bluenrg1_gatt_aci.c ****     switch (Include_UUID_Type) {
 349              		.loc 1 111 5 view .LVU111
 350 002a 0224     		movs	r4, #2
 351              	.L17:
 352              	.LVL30:
 114:Middlewares/ST/BlueNRG-2/hci/controller/bluenrg1_gatt_aci.c ****       default: return BLE_STATUS_ERROR;
 115:Middlewares/ST/BlueNRG-2/hci/controller/bluenrg1_gatt_aci.c ****     }
 116:Middlewares/ST/BlueNRG-2/hci/controller/bluenrg1_gatt_aci.c ****     BLUENRG_memcpy((void *) &cp0->Include_UUID, (const void *) Include_UUID, size);
 353              		.loc 1 116 5 is_stmt 1 view .LVU112
 354 002c 2246     		mov	r2, r4
 355              	.LVL31:
 356              		.loc 1 116 5 is_stmt 0 view .LVU113
 357 002e 4A99     		ldr	r1, [sp, #296]
 358              	.LVL32:
 359              		.loc 1 116 5 view .LVU114
 360 0030 0DF10B00 		add	r0, sp, #11
 361              	.LVL33:
 362              		.loc 1 116 5 view .LVU115
 363 0034 FFF7FEFF 		bl	memcpy
 364              	.LVL34:
 117:Middlewares/ST/BlueNRG-2/hci/controller/bluenrg1_gatt_aci.c ****     index_input += size;
 365              		.loc 1 117 5 is_stmt 1 view .LVU116
 366              		.loc 1 117 17 is_stmt 0 view .LVU117
 367 0038 0734     		adds	r4, r4, #7
 368              	.LVL35:
 369              		.loc 1 117 17 view .LVU118
 370              	.LBE5:
 118:Middlewares/ST/BlueNRG-2/hci/controller/bluenrg1_gatt_aci.c ****   }
 119:Middlewares/ST/BlueNRG-2/hci/controller/bluenrg1_gatt_aci.c ****   BLUENRG_memset(&rq, 0, sizeof(rq));
 371              		.loc 1 119 3 is_stmt 1 view .LVU119
 372 003a 0021     		movs	r1, #0
 373 003c 4291     		str	r1, [sp, #264]
 374 003e 4391     		str	r1, [sp, #268]
 375 0040 4491     		str	r1, [sp, #272]
 376 0042 4591     		str	r1, [sp, #276]
 377 0044 4691     		str	r1, [sp, #280]
 378 0046 4791     		str	r1, [sp, #284]
 120:Middlewares/ST/BlueNRG-2/hci/controller/bluenrg1_gatt_aci.c ****   rq.ogf = 0x3f;
 379              		.loc 1 120 3 view .LVU120
 380              		.loc 1 120 10 is_stmt 0 view .LVU121
 381 0048 3F23     		movs	r3, #63
 382 004a ADF80831 		strh	r3, [sp, #264]	@ movhi
 121:Middlewares/ST/BlueNRG-2/hci/controller/bluenrg1_gatt_aci.c ****   rq.ocf = 0x103;
 383              		.loc 1 121 3 is_stmt 1 view .LVU122
 384              		.loc 1 121 10 is_stmt 0 view .LVU123
 385 004e 40F20313 		movw	r3, #259
 386 0052 ADF80A31 		strh	r3, [sp, #266]	@ movhi
 122:Middlewares/ST/BlueNRG-2/hci/controller/bluenrg1_gatt_aci.c ****   rq.cparam = cmd_buffer;
 387              		.loc 1 122 3 is_stmt 1 view .LVU124
ARM GAS  C:\Users\IAHERN~1\AppData\Local\Temp\ccP26j2c.s 			page 10


 388              		.loc 1 122 13 is_stmt 0 view .LVU125
 389 0056 01AB     		add	r3, sp, #4
 390              	.LVL36:
 391              		.loc 1 122 13 view .LVU126
 392 0058 4493     		str	r3, [sp, #272]
 123:Middlewares/ST/BlueNRG-2/hci/controller/bluenrg1_gatt_aci.c ****   rq.clen = index_input;
 393              		.loc 1 123 3 is_stmt 1 view .LVU127
 394              		.loc 1 123 11 is_stmt 0 view .LVU128
 395 005a 4594     		str	r4, [sp, #276]
 124:Middlewares/ST/BlueNRG-2/hci/controller/bluenrg1_gatt_aci.c ****   rq.rparam = &resp;
 396              		.loc 1 124 3 is_stmt 1 view .LVU129
 397              		.loc 1 124 13 is_stmt 0 view .LVU130
 398 005c CDF818D1 		str	sp, [sp, #280]
 125:Middlewares/ST/BlueNRG-2/hci/controller/bluenrg1_gatt_aci.c ****   rq.rlen = sizeof(resp);
 399              		.loc 1 125 3 is_stmt 1 view .LVU131
 400              		.loc 1 125 11 is_stmt 0 view .LVU132
 401 0060 0323     		movs	r3, #3
 402              	.LVL37:
 403              		.loc 1 125 11 view .LVU133
 404 0062 4793     		str	r3, [sp, #284]
 126:Middlewares/ST/BlueNRG-2/hci/controller/bluenrg1_gatt_aci.c ****   if (hci_send_req(&rq, FALSE) < 0)
 405              		.loc 1 126 3 is_stmt 1 view .LVU134
 406              		.loc 1 126 7 is_stmt 0 view .LVU135
 407 0064 42A8     		add	r0, sp, #264
 408 0066 FFF7FEFF 		bl	hci_send_req
 409              	.LVL38:
 410              		.loc 1 126 6 discriminator 1 view .LVU136
 411 006a 0028     		cmp	r0, #0
 412 006c 0ADB     		blt	.L21
 127:Middlewares/ST/BlueNRG-2/hci/controller/bluenrg1_gatt_aci.c ****     return BLE_STATUS_TIMEOUT;
 128:Middlewares/ST/BlueNRG-2/hci/controller/bluenrg1_gatt_aci.c ****   if (resp.Status) {
 413              		.loc 1 128 3 is_stmt 1 view .LVU137
 414              		.loc 1 128 11 is_stmt 0 view .LVU138
 415 006e 9DF80000 		ldrb	r0, [sp]	@ zero_extendqisi2
 416              		.loc 1 128 6 view .LVU139
 417 0072 18B9     		cbnz	r0, .L18
 129:Middlewares/ST/BlueNRG-2/hci/controller/bluenrg1_gatt_aci.c ****     return resp.Status;
 130:Middlewares/ST/BlueNRG-2/hci/controller/bluenrg1_gatt_aci.c ****   }
 131:Middlewares/ST/BlueNRG-2/hci/controller/bluenrg1_gatt_aci.c ****   *Include_Handle = btoh(resp.Include_Handle, 2);
 418              		.loc 1 131 3 is_stmt 1 view .LVU140
 419              		.loc 1 131 21 is_stmt 0 view .LVU141
 420 0074 BDF80120 		ldrh	r2, [sp, #1]	@ unaligned
 421              		.loc 1 131 19 view .LVU142
 422 0078 4B9B     		ldr	r3, [sp, #300]
 423 007a 1A80     		strh	r2, [r3]	@ movhi
 132:Middlewares/ST/BlueNRG-2/hci/controller/bluenrg1_gatt_aci.c ****   return BLE_STATUS_SUCCESS;
 424              		.loc 1 132 3 is_stmt 1 view .LVU143
 425              	.LVL39:
 426              	.L18:
 133:Middlewares/ST/BlueNRG-2/hci/controller/bluenrg1_gatt_aci.c **** }
 427              		.loc 1 133 1 is_stmt 0 view .LVU144
 428 007c 48B0     		add	sp, sp, #288
 429              		.cfi_remember_state
 430              		.cfi_def_cfa_offset 8
 431              		@ sp needed
 432 007e 10BD     		pop	{r4, pc}
 433              	.LVL40:
ARM GAS  C:\Users\IAHERN~1\AppData\Local\Temp\ccP26j2c.s 			page 11


 434              	.L20:
 435              		.cfi_restore_state
 436              	.LBB6:
 111:Middlewares/ST/BlueNRG-2/hci/controller/bluenrg1_gatt_aci.c ****       case 1: size = 2; break;
 437              		.loc 1 111 5 view .LVU145
 438 0080 4720     		movs	r0, #71
 439              	.LVL41:
 111:Middlewares/ST/BlueNRG-2/hci/controller/bluenrg1_gatt_aci.c ****       case 1: size = 2; break;
 440              		.loc 1 111 5 view .LVU146
 441 0082 FBE7     		b	.L18
 442              	.LVL42:
 443              	.L21:
 111:Middlewares/ST/BlueNRG-2/hci/controller/bluenrg1_gatt_aci.c ****       case 1: size = 2; break;
 444              		.loc 1 111 5 view .LVU147
 445              	.LBE6:
 127:Middlewares/ST/BlueNRG-2/hci/controller/bluenrg1_gatt_aci.c ****   if (resp.Status) {
 446              		.loc 1 127 12 view .LVU148
 447 0084 FF20     		movs	r0, #255
 448 0086 F9E7     		b	.L18
 449              		.cfi_endproc
 450              	.LFE139:
 452              		.section	.text.aci_gatt_add_char,"ax",%progbits
 453              		.align	1
 454              		.global	aci_gatt_add_char
 455              		.syntax unified
 456              		.thumb
 457              		.thumb_func
 459              	aci_gatt_add_char:
 460              	.LVL43:
 461              	.LFB140:
 134:Middlewares/ST/BlueNRG-2/hci/controller/bluenrg1_gatt_aci.c **** tBleStatus aci_gatt_add_char(uint16_t Service_Handle,
 135:Middlewares/ST/BlueNRG-2/hci/controller/bluenrg1_gatt_aci.c ****                              uint8_t Char_UUID_Type,
 136:Middlewares/ST/BlueNRG-2/hci/controller/bluenrg1_gatt_aci.c ****                              Char_UUID_t *Char_UUID,
 137:Middlewares/ST/BlueNRG-2/hci/controller/bluenrg1_gatt_aci.c ****                              uint16_t Char_Value_Length,
 138:Middlewares/ST/BlueNRG-2/hci/controller/bluenrg1_gatt_aci.c ****                              uint8_t Char_Properties,
 139:Middlewares/ST/BlueNRG-2/hci/controller/bluenrg1_gatt_aci.c ****                              uint8_t Security_Permissions,
 140:Middlewares/ST/BlueNRG-2/hci/controller/bluenrg1_gatt_aci.c ****                              uint8_t GATT_Evt_Mask,
 141:Middlewares/ST/BlueNRG-2/hci/controller/bluenrg1_gatt_aci.c ****                              uint8_t Enc_Key_Size,
 142:Middlewares/ST/BlueNRG-2/hci/controller/bluenrg1_gatt_aci.c ****                              uint8_t Is_Variable,
 143:Middlewares/ST/BlueNRG-2/hci/controller/bluenrg1_gatt_aci.c ****                              uint16_t *Char_Handle)
 144:Middlewares/ST/BlueNRG-2/hci/controller/bluenrg1_gatt_aci.c **** {
 462              		.loc 1 144 1 is_stmt 1 view -0
 463              		.cfi_startproc
 464              		@ args = 24, pretend = 0, frame = 288
 465              		@ frame_needed = 0, uses_anonymous_args = 0
 466              		.loc 1 144 1 is_stmt 0 view .LVU150
 467 0000 70B5     		push	{r4, r5, r6, lr}
 468              		.cfi_def_cfa_offset 16
 469              		.cfi_offset 4, -16
 470              		.cfi_offset 5, -12
 471              		.cfi_offset 6, -8
 472              		.cfi_offset 14, -4
 473 0002 C8B0     		sub	sp, sp, #288
 474              		.cfi_def_cfa_offset 304
 475 0004 8C46     		mov	ip, r1
 476 0006 1146     		mov	r1, r2
 477              	.LVL44:
ARM GAS  C:\Users\IAHERN~1\AppData\Local\Temp\ccP26j2c.s 			page 12


 478              		.loc 1 144 1 view .LVU151
 479 0008 1D46     		mov	r5, r3
 145:Middlewares/ST/BlueNRG-2/hci/controller/bluenrg1_gatt_aci.c ****   struct hci_request rq;
 480              		.loc 1 145 3 is_stmt 1 view .LVU152
 146:Middlewares/ST/BlueNRG-2/hci/controller/bluenrg1_gatt_aci.c ****   uint8_t cmd_buffer[258];
 481              		.loc 1 146 3 view .LVU153
 147:Middlewares/ST/BlueNRG-2/hci/controller/bluenrg1_gatt_aci.c ****   aci_gatt_add_char_cp0 *cp0 = (aci_gatt_add_char_cp0*)(cmd_buffer);
 482              		.loc 1 147 3 view .LVU154
 483              	.LVL45:
 148:Middlewares/ST/BlueNRG-2/hci/controller/bluenrg1_gatt_aci.c ****   aci_gatt_add_char_cp1 *cp1 = (aci_gatt_add_char_cp1*)(cmd_buffer + 2 + 1 + (Char_UUID_Type == 1 ?
 484              		.loc 1 148 3 view .LVU155
 485              		.loc 1 148 76 is_stmt 0 view .LVU156
 486 000a BCF1010F 		cmp	ip, #1
 487 000e 18D0     		beq	.L27
 488              		.loc 1 148 76 discriminator 1 view .LVU157
 489 0010 BCF1020F 		cmp	ip, #2
 490 0014 13D0     		beq	.L33
 491              		.loc 1 148 76 discriminator 4 view .LVU158
 492 0016 0324     		movs	r4, #3
 493              	.L24:
 494              		.loc 1 148 26 discriminator 8 view .LVU159
 495 0018 01AB     		add	r3, sp, #4
 496              	.LVL46:
 497              		.loc 1 148 26 discriminator 8 view .LVU160
 498 001a 1C44     		add	r4, r4, r3
 499              	.LVL47:
 149:Middlewares/ST/BlueNRG-2/hci/controller/bluenrg1_gatt_aci.c ****   aci_gatt_add_char_rp0 resp;
 500              		.loc 1 149 3 is_stmt 1 view .LVU161
 150:Middlewares/ST/BlueNRG-2/hci/controller/bluenrg1_gatt_aci.c ****   BLUENRG_memset(&resp, 0, sizeof(resp));
 501              		.loc 1 150 3 view .LVU162
 502 001c 0023     		movs	r3, #0
 503              	.LVL48:
 504              		.loc 1 150 3 is_stmt 0 view .LVU163
 505 001e ADF80030 		strh	r3, [sp]	@ movhi
 506 0022 8DF80230 		strb	r3, [sp, #2]
 151:Middlewares/ST/BlueNRG-2/hci/controller/bluenrg1_gatt_aci.c ****   uint8_t index_input = 0;
 507              		.loc 1 151 3 is_stmt 1 view .LVU164
 508              	.LVL49:
 152:Middlewares/ST/BlueNRG-2/hci/controller/bluenrg1_gatt_aci.c ****   cp0->Service_Handle = htob(Service_Handle, 2);
 509              		.loc 1 152 3 view .LVU165
 510              		.loc 1 152 23 is_stmt 0 view .LVU166
 511 0026 ADF80400 		strh	r0, [sp, #4]	@ movhi
 153:Middlewares/ST/BlueNRG-2/hci/controller/bluenrg1_gatt_aci.c ****   index_input += 2;
 512              		.loc 1 153 3 is_stmt 1 view .LVU167
 513              	.LVL50:
 154:Middlewares/ST/BlueNRG-2/hci/controller/bluenrg1_gatt_aci.c ****   cp0->Char_UUID_Type = htob(Char_UUID_Type, 1);
 514              		.loc 1 154 3 view .LVU168
 515              		.loc 1 154 23 is_stmt 0 view .LVU169
 516 002a 8DF806C0 		strb	ip, [sp, #6]
 155:Middlewares/ST/BlueNRG-2/hci/controller/bluenrg1_gatt_aci.c ****   index_input += 1;
 517              		.loc 1 155 3 is_stmt 1 view .LVU170
 518              	.LVL51:
 519              	.LBB7:
 156:Middlewares/ST/BlueNRG-2/hci/controller/bluenrg1_gatt_aci.c ****   /* var_len_data input */
 157:Middlewares/ST/BlueNRG-2/hci/controller/bluenrg1_gatt_aci.c ****   {
 158:Middlewares/ST/BlueNRG-2/hci/controller/bluenrg1_gatt_aci.c ****     uint8_t size;
 520              		.loc 1 158 5 view .LVU171
ARM GAS  C:\Users\IAHERN~1\AppData\Local\Temp\ccP26j2c.s 			page 13


 159:Middlewares/ST/BlueNRG-2/hci/controller/bluenrg1_gatt_aci.c ****     switch (Char_UUID_Type) {
 521              		.loc 1 159 5 view .LVU172
 522 002e BCF1010F 		cmp	ip, #1
 523 0032 08D0     		beq	.L29
 524              		.loc 1 159 5 is_stmt 0 view .LVU173
 525 0034 BCF1020F 		cmp	ip, #2
 526 0038 3FD1     		bne	.L30
 160:Middlewares/ST/BlueNRG-2/hci/controller/bluenrg1_gatt_aci.c ****       case 1: size = 2; break;
 161:Middlewares/ST/BlueNRG-2/hci/controller/bluenrg1_gatt_aci.c ****       case 2: size = 16; break;
 527              		.loc 1 161 20 view .LVU174
 528 003a 1026     		movs	r6, #16
 529 003c 04E0     		b	.L25
 530              	.LVL52:
 531              	.L33:
 532              		.loc 1 161 20 view .LVU175
 533              	.LBE7:
 148:Middlewares/ST/BlueNRG-2/hci/controller/bluenrg1_gatt_aci.c ****   aci_gatt_add_char_rp0 resp;
 534              		.loc 1 148 76 discriminator 3 view .LVU176
 535 003e 1324     		movs	r4, #19
 536 0040 EAE7     		b	.L24
 537              	.L27:
 148:Middlewares/ST/BlueNRG-2/hci/controller/bluenrg1_gatt_aci.c ****   aci_gatt_add_char_rp0 resp;
 538              		.loc 1 148 76 discriminator 2 view .LVU177
 539 0042 0524     		movs	r4, #5
 540 0044 E8E7     		b	.L24
 541              	.LVL53:
 542              	.L29:
 543              	.LBB8:
 159:Middlewares/ST/BlueNRG-2/hci/controller/bluenrg1_gatt_aci.c ****     switch (Char_UUID_Type) {
 544              		.loc 1 159 5 view .LVU178
 545 0046 0226     		movs	r6, #2
 546              	.L25:
 547              	.LVL54:
 162:Middlewares/ST/BlueNRG-2/hci/controller/bluenrg1_gatt_aci.c ****       default: return BLE_STATUS_ERROR;
 163:Middlewares/ST/BlueNRG-2/hci/controller/bluenrg1_gatt_aci.c ****     }
 164:Middlewares/ST/BlueNRG-2/hci/controller/bluenrg1_gatt_aci.c ****     BLUENRG_memcpy((void *) &cp0->Char_UUID, (const void *) Char_UUID, size);
 548              		.loc 1 164 5 is_stmt 1 view .LVU179
 549 0048 3246     		mov	r2, r6
 550              	.LVL55:
 551              		.loc 1 164 5 is_stmt 0 view .LVU180
 552 004a 0DF10700 		add	r0, sp, #7
 553              	.LVL56:
 554              		.loc 1 164 5 view .LVU181
 555 004e FFF7FEFF 		bl	memcpy
 556              	.LVL57:
 165:Middlewares/ST/BlueNRG-2/hci/controller/bluenrg1_gatt_aci.c ****     index_input += size;
 557              		.loc 1 165 5 is_stmt 1 view .LVU182
 166:Middlewares/ST/BlueNRG-2/hci/controller/bluenrg1_gatt_aci.c ****     {
 167:Middlewares/ST/BlueNRG-2/hci/controller/bluenrg1_gatt_aci.c ****       cp1->Char_Value_Length = htob(Char_Value_Length, 2);
 558              		.loc 1 167 7 view .LVU183
 559              		.loc 1 167 30 is_stmt 0 view .LVU184
 560 0052 2580     		strh	r5, [r4]	@ unaligned
 168:Middlewares/ST/BlueNRG-2/hci/controller/bluenrg1_gatt_aci.c ****     }
 169:Middlewares/ST/BlueNRG-2/hci/controller/bluenrg1_gatt_aci.c ****     index_input += 2;
 561              		.loc 1 169 5 is_stmt 1 view .LVU185
 562              	.LVL58:
 170:Middlewares/ST/BlueNRG-2/hci/controller/bluenrg1_gatt_aci.c ****     {
ARM GAS  C:\Users\IAHERN~1\AppData\Local\Temp\ccP26j2c.s 			page 14


 171:Middlewares/ST/BlueNRG-2/hci/controller/bluenrg1_gatt_aci.c ****       cp1->Char_Properties = htob(Char_Properties, 1);
 563              		.loc 1 171 7 view .LVU186
 564              		.loc 1 171 28 is_stmt 0 view .LVU187
 565 0054 9DF83031 		ldrb	r3, [sp, #304]	@ zero_extendqisi2
 566 0058 A370     		strb	r3, [r4, #2]
 172:Middlewares/ST/BlueNRG-2/hci/controller/bluenrg1_gatt_aci.c ****     }
 173:Middlewares/ST/BlueNRG-2/hci/controller/bluenrg1_gatt_aci.c ****     index_input += 1;
 567              		.loc 1 173 5 is_stmt 1 view .LVU188
 568              	.LVL59:
 174:Middlewares/ST/BlueNRG-2/hci/controller/bluenrg1_gatt_aci.c ****     {
 175:Middlewares/ST/BlueNRG-2/hci/controller/bluenrg1_gatt_aci.c ****       cp1->Security_Permissions = htob(Security_Permissions, 1);
 569              		.loc 1 175 7 view .LVU189
 570              		.loc 1 175 33 is_stmt 0 view .LVU190
 571 005a 9DF83431 		ldrb	r3, [sp, #308]	@ zero_extendqisi2
 572 005e E370     		strb	r3, [r4, #3]
 176:Middlewares/ST/BlueNRG-2/hci/controller/bluenrg1_gatt_aci.c ****     }
 177:Middlewares/ST/BlueNRG-2/hci/controller/bluenrg1_gatt_aci.c ****     index_input += 1;
 573              		.loc 1 177 5 is_stmt 1 view .LVU191
 574              	.LVL60:
 178:Middlewares/ST/BlueNRG-2/hci/controller/bluenrg1_gatt_aci.c ****     {
 179:Middlewares/ST/BlueNRG-2/hci/controller/bluenrg1_gatt_aci.c ****       cp1->GATT_Evt_Mask = htob(GATT_Evt_Mask, 1);
 575              		.loc 1 179 7 view .LVU192
 576              		.loc 1 179 26 is_stmt 0 view .LVU193
 577 0060 9DF83831 		ldrb	r3, [sp, #312]	@ zero_extendqisi2
 578 0064 2371     		strb	r3, [r4, #4]
 180:Middlewares/ST/BlueNRG-2/hci/controller/bluenrg1_gatt_aci.c ****     }
 181:Middlewares/ST/BlueNRG-2/hci/controller/bluenrg1_gatt_aci.c ****     index_input += 1;
 579              		.loc 1 181 5 is_stmt 1 view .LVU194
 580              	.LVL61:
 182:Middlewares/ST/BlueNRG-2/hci/controller/bluenrg1_gatt_aci.c ****     {
 183:Middlewares/ST/BlueNRG-2/hci/controller/bluenrg1_gatt_aci.c ****       cp1->Enc_Key_Size = htob(Enc_Key_Size, 1);
 581              		.loc 1 183 7 view .LVU195
 582              		.loc 1 183 25 is_stmt 0 view .LVU196
 583 0066 9DF83C31 		ldrb	r3, [sp, #316]	@ zero_extendqisi2
 584 006a 6371     		strb	r3, [r4, #5]
 184:Middlewares/ST/BlueNRG-2/hci/controller/bluenrg1_gatt_aci.c ****     }
 185:Middlewares/ST/BlueNRG-2/hci/controller/bluenrg1_gatt_aci.c ****     index_input += 1;
 585              		.loc 1 185 5 is_stmt 1 view .LVU197
 586              	.LVL62:
 186:Middlewares/ST/BlueNRG-2/hci/controller/bluenrg1_gatt_aci.c ****     {
 187:Middlewares/ST/BlueNRG-2/hci/controller/bluenrg1_gatt_aci.c ****       cp1->Is_Variable = htob(Is_Variable, 1);
 587              		.loc 1 187 7 view .LVU198
 588              		.loc 1 187 24 is_stmt 0 view .LVU199
 589 006c 9DF84031 		ldrb	r3, [sp, #320]	@ zero_extendqisi2
 590 0070 A371     		strb	r3, [r4, #6]
 188:Middlewares/ST/BlueNRG-2/hci/controller/bluenrg1_gatt_aci.c ****     }
 189:Middlewares/ST/BlueNRG-2/hci/controller/bluenrg1_gatt_aci.c ****     index_input += 1;
 591              		.loc 1 189 5 is_stmt 1 view .LVU200
 592              		.loc 1 189 17 is_stmt 0 view .LVU201
 593 0072 0A36     		adds	r6, r6, #10
 594              	.LVL63:
 595              		.loc 1 189 17 view .LVU202
 596              	.LBE8:
 190:Middlewares/ST/BlueNRG-2/hci/controller/bluenrg1_gatt_aci.c ****   }
 191:Middlewares/ST/BlueNRG-2/hci/controller/bluenrg1_gatt_aci.c ****   BLUENRG_memset(&rq, 0, sizeof(rq));
 597              		.loc 1 191 3 is_stmt 1 view .LVU203
 598 0074 0021     		movs	r1, #0
ARM GAS  C:\Users\IAHERN~1\AppData\Local\Temp\ccP26j2c.s 			page 15


 599 0076 4291     		str	r1, [sp, #264]
 600 0078 4391     		str	r1, [sp, #268]
 601 007a 4491     		str	r1, [sp, #272]
 602 007c 4591     		str	r1, [sp, #276]
 603 007e 4691     		str	r1, [sp, #280]
 604 0080 4791     		str	r1, [sp, #284]
 192:Middlewares/ST/BlueNRG-2/hci/controller/bluenrg1_gatt_aci.c ****   rq.ogf = 0x3f;
 605              		.loc 1 192 3 view .LVU204
 606              		.loc 1 192 10 is_stmt 0 view .LVU205
 607 0082 3F23     		movs	r3, #63
 608 0084 ADF80831 		strh	r3, [sp, #264]	@ movhi
 193:Middlewares/ST/BlueNRG-2/hci/controller/bluenrg1_gatt_aci.c ****   rq.ocf = 0x104;
 609              		.loc 1 193 3 is_stmt 1 view .LVU206
 610              		.loc 1 193 10 is_stmt 0 view .LVU207
 611 0088 4FF48273 		mov	r3, #260
 612 008c ADF80A31 		strh	r3, [sp, #266]	@ movhi
 194:Middlewares/ST/BlueNRG-2/hci/controller/bluenrg1_gatt_aci.c ****   rq.cparam = cmd_buffer;
 613              		.loc 1 194 3 is_stmt 1 view .LVU208
 614              		.loc 1 194 13 is_stmt 0 view .LVU209
 615 0090 01AB     		add	r3, sp, #4
 616              	.LVL64:
 617              		.loc 1 194 13 view .LVU210
 618 0092 4493     		str	r3, [sp, #272]
 195:Middlewares/ST/BlueNRG-2/hci/controller/bluenrg1_gatt_aci.c ****   rq.clen = index_input;
 619              		.loc 1 195 3 is_stmt 1 view .LVU211
 620              		.loc 1 195 11 is_stmt 0 view .LVU212
 621 0094 4596     		str	r6, [sp, #276]
 196:Middlewares/ST/BlueNRG-2/hci/controller/bluenrg1_gatt_aci.c ****   rq.rparam = &resp;
 622              		.loc 1 196 3 is_stmt 1 view .LVU213
 623              		.loc 1 196 13 is_stmt 0 view .LVU214
 624 0096 CDF818D1 		str	sp, [sp, #280]
 197:Middlewares/ST/BlueNRG-2/hci/controller/bluenrg1_gatt_aci.c ****   rq.rlen = sizeof(resp);
 625              		.loc 1 197 3 is_stmt 1 view .LVU215
 626              		.loc 1 197 11 is_stmt 0 view .LVU216
 627 009a 0323     		movs	r3, #3
 628              	.LVL65:
 629              		.loc 1 197 11 view .LVU217
 630 009c 4793     		str	r3, [sp, #284]
 198:Middlewares/ST/BlueNRG-2/hci/controller/bluenrg1_gatt_aci.c ****   if (hci_send_req(&rq, FALSE) < 0)
 631              		.loc 1 198 3 is_stmt 1 view .LVU218
 632              		.loc 1 198 7 is_stmt 0 view .LVU219
 633 009e 42A8     		add	r0, sp, #264
 634 00a0 FFF7FEFF 		bl	hci_send_req
 635              	.LVL66:
 636              		.loc 1 198 6 discriminator 1 view .LVU220
 637 00a4 0028     		cmp	r0, #0
 638 00a6 0ADB     		blt	.L31
 199:Middlewares/ST/BlueNRG-2/hci/controller/bluenrg1_gatt_aci.c ****     return BLE_STATUS_TIMEOUT;
 200:Middlewares/ST/BlueNRG-2/hci/controller/bluenrg1_gatt_aci.c ****   if (resp.Status) {
 639              		.loc 1 200 3 is_stmt 1 view .LVU221
 640              		.loc 1 200 11 is_stmt 0 view .LVU222
 641 00a8 9DF80000 		ldrb	r0, [sp]	@ zero_extendqisi2
 642              		.loc 1 200 6 view .LVU223
 643 00ac 18B9     		cbnz	r0, .L26
 201:Middlewares/ST/BlueNRG-2/hci/controller/bluenrg1_gatt_aci.c ****     return resp.Status;
 202:Middlewares/ST/BlueNRG-2/hci/controller/bluenrg1_gatt_aci.c ****   }
 203:Middlewares/ST/BlueNRG-2/hci/controller/bluenrg1_gatt_aci.c ****   *Char_Handle = btoh(resp.Char_Handle, 2);
ARM GAS  C:\Users\IAHERN~1\AppData\Local\Temp\ccP26j2c.s 			page 16


 644              		.loc 1 203 3 is_stmt 1 view .LVU224
 645              		.loc 1 203 18 is_stmt 0 view .LVU225
 646 00ae BDF80120 		ldrh	r2, [sp, #1]	@ unaligned
 647              		.loc 1 203 16 view .LVU226
 648 00b2 519B     		ldr	r3, [sp, #324]
 649 00b4 1A80     		strh	r2, [r3]	@ movhi
 204:Middlewares/ST/BlueNRG-2/hci/controller/bluenrg1_gatt_aci.c ****   return BLE_STATUS_SUCCESS;
 650              		.loc 1 204 3 is_stmt 1 view .LVU227
 651              	.LVL67:
 652              	.L26:
 205:Middlewares/ST/BlueNRG-2/hci/controller/bluenrg1_gatt_aci.c **** }
 653              		.loc 1 205 1 is_stmt 0 view .LVU228
 654 00b6 48B0     		add	sp, sp, #288
 655              		.cfi_remember_state
 656              		.cfi_def_cfa_offset 16
 657              		@ sp needed
 658 00b8 70BD     		pop	{r4, r5, r6, pc}
 659              	.LVL68:
 660              	.L30:
 661              		.cfi_restore_state
 662              	.LBB9:
 159:Middlewares/ST/BlueNRG-2/hci/controller/bluenrg1_gatt_aci.c ****       case 1: size = 2; break;
 663              		.loc 1 159 5 view .LVU229
 664 00ba 4720     		movs	r0, #71
 665              	.LVL69:
 159:Middlewares/ST/BlueNRG-2/hci/controller/bluenrg1_gatt_aci.c ****       case 1: size = 2; break;
 666              		.loc 1 159 5 view .LVU230
 667 00bc FBE7     		b	.L26
 668              	.LVL70:
 669              	.L31:
 159:Middlewares/ST/BlueNRG-2/hci/controller/bluenrg1_gatt_aci.c ****       case 1: size = 2; break;
 670              		.loc 1 159 5 view .LVU231
 671              	.LBE9:
 199:Middlewares/ST/BlueNRG-2/hci/controller/bluenrg1_gatt_aci.c ****   if (resp.Status) {
 672              		.loc 1 199 12 view .LVU232
 673 00be FF20     		movs	r0, #255
 674 00c0 F9E7     		b	.L26
 675              		.cfi_endproc
 676              	.LFE140:
 678              		.section	.text.aci_gatt_add_char_desc,"ax",%progbits
 679              		.align	1
 680              		.global	aci_gatt_add_char_desc
 681              		.syntax unified
 682              		.thumb
 683              		.thumb_func
 685              	aci_gatt_add_char_desc:
 686              	.LVL71:
 687              	.LFB141:
 206:Middlewares/ST/BlueNRG-2/hci/controller/bluenrg1_gatt_aci.c **** tBleStatus aci_gatt_add_char_desc(uint16_t Service_Handle,
 207:Middlewares/ST/BlueNRG-2/hci/controller/bluenrg1_gatt_aci.c ****                                   uint16_t Char_Handle,
 208:Middlewares/ST/BlueNRG-2/hci/controller/bluenrg1_gatt_aci.c ****                                   uint8_t Char_Desc_Uuid_Type,
 209:Middlewares/ST/BlueNRG-2/hci/controller/bluenrg1_gatt_aci.c ****                                   Char_Desc_Uuid_t *Char_Desc_Uuid,
 210:Middlewares/ST/BlueNRG-2/hci/controller/bluenrg1_gatt_aci.c ****                                   uint8_t Char_Desc_Value_Max_Len,
 211:Middlewares/ST/BlueNRG-2/hci/controller/bluenrg1_gatt_aci.c ****                                   uint8_t Char_Desc_Value_Length,
 212:Middlewares/ST/BlueNRG-2/hci/controller/bluenrg1_gatt_aci.c ****                                   uint8_t Char_Desc_Value[],
 213:Middlewares/ST/BlueNRG-2/hci/controller/bluenrg1_gatt_aci.c ****                                   uint8_t Security_Permissions,
 214:Middlewares/ST/BlueNRG-2/hci/controller/bluenrg1_gatt_aci.c ****                                   uint8_t Access_Permissions,
ARM GAS  C:\Users\IAHERN~1\AppData\Local\Temp\ccP26j2c.s 			page 17


 215:Middlewares/ST/BlueNRG-2/hci/controller/bluenrg1_gatt_aci.c ****                                   uint8_t GATT_Evt_Mask,
 216:Middlewares/ST/BlueNRG-2/hci/controller/bluenrg1_gatt_aci.c ****                                   uint8_t Enc_Key_Size,
 217:Middlewares/ST/BlueNRG-2/hci/controller/bluenrg1_gatt_aci.c ****                                   uint8_t Is_Variable,
 218:Middlewares/ST/BlueNRG-2/hci/controller/bluenrg1_gatt_aci.c ****                                   uint16_t *Char_Desc_Handle)
 219:Middlewares/ST/BlueNRG-2/hci/controller/bluenrg1_gatt_aci.c **** {
 688              		.loc 1 219 1 is_stmt 1 view -0
 689              		.cfi_startproc
 690              		@ args = 36, pretend = 0, frame = 288
 691              		@ frame_needed = 0, uses_anonymous_args = 0
 692              		.loc 1 219 1 is_stmt 0 view .LVU234
 693 0000 2DE9F041 		push	{r4, r5, r6, r7, r8, lr}
 694              		.cfi_def_cfa_offset 24
 695              		.cfi_offset 4, -24
 696              		.cfi_offset 5, -20
 697              		.cfi_offset 6, -16
 698              		.cfi_offset 7, -12
 699              		.cfi_offset 8, -8
 700              		.cfi_offset 14, -4
 701 0004 C8B0     		sub	sp, sp, #288
 702              		.cfi_def_cfa_offset 312
 703 0006 8C46     		mov	ip, r1
 704 0008 1946     		mov	r1, r3
 705              	.LVL72:
 706              		.loc 1 219 1 view .LVU235
 707 000a 9DF83C41 		ldrb	r4, [sp, #316]	@ zero_extendqisi2
 220:Middlewares/ST/BlueNRG-2/hci/controller/bluenrg1_gatt_aci.c ****   struct hci_request rq;
 708              		.loc 1 220 3 is_stmt 1 view .LVU236
 221:Middlewares/ST/BlueNRG-2/hci/controller/bluenrg1_gatt_aci.c ****   uint8_t cmd_buffer[258];
 709              		.loc 1 221 3 view .LVU237
 222:Middlewares/ST/BlueNRG-2/hci/controller/bluenrg1_gatt_aci.c ****   aci_gatt_add_char_desc_cp0 *cp0 = (aci_gatt_add_char_desc_cp0*)(cmd_buffer);
 710              		.loc 1 222 3 view .LVU238
 711              	.LVL73:
 223:Middlewares/ST/BlueNRG-2/hci/controller/bluenrg1_gatt_aci.c ****   aci_gatt_add_char_desc_cp1 *cp1 = (aci_gatt_add_char_desc_cp1*)(cmd_buffer + 2 + 2 + 1 + (Char_De
 712              		.loc 1 223 3 view .LVU239
 713              		.loc 1 223 90 is_stmt 0 view .LVU240
 714 000e 012A     		cmp	r2, #1
 715 0010 20D0     		beq	.L39
 716              		.loc 1 223 90 discriminator 1 view .LVU241
 717 0012 022A     		cmp	r2, #2
 718 0014 1CD0     		beq	.L47
 719              		.loc 1 223 90 discriminator 4 view .LVU242
 720 0016 0523     		movs	r3, #5
 721              	.LVL74:
 722              	.L35:
 723              		.loc 1 223 31 discriminator 8 view .LVU243
 724 0018 01AD     		add	r5, sp, #4
 725              	.LVL75:
 726              		.loc 1 223 31 discriminator 8 view .LVU244
 727 001a 1D44     		add	r5, r5, r3
 728              	.LVL76:
 224:Middlewares/ST/BlueNRG-2/hci/controller/bluenrg1_gatt_aci.c ****   aci_gatt_add_char_desc_cp2 *cp2 = (aci_gatt_add_char_desc_cp2*)(cmd_buffer + 2 + 2 + 1 + (Char_De
 729              		.loc 1 224 3 is_stmt 1 view .LVU245
 730              		.loc 1 224 165 is_stmt 0 view .LVU246
 731 001c 012A     		cmp	r2, #1
 732 001e 1DD0     		beq	.L41
 733              		.loc 1 224 165 discriminator 1 view .LVU247
 734 0020 022A     		cmp	r2, #2
ARM GAS  C:\Users\IAHERN~1\AppData\Local\Temp\ccP26j2c.s 			page 18


 735 0022 19D0     		beq	.L48
 736              		.loc 1 224 165 discriminator 4 view .LVU248
 737 0024 0726     		movs	r6, #7
 738              	.L36:
 739              		.loc 1 224 169 discriminator 8 view .LVU249
 740 0026 2644     		add	r6, r6, r4
 741              		.loc 1 224 31 discriminator 8 view .LVU250
 742 0028 01AB     		add	r3, sp, #4
 743              	.LVL77:
 744              		.loc 1 224 31 discriminator 8 view .LVU251
 745 002a 9F19     		adds	r7, r3, r6
 746              	.LVL78:
 225:Middlewares/ST/BlueNRG-2/hci/controller/bluenrg1_gatt_aci.c ****   aci_gatt_add_char_desc_rp0 resp;
 747              		.loc 1 225 3 is_stmt 1 view .LVU252
 226:Middlewares/ST/BlueNRG-2/hci/controller/bluenrg1_gatt_aci.c ****   BLUENRG_memset(&resp, 0, sizeof(resp));
 748              		.loc 1 226 3 view .LVU253
 749 002c 0023     		movs	r3, #0
 750              	.LVL79:
 751              		.loc 1 226 3 is_stmt 0 view .LVU254
 752 002e ADF80030 		strh	r3, [sp]	@ movhi
 753 0032 8DF80230 		strb	r3, [sp, #2]
 227:Middlewares/ST/BlueNRG-2/hci/controller/bluenrg1_gatt_aci.c ****   uint8_t index_input = 0;
 754              		.loc 1 227 3 is_stmt 1 view .LVU255
 755              	.LVL80:
 228:Middlewares/ST/BlueNRG-2/hci/controller/bluenrg1_gatt_aci.c ****   cp0->Service_Handle = htob(Service_Handle, 2);
 756              		.loc 1 228 3 view .LVU256
 757              		.loc 1 228 23 is_stmt 0 view .LVU257
 758 0036 ADF80400 		strh	r0, [sp, #4]	@ movhi
 229:Middlewares/ST/BlueNRG-2/hci/controller/bluenrg1_gatt_aci.c ****   index_input += 2;
 759              		.loc 1 229 3 is_stmt 1 view .LVU258
 760              	.LVL81:
 230:Middlewares/ST/BlueNRG-2/hci/controller/bluenrg1_gatt_aci.c ****   cp0->Char_Handle = htob(Char_Handle, 2);
 761              		.loc 1 230 3 view .LVU259
 762              		.loc 1 230 20 is_stmt 0 view .LVU260
 763 003a ADF806C0 		strh	ip, [sp, #6]	@ movhi
 231:Middlewares/ST/BlueNRG-2/hci/controller/bluenrg1_gatt_aci.c ****   index_input += 2;
 764              		.loc 1 231 3 is_stmt 1 view .LVU261
 765              	.LVL82:
 232:Middlewares/ST/BlueNRG-2/hci/controller/bluenrg1_gatt_aci.c ****   cp0->Char_Desc_Uuid_Type = htob(Char_Desc_Uuid_Type, 1);
 766              		.loc 1 232 3 view .LVU262
 767              		.loc 1 232 28 is_stmt 0 view .LVU263
 768 003e 8DF80820 		strb	r2, [sp, #8]
 233:Middlewares/ST/BlueNRG-2/hci/controller/bluenrg1_gatt_aci.c ****   index_input += 1;
 769              		.loc 1 233 3 is_stmt 1 view .LVU264
 770              	.LVL83:
 771              	.LBB10:
 234:Middlewares/ST/BlueNRG-2/hci/controller/bluenrg1_gatt_aci.c ****   /* var_len_data input */
 235:Middlewares/ST/BlueNRG-2/hci/controller/bluenrg1_gatt_aci.c ****   {
 236:Middlewares/ST/BlueNRG-2/hci/controller/bluenrg1_gatt_aci.c ****     uint8_t size;
 772              		.loc 1 236 5 view .LVU265
 237:Middlewares/ST/BlueNRG-2/hci/controller/bluenrg1_gatt_aci.c ****     switch (Char_Desc_Uuid_Type) {
 773              		.loc 1 237 5 view .LVU266
 774 0042 012A     		cmp	r2, #1
 775 0044 0CD0     		beq	.L43
 776              		.loc 1 237 5 is_stmt 0 view .LVU267
 777 0046 022A     		cmp	r2, #2
 778 0048 53D1     		bne	.L44
ARM GAS  C:\Users\IAHERN~1\AppData\Local\Temp\ccP26j2c.s 			page 19


 238:Middlewares/ST/BlueNRG-2/hci/controller/bluenrg1_gatt_aci.c ****       case 1: size = 2; break;
 239:Middlewares/ST/BlueNRG-2/hci/controller/bluenrg1_gatt_aci.c ****       case 2: size = 16; break;
 779              		.loc 1 239 20 view .LVU268
 780 004a 4FF01008 		mov	r8, #16
 781 004e 09E0     		b	.L37
 782              	.LVL84:
 783              	.L47:
 784              		.loc 1 239 20 view .LVU269
 785              	.LBE10:
 223:Middlewares/ST/BlueNRG-2/hci/controller/bluenrg1_gatt_aci.c ****   aci_gatt_add_char_desc_cp2 *cp2 = (aci_gatt_add_char_desc_cp2*)(cmd_buffer + 2 + 2 + 1 + (Char_De
 786              		.loc 1 223 90 discriminator 3 view .LVU270
 787 0050 1523     		movs	r3, #21
 788 0052 E1E7     		b	.L35
 789              	.L39:
 223:Middlewares/ST/BlueNRG-2/hci/controller/bluenrg1_gatt_aci.c ****   aci_gatt_add_char_desc_cp2 *cp2 = (aci_gatt_add_char_desc_cp2*)(cmd_buffer + 2 + 2 + 1 + (Char_De
 790              		.loc 1 223 90 discriminator 2 view .LVU271
 791 0054 0723     		movs	r3, #7
 792 0056 DFE7     		b	.L35
 793              	.LVL85:
 794              	.L48:
 224:Middlewares/ST/BlueNRG-2/hci/controller/bluenrg1_gatt_aci.c ****   aci_gatt_add_char_desc_rp0 resp;
 795              		.loc 1 224 165 discriminator 3 view .LVU272
 796 0058 1726     		movs	r6, #23
 797 005a E4E7     		b	.L36
 798              	.L41:
 224:Middlewares/ST/BlueNRG-2/hci/controller/bluenrg1_gatt_aci.c ****   aci_gatt_add_char_desc_rp0 resp;
 799              		.loc 1 224 165 discriminator 2 view .LVU273
 800 005c 0926     		movs	r6, #9
 801 005e E2E7     		b	.L36
 802              	.LVL86:
 803              	.L43:
 804              	.LBB11:
 237:Middlewares/ST/BlueNRG-2/hci/controller/bluenrg1_gatt_aci.c ****       case 1: size = 2; break;
 805              		.loc 1 237 5 view .LVU274
 806 0060 4FF00208 		mov	r8, #2
 807              	.L37:
 808              	.LVL87:
 240:Middlewares/ST/BlueNRG-2/hci/controller/bluenrg1_gatt_aci.c ****       default: return BLE_STATUS_ERROR;
 241:Middlewares/ST/BlueNRG-2/hci/controller/bluenrg1_gatt_aci.c ****     }
 242:Middlewares/ST/BlueNRG-2/hci/controller/bluenrg1_gatt_aci.c ****     BLUENRG_memcpy((void *) &cp0->Char_Desc_Uuid, (const void *) Char_Desc_Uuid, size);
 809              		.loc 1 242 5 is_stmt 1 view .LVU275
 810 0064 4246     		mov	r2, r8
 811              	.LVL88:
 812              		.loc 1 242 5 is_stmt 0 view .LVU276
 813 0066 0DF10900 		add	r0, sp, #9
 814              	.LVL89:
 815              		.loc 1 242 5 view .LVU277
 816 006a FFF7FEFF 		bl	memcpy
 817              	.LVL90:
 243:Middlewares/ST/BlueNRG-2/hci/controller/bluenrg1_gatt_aci.c ****     index_input += size;
 818              		.loc 1 243 5 is_stmt 1 view .LVU278
 244:Middlewares/ST/BlueNRG-2/hci/controller/bluenrg1_gatt_aci.c ****     {
 245:Middlewares/ST/BlueNRG-2/hci/controller/bluenrg1_gatt_aci.c ****       cp1->Char_Desc_Value_Max_Len = htob(Char_Desc_Value_Max_Len, 1);
 819              		.loc 1 245 7 view .LVU279
 820              		.loc 1 245 36 is_stmt 0 view .LVU280
 821 006e 9DF83831 		ldrb	r3, [sp, #312]	@ zero_extendqisi2
 822 0072 2B70     		strb	r3, [r5]
ARM GAS  C:\Users\IAHERN~1\AppData\Local\Temp\ccP26j2c.s 			page 20


 246:Middlewares/ST/BlueNRG-2/hci/controller/bluenrg1_gatt_aci.c ****     }
 247:Middlewares/ST/BlueNRG-2/hci/controller/bluenrg1_gatt_aci.c ****     index_input += 1;
 823              		.loc 1 247 5 is_stmt 1 view .LVU281
 824              	.LVL91:
 248:Middlewares/ST/BlueNRG-2/hci/controller/bluenrg1_gatt_aci.c ****     {
 249:Middlewares/ST/BlueNRG-2/hci/controller/bluenrg1_gatt_aci.c ****       cp1->Char_Desc_Value_Length = htob(Char_Desc_Value_Length, 1);
 825              		.loc 1 249 7 view .LVU282
 826              		.loc 1 249 35 is_stmt 0 view .LVU283
 827 0074 6C70     		strb	r4, [r5, #1]
 250:Middlewares/ST/BlueNRG-2/hci/controller/bluenrg1_gatt_aci.c ****     }
 251:Middlewares/ST/BlueNRG-2/hci/controller/bluenrg1_gatt_aci.c ****     index_input += 1;
 828              		.loc 1 251 5 is_stmt 1 view .LVU284
 829              		.loc 1 251 17 is_stmt 0 view .LVU285
 830 0076 08F10708 		add	r8, r8, #7
 831              	.LVL92:
 252:Middlewares/ST/BlueNRG-2/hci/controller/bluenrg1_gatt_aci.c ****     BLUENRG_memcpy((void *) &cp1->Char_Desc_Value, (const void *) Char_Desc_Value, Char_Desc_Value_
 832              		.loc 1 252 5 is_stmt 1 view .LVU286
 833 007a 2246     		mov	r2, r4
 834 007c 5099     		ldr	r1, [sp, #320]
 835 007e A81C     		adds	r0, r5, #2
 836 0080 FFF7FEFF 		bl	memcpy
 837              	.LVL93:
 253:Middlewares/ST/BlueNRG-2/hci/controller/bluenrg1_gatt_aci.c ****     index_input += Char_Desc_Value_Length*sizeof(uint8_t);
 838              		.loc 1 253 5 view .LVU287
 839              		.loc 1 253 17 is_stmt 0 view .LVU288
 840 0084 4444     		add	r4, r4, r8
 841 0086 E4B2     		uxtb	r4, r4
 842              	.LVL94:
 254:Middlewares/ST/BlueNRG-2/hci/controller/bluenrg1_gatt_aci.c ****     {
 255:Middlewares/ST/BlueNRG-2/hci/controller/bluenrg1_gatt_aci.c ****       cp2->Security_Permissions = htob(Security_Permissions, 1);
 843              		.loc 1 255 7 is_stmt 1 view .LVU289
 844              		.loc 1 255 33 is_stmt 0 view .LVU290
 845 0088 9DF84431 		ldrb	r3, [sp, #324]	@ zero_extendqisi2
 846 008c 01AA     		add	r2, sp, #4
 847              	.LVL95:
 848              		.loc 1 255 33 view .LVU291
 849 008e 9355     		strb	r3, [r2, r6]
 256:Middlewares/ST/BlueNRG-2/hci/controller/bluenrg1_gatt_aci.c ****     }
 257:Middlewares/ST/BlueNRG-2/hci/controller/bluenrg1_gatt_aci.c ****     index_input += 1;
 850              		.loc 1 257 5 is_stmt 1 view .LVU292
 851              	.LVL96:
 258:Middlewares/ST/BlueNRG-2/hci/controller/bluenrg1_gatt_aci.c ****     {
 259:Middlewares/ST/BlueNRG-2/hci/controller/bluenrg1_gatt_aci.c ****       cp2->Access_Permissions = htob(Access_Permissions, 1);
 852              		.loc 1 259 7 view .LVU293
 853              		.loc 1 259 31 is_stmt 0 view .LVU294
 854 0090 9DF84831 		ldrb	r3, [sp, #328]	@ zero_extendqisi2
 855 0094 7B70     		strb	r3, [r7, #1]
 260:Middlewares/ST/BlueNRG-2/hci/controller/bluenrg1_gatt_aci.c ****     }
 261:Middlewares/ST/BlueNRG-2/hci/controller/bluenrg1_gatt_aci.c ****     index_input += 1;
 856              		.loc 1 261 5 is_stmt 1 view .LVU295
 857              	.LVL97:
 262:Middlewares/ST/BlueNRG-2/hci/controller/bluenrg1_gatt_aci.c ****     {
 263:Middlewares/ST/BlueNRG-2/hci/controller/bluenrg1_gatt_aci.c ****       cp2->GATT_Evt_Mask = htob(GATT_Evt_Mask, 1);
 858              		.loc 1 263 7 view .LVU296
 859              		.loc 1 263 26 is_stmt 0 view .LVU297
 860 0096 9DF84C31 		ldrb	r3, [sp, #332]	@ zero_extendqisi2
 861 009a BB70     		strb	r3, [r7, #2]
ARM GAS  C:\Users\IAHERN~1\AppData\Local\Temp\ccP26j2c.s 			page 21


 264:Middlewares/ST/BlueNRG-2/hci/controller/bluenrg1_gatt_aci.c ****     }
 265:Middlewares/ST/BlueNRG-2/hci/controller/bluenrg1_gatt_aci.c ****     index_input += 1;
 862              		.loc 1 265 5 is_stmt 1 view .LVU298
 863              	.LVL98:
 266:Middlewares/ST/BlueNRG-2/hci/controller/bluenrg1_gatt_aci.c ****     {
 267:Middlewares/ST/BlueNRG-2/hci/controller/bluenrg1_gatt_aci.c ****       cp2->Enc_Key_Size = htob(Enc_Key_Size, 1);
 864              		.loc 1 267 7 view .LVU299
 865              		.loc 1 267 25 is_stmt 0 view .LVU300
 866 009c 9DF85031 		ldrb	r3, [sp, #336]	@ zero_extendqisi2
 867 00a0 FB70     		strb	r3, [r7, #3]
 268:Middlewares/ST/BlueNRG-2/hci/controller/bluenrg1_gatt_aci.c ****     }
 269:Middlewares/ST/BlueNRG-2/hci/controller/bluenrg1_gatt_aci.c ****     index_input += 1;
 868              		.loc 1 269 5 is_stmt 1 view .LVU301
 869              	.LVL99:
 270:Middlewares/ST/BlueNRG-2/hci/controller/bluenrg1_gatt_aci.c ****     {
 271:Middlewares/ST/BlueNRG-2/hci/controller/bluenrg1_gatt_aci.c ****       cp2->Is_Variable = htob(Is_Variable, 1);
 870              		.loc 1 271 7 view .LVU302
 871              		.loc 1 271 24 is_stmt 0 view .LVU303
 872 00a2 9DF85431 		ldrb	r3, [sp, #340]	@ zero_extendqisi2
 873 00a6 3B71     		strb	r3, [r7, #4]
 272:Middlewares/ST/BlueNRG-2/hci/controller/bluenrg1_gatt_aci.c ****     }
 273:Middlewares/ST/BlueNRG-2/hci/controller/bluenrg1_gatt_aci.c ****     index_input += 1;
 874              		.loc 1 273 5 is_stmt 1 view .LVU304
 875              		.loc 1 273 17 is_stmt 0 view .LVU305
 876 00a8 0534     		adds	r4, r4, #5
 877              	.LVL100:
 878              		.loc 1 273 17 view .LVU306
 879 00aa E4B2     		uxtb	r4, r4
 880              	.LVL101:
 881              		.loc 1 273 17 view .LVU307
 882              	.LBE11:
 274:Middlewares/ST/BlueNRG-2/hci/controller/bluenrg1_gatt_aci.c ****   }
 275:Middlewares/ST/BlueNRG-2/hci/controller/bluenrg1_gatt_aci.c ****   BLUENRG_memset(&rq, 0, sizeof(rq));
 883              		.loc 1 275 3 is_stmt 1 view .LVU308
 884 00ac 0021     		movs	r1, #0
 885 00ae 4291     		str	r1, [sp, #264]
 886 00b0 4391     		str	r1, [sp, #268]
 887 00b2 4491     		str	r1, [sp, #272]
 888 00b4 4591     		str	r1, [sp, #276]
 889 00b6 4691     		str	r1, [sp, #280]
 890 00b8 4791     		str	r1, [sp, #284]
 276:Middlewares/ST/BlueNRG-2/hci/controller/bluenrg1_gatt_aci.c ****   rq.ogf = 0x3f;
 891              		.loc 1 276 3 view .LVU309
 892              		.loc 1 276 10 is_stmt 0 view .LVU310
 893 00ba 3F23     		movs	r3, #63
 894 00bc ADF80831 		strh	r3, [sp, #264]	@ movhi
 277:Middlewares/ST/BlueNRG-2/hci/controller/bluenrg1_gatt_aci.c ****   rq.ocf = 0x105;
 895              		.loc 1 277 3 is_stmt 1 view .LVU311
 896              		.loc 1 277 10 is_stmt 0 view .LVU312
 897 00c0 40F20513 		movw	r3, #261
 898 00c4 ADF80A31 		strh	r3, [sp, #266]	@ movhi
 278:Middlewares/ST/BlueNRG-2/hci/controller/bluenrg1_gatt_aci.c ****   rq.cparam = cmd_buffer;
 899              		.loc 1 278 3 is_stmt 1 view .LVU313
 900              		.loc 1 278 13 is_stmt 0 view .LVU314
 901 00c8 4492     		str	r2, [sp, #272]
 279:Middlewares/ST/BlueNRG-2/hci/controller/bluenrg1_gatt_aci.c ****   rq.clen = index_input;
 902              		.loc 1 279 3 is_stmt 1 view .LVU315
ARM GAS  C:\Users\IAHERN~1\AppData\Local\Temp\ccP26j2c.s 			page 22


 903              		.loc 1 279 11 is_stmt 0 view .LVU316
 904 00ca 4594     		str	r4, [sp, #276]
 280:Middlewares/ST/BlueNRG-2/hci/controller/bluenrg1_gatt_aci.c ****   rq.rparam = &resp;
 905              		.loc 1 280 3 is_stmt 1 view .LVU317
 906              		.loc 1 280 13 is_stmt 0 view .LVU318
 907 00cc CDF818D1 		str	sp, [sp, #280]
 281:Middlewares/ST/BlueNRG-2/hci/controller/bluenrg1_gatt_aci.c ****   rq.rlen = sizeof(resp);
 908              		.loc 1 281 3 is_stmt 1 view .LVU319
 909              		.loc 1 281 11 is_stmt 0 view .LVU320
 910 00d0 0323     		movs	r3, #3
 911 00d2 4793     		str	r3, [sp, #284]
 282:Middlewares/ST/BlueNRG-2/hci/controller/bluenrg1_gatt_aci.c ****   if (hci_send_req(&rq, FALSE) < 0)
 912              		.loc 1 282 3 is_stmt 1 view .LVU321
 913              		.loc 1 282 7 is_stmt 0 view .LVU322
 914 00d4 42A8     		add	r0, sp, #264
 915 00d6 FFF7FEFF 		bl	hci_send_req
 916              	.LVL102:
 917              		.loc 1 282 6 discriminator 1 view .LVU323
 918 00da 0028     		cmp	r0, #0
 919 00dc 0BDB     		blt	.L45
 283:Middlewares/ST/BlueNRG-2/hci/controller/bluenrg1_gatt_aci.c ****     return BLE_STATUS_TIMEOUT;
 284:Middlewares/ST/BlueNRG-2/hci/controller/bluenrg1_gatt_aci.c ****   if (resp.Status) {
 920              		.loc 1 284 3 is_stmt 1 view .LVU324
 921              		.loc 1 284 11 is_stmt 0 view .LVU325
 922 00de 9DF80000 		ldrb	r0, [sp]	@ zero_extendqisi2
 923              		.loc 1 284 6 view .LVU326
 924 00e2 18B9     		cbnz	r0, .L38
 285:Middlewares/ST/BlueNRG-2/hci/controller/bluenrg1_gatt_aci.c ****     return resp.Status;
 286:Middlewares/ST/BlueNRG-2/hci/controller/bluenrg1_gatt_aci.c ****   }
 287:Middlewares/ST/BlueNRG-2/hci/controller/bluenrg1_gatt_aci.c ****   *Char_Desc_Handle = btoh(resp.Char_Desc_Handle, 2);
 925              		.loc 1 287 3 is_stmt 1 view .LVU327
 926              		.loc 1 287 23 is_stmt 0 view .LVU328
 927 00e4 BDF80120 		ldrh	r2, [sp, #1]	@ unaligned
 928              		.loc 1 287 21 view .LVU329
 929 00e8 569B     		ldr	r3, [sp, #344]
 930 00ea 1A80     		strh	r2, [r3]	@ movhi
 288:Middlewares/ST/BlueNRG-2/hci/controller/bluenrg1_gatt_aci.c ****   return BLE_STATUS_SUCCESS;
 931              		.loc 1 288 3 is_stmt 1 view .LVU330
 932              	.LVL103:
 933              	.L38:
 289:Middlewares/ST/BlueNRG-2/hci/controller/bluenrg1_gatt_aci.c **** }
 934              		.loc 1 289 1 is_stmt 0 view .LVU331
 935 00ec 48B0     		add	sp, sp, #288
 936              		.cfi_remember_state
 937              		.cfi_def_cfa_offset 24
 938              		@ sp needed
 939 00ee BDE8F081 		pop	{r4, r5, r6, r7, r8, pc}
 940              	.LVL104:
 941              	.L44:
 942              		.cfi_restore_state
 943              	.LBB12:
 237:Middlewares/ST/BlueNRG-2/hci/controller/bluenrg1_gatt_aci.c ****       case 1: size = 2; break;
 944              		.loc 1 237 5 view .LVU332
 945 00f2 4720     		movs	r0, #71
 946              	.LVL105:
 237:Middlewares/ST/BlueNRG-2/hci/controller/bluenrg1_gatt_aci.c ****       case 1: size = 2; break;
 947              		.loc 1 237 5 view .LVU333
ARM GAS  C:\Users\IAHERN~1\AppData\Local\Temp\ccP26j2c.s 			page 23


 948 00f4 FAE7     		b	.L38
 949              	.LVL106:
 950              	.L45:
 237:Middlewares/ST/BlueNRG-2/hci/controller/bluenrg1_gatt_aci.c ****       case 1: size = 2; break;
 951              		.loc 1 237 5 view .LVU334
 952              	.LBE12:
 283:Middlewares/ST/BlueNRG-2/hci/controller/bluenrg1_gatt_aci.c ****   if (resp.Status) {
 953              		.loc 1 283 12 view .LVU335
 954 00f6 FF20     		movs	r0, #255
 955 00f8 F8E7     		b	.L38
 956              		.cfi_endproc
 957              	.LFE141:
 959              		.section	.text.aci_gatt_update_char_value,"ax",%progbits
 960              		.align	1
 961              		.global	aci_gatt_update_char_value
 962              		.syntax unified
 963              		.thumb
 964              		.thumb_func
 966              	aci_gatt_update_char_value:
 967              	.LVL107:
 968              	.LFB142:
 290:Middlewares/ST/BlueNRG-2/hci/controller/bluenrg1_gatt_aci.c **** tBleStatus aci_gatt_update_char_value(uint16_t Service_Handle,
 291:Middlewares/ST/BlueNRG-2/hci/controller/bluenrg1_gatt_aci.c ****                                       uint16_t Char_Handle,
 292:Middlewares/ST/BlueNRG-2/hci/controller/bluenrg1_gatt_aci.c ****                                       uint8_t Val_Offset,
 293:Middlewares/ST/BlueNRG-2/hci/controller/bluenrg1_gatt_aci.c ****                                       uint8_t Char_Value_Length,
 294:Middlewares/ST/BlueNRG-2/hci/controller/bluenrg1_gatt_aci.c ****                                       uint8_t Char_Value[])
 295:Middlewares/ST/BlueNRG-2/hci/controller/bluenrg1_gatt_aci.c **** {
 969              		.loc 1 295 1 is_stmt 1 view -0
 970              		.cfi_startproc
 971              		@ args = 4, pretend = 0, frame = 288
 972              		@ frame_needed = 0, uses_anonymous_args = 0
 973              		.loc 1 295 1 is_stmt 0 view .LVU337
 974 0000 F0B5     		push	{r4, r5, r6, r7, lr}
 975              		.cfi_def_cfa_offset 20
 976              		.cfi_offset 4, -20
 977              		.cfi_offset 5, -16
 978              		.cfi_offset 6, -12
 979              		.cfi_offset 7, -8
 980              		.cfi_offset 14, -4
 981 0002 C9B0     		sub	sp, sp, #292
 982              		.cfi_def_cfa_offset 312
 983 0004 1C46     		mov	r4, r3
 296:Middlewares/ST/BlueNRG-2/hci/controller/bluenrg1_gatt_aci.c ****   struct hci_request rq;
 984              		.loc 1 296 3 is_stmt 1 view .LVU338
 297:Middlewares/ST/BlueNRG-2/hci/controller/bluenrg1_gatt_aci.c ****   uint8_t cmd_buffer[258];
 985              		.loc 1 297 3 view .LVU339
 298:Middlewares/ST/BlueNRG-2/hci/controller/bluenrg1_gatt_aci.c ****   aci_gatt_update_char_value_cp0 *cp0 = (aci_gatt_update_char_value_cp0*)(cmd_buffer);
 986              		.loc 1 298 3 view .LVU340
 987              	.LVL108:
 299:Middlewares/ST/BlueNRG-2/hci/controller/bluenrg1_gatt_aci.c ****   tBleStatus status = 0;
 988              		.loc 1 299 3 view .LVU341
 989              		.loc 1 299 14 is_stmt 0 view .LVU342
 990 0006 0DF10307 		add	r7, sp, #3
 991 000a 0025     		movs	r5, #0
 992 000c 8DF80350 		strb	r5, [sp, #3]
 300:Middlewares/ST/BlueNRG-2/hci/controller/bluenrg1_gatt_aci.c ****   uint8_t index_input = 0;
 993              		.loc 1 300 3 is_stmt 1 view .LVU343
ARM GAS  C:\Users\IAHERN~1\AppData\Local\Temp\ccP26j2c.s 			page 24


 994              	.LVL109:
 301:Middlewares/ST/BlueNRG-2/hci/controller/bluenrg1_gatt_aci.c ****   cp0->Service_Handle = htob(Service_Handle, 2);
 995              		.loc 1 301 3 view .LVU344
 996              		.loc 1 301 23 is_stmt 0 view .LVU345
 997 0010 01AE     		add	r6, sp, #4
 998              	.LVL110:
 999              		.loc 1 301 23 view .LVU346
 1000 0012 ADF80400 		strh	r0, [sp, #4]	@ movhi
 302:Middlewares/ST/BlueNRG-2/hci/controller/bluenrg1_gatt_aci.c ****   index_input += 2;
 1001              		.loc 1 302 3 is_stmt 1 view .LVU347
 1002              	.LVL111:
 303:Middlewares/ST/BlueNRG-2/hci/controller/bluenrg1_gatt_aci.c ****   cp0->Char_Handle = htob(Char_Handle, 2);
 1003              		.loc 1 303 3 view .LVU348
 1004              		.loc 1 303 20 is_stmt 0 view .LVU349
 1005 0016 ADF80610 		strh	r1, [sp, #6]	@ movhi
 304:Middlewares/ST/BlueNRG-2/hci/controller/bluenrg1_gatt_aci.c ****   index_input += 2;
 1006              		.loc 1 304 3 is_stmt 1 view .LVU350
 1007              	.LVL112:
 305:Middlewares/ST/BlueNRG-2/hci/controller/bluenrg1_gatt_aci.c ****   cp0->Val_Offset = htob(Val_Offset, 1);
 1008              		.loc 1 305 3 view .LVU351
 1009              		.loc 1 305 19 is_stmt 0 view .LVU352
 1010 001a 8DF80820 		strb	r2, [sp, #8]
 306:Middlewares/ST/BlueNRG-2/hci/controller/bluenrg1_gatt_aci.c ****   index_input += 1;
 1011              		.loc 1 306 3 is_stmt 1 view .LVU353
 1012              	.LVL113:
 307:Middlewares/ST/BlueNRG-2/hci/controller/bluenrg1_gatt_aci.c ****   cp0->Char_Value_Length = htob(Char_Value_Length, 1);
 1013              		.loc 1 307 3 view .LVU354
 1014              		.loc 1 307 26 is_stmt 0 view .LVU355
 1015 001e 8DF80930 		strb	r3, [sp, #9]
 308:Middlewares/ST/BlueNRG-2/hci/controller/bluenrg1_gatt_aci.c ****   index_input += 1;
 1016              		.loc 1 308 3 is_stmt 1 view .LVU356
 1017              	.LVL114:
 309:Middlewares/ST/BlueNRG-2/hci/controller/bluenrg1_gatt_aci.c ****   /* var_len_data input */
 310:Middlewares/ST/BlueNRG-2/hci/controller/bluenrg1_gatt_aci.c ****   {
 311:Middlewares/ST/BlueNRG-2/hci/controller/bluenrg1_gatt_aci.c ****     BLUENRG_memcpy((void *) &cp0->Char_Value, (const void *) Char_Value, Char_Value_Length*sizeof(u
 1018              		.loc 1 311 5 view .LVU357
 1019 0022 1A46     		mov	r2, r3
 1020              	.LVL115:
 1021              		.loc 1 311 5 is_stmt 0 view .LVU358
 1022 0024 4E99     		ldr	r1, [sp, #312]
 1023              	.LVL116:
 1024              		.loc 1 311 5 view .LVU359
 1025 0026 0DF10A00 		add	r0, sp, #10
 1026              	.LVL117:
 1027              		.loc 1 311 5 view .LVU360
 1028 002a FFF7FEFF 		bl	memcpy
 1029              	.LVL118:
 312:Middlewares/ST/BlueNRG-2/hci/controller/bluenrg1_gatt_aci.c ****     index_input += Char_Value_Length*sizeof(uint8_t);
 1030              		.loc 1 312 5 is_stmt 1 view .LVU361
 1031              		.loc 1 312 17 is_stmt 0 view .LVU362
 1032 002e 0634     		adds	r4, r4, #6
 1033              	.LVL119:
 1034              		.loc 1 312 17 view .LVU363
 1035 0030 E4B2     		uxtb	r4, r4
 1036              	.LVL120:
 313:Middlewares/ST/BlueNRG-2/hci/controller/bluenrg1_gatt_aci.c ****   }
 314:Middlewares/ST/BlueNRG-2/hci/controller/bluenrg1_gatt_aci.c ****   BLUENRG_memset(&rq, 0, sizeof(rq));
ARM GAS  C:\Users\IAHERN~1\AppData\Local\Temp\ccP26j2c.s 			page 25


 1037              		.loc 1 314 3 is_stmt 1 view .LVU364
 1038 0032 4295     		str	r5, [sp, #264]
 1039 0034 4395     		str	r5, [sp, #268]
 1040 0036 4495     		str	r5, [sp, #272]
 1041 0038 4595     		str	r5, [sp, #276]
 1042 003a 4695     		str	r5, [sp, #280]
 1043 003c 4795     		str	r5, [sp, #284]
 315:Middlewares/ST/BlueNRG-2/hci/controller/bluenrg1_gatt_aci.c ****   rq.ogf = 0x3f;
 1044              		.loc 1 315 3 view .LVU365
 1045              		.loc 1 315 10 is_stmt 0 view .LVU366
 1046 003e 3F23     		movs	r3, #63
 1047 0040 ADF80831 		strh	r3, [sp, #264]	@ movhi
 316:Middlewares/ST/BlueNRG-2/hci/controller/bluenrg1_gatt_aci.c ****   rq.ocf = 0x106;
 1048              		.loc 1 316 3 is_stmt 1 view .LVU367
 1049              		.loc 1 316 10 is_stmt 0 view .LVU368
 1050 0044 4FF48373 		mov	r3, #262
 1051 0048 ADF80A31 		strh	r3, [sp, #266]	@ movhi
 317:Middlewares/ST/BlueNRG-2/hci/controller/bluenrg1_gatt_aci.c ****   rq.cparam = cmd_buffer;
 1052              		.loc 1 317 3 is_stmt 1 view .LVU369
 1053              		.loc 1 317 13 is_stmt 0 view .LVU370
 1054 004c 4496     		str	r6, [sp, #272]
 318:Middlewares/ST/BlueNRG-2/hci/controller/bluenrg1_gatt_aci.c ****   rq.clen = index_input;
 1055              		.loc 1 318 3 is_stmt 1 view .LVU371
 1056              		.loc 1 318 11 is_stmt 0 view .LVU372
 1057 004e 4594     		str	r4, [sp, #276]
 319:Middlewares/ST/BlueNRG-2/hci/controller/bluenrg1_gatt_aci.c ****   rq.rparam = &status;
 1058              		.loc 1 319 3 is_stmt 1 view .LVU373
 1059              		.loc 1 319 13 is_stmt 0 view .LVU374
 1060 0050 4697     		str	r7, [sp, #280]
 320:Middlewares/ST/BlueNRG-2/hci/controller/bluenrg1_gatt_aci.c ****   rq.rlen = 1;
 1061              		.loc 1 320 3 is_stmt 1 view .LVU375
 1062              		.loc 1 320 11 is_stmt 0 view .LVU376
 1063 0052 0123     		movs	r3, #1
 1064 0054 4793     		str	r3, [sp, #284]
 321:Middlewares/ST/BlueNRG-2/hci/controller/bluenrg1_gatt_aci.c ****   if (hci_send_req(&rq, FALSE) < 0)
 1065              		.loc 1 321 3 is_stmt 1 view .LVU377
 1066              		.loc 1 321 7 is_stmt 0 view .LVU378
 1067 0056 2946     		mov	r1, r5
 1068 0058 42A8     		add	r0, sp, #264
 1069 005a FFF7FEFF 		bl	hci_send_req
 1070              	.LVL121:
 1071              		.loc 1 321 6 discriminator 1 view .LVU379
 1072 005e A842     		cmp	r0, r5
 1073 0060 03DB     		blt	.L51
 322:Middlewares/ST/BlueNRG-2/hci/controller/bluenrg1_gatt_aci.c ****     return BLE_STATUS_TIMEOUT;
 323:Middlewares/ST/BlueNRG-2/hci/controller/bluenrg1_gatt_aci.c ****   if (status) {
 1074              		.loc 1 323 3 is_stmt 1 view .LVU380
 1075              		.loc 1 323 7 is_stmt 0 view .LVU381
 1076 0062 9DF80300 		ldrb	r0, [sp, #3]	@ zero_extendqisi2
 1077              	.L50:
 324:Middlewares/ST/BlueNRG-2/hci/controller/bluenrg1_gatt_aci.c ****     return status;
 325:Middlewares/ST/BlueNRG-2/hci/controller/bluenrg1_gatt_aci.c ****   }
 326:Middlewares/ST/BlueNRG-2/hci/controller/bluenrg1_gatt_aci.c ****   return BLE_STATUS_SUCCESS;
 327:Middlewares/ST/BlueNRG-2/hci/controller/bluenrg1_gatt_aci.c **** }
 1078              		.loc 1 327 1 view .LVU382
 1079 0066 49B0     		add	sp, sp, #292
 1080              		.cfi_remember_state
ARM GAS  C:\Users\IAHERN~1\AppData\Local\Temp\ccP26j2c.s 			page 26


 1081              		.cfi_def_cfa_offset 20
 1082              		@ sp needed
 1083 0068 F0BD     		pop	{r4, r5, r6, r7, pc}
 1084              	.LVL122:
 1085              	.L51:
 1086              		.cfi_restore_state
 322:Middlewares/ST/BlueNRG-2/hci/controller/bluenrg1_gatt_aci.c ****     return BLE_STATUS_TIMEOUT;
 1087              		.loc 1 322 12 view .LVU383
 1088 006a FF20     		movs	r0, #255
 1089 006c FBE7     		b	.L50
 1090              		.cfi_endproc
 1091              	.LFE142:
 1093              		.section	.text.aci_gatt_del_char,"ax",%progbits
 1094              		.align	1
 1095              		.global	aci_gatt_del_char
 1096              		.syntax unified
 1097              		.thumb
 1098              		.thumb_func
 1100              	aci_gatt_del_char:
 1101              	.LVL123:
 1102              	.LFB143:
 328:Middlewares/ST/BlueNRG-2/hci/controller/bluenrg1_gatt_aci.c **** tBleStatus aci_gatt_del_char(uint16_t Serv_Handle,
 329:Middlewares/ST/BlueNRG-2/hci/controller/bluenrg1_gatt_aci.c ****                              uint16_t Char_Handle)
 330:Middlewares/ST/BlueNRG-2/hci/controller/bluenrg1_gatt_aci.c **** {
 1103              		.loc 1 330 1 is_stmt 1 view -0
 1104              		.cfi_startproc
 1105              		@ args = 0, pretend = 0, frame = 288
 1106              		@ frame_needed = 0, uses_anonymous_args = 0
 1107              		.loc 1 330 1 is_stmt 0 view .LVU385
 1108 0000 10B5     		push	{r4, lr}
 1109              		.cfi_def_cfa_offset 8
 1110              		.cfi_offset 4, -8
 1111              		.cfi_offset 14, -4
 1112 0002 C8B0     		sub	sp, sp, #288
 1113              		.cfi_def_cfa_offset 296
 331:Middlewares/ST/BlueNRG-2/hci/controller/bluenrg1_gatt_aci.c ****   struct hci_request rq;
 1114              		.loc 1 331 3 is_stmt 1 view .LVU386
 332:Middlewares/ST/BlueNRG-2/hci/controller/bluenrg1_gatt_aci.c ****   uint8_t cmd_buffer[258];
 1115              		.loc 1 332 3 view .LVU387
 333:Middlewares/ST/BlueNRG-2/hci/controller/bluenrg1_gatt_aci.c ****   aci_gatt_del_char_cp0 *cp0 = (aci_gatt_del_char_cp0*)(cmd_buffer);
 1116              		.loc 1 333 3 view .LVU388
 1117              	.LVL124:
 334:Middlewares/ST/BlueNRG-2/hci/controller/bluenrg1_gatt_aci.c ****   tBleStatus status = 0;
 1118              		.loc 1 334 3 view .LVU389
 1119              		.loc 1 334 14 is_stmt 0 view .LVU390
 1120 0004 0DF10304 		add	r4, sp, #3
 1121 0008 0023     		movs	r3, #0
 1122 000a 8DF80330 		strb	r3, [sp, #3]
 335:Middlewares/ST/BlueNRG-2/hci/controller/bluenrg1_gatt_aci.c ****   uint8_t index_input = 0;
 1123              		.loc 1 335 3 is_stmt 1 view .LVU391
 1124              	.LVL125:
 336:Middlewares/ST/BlueNRG-2/hci/controller/bluenrg1_gatt_aci.c ****   cp0->Serv_Handle = htob(Serv_Handle, 2);
 1125              		.loc 1 336 3 view .LVU392
 1126              		.loc 1 336 20 is_stmt 0 view .LVU393
 1127 000e 01AA     		add	r2, sp, #4
 1128              	.LVL126:
 1129              		.loc 1 336 20 view .LVU394
ARM GAS  C:\Users\IAHERN~1\AppData\Local\Temp\ccP26j2c.s 			page 27


 1130 0010 ADF80400 		strh	r0, [sp, #4]	@ movhi
 337:Middlewares/ST/BlueNRG-2/hci/controller/bluenrg1_gatt_aci.c ****   index_input += 2;
 1131              		.loc 1 337 3 is_stmt 1 view .LVU395
 1132              	.LVL127:
 338:Middlewares/ST/BlueNRG-2/hci/controller/bluenrg1_gatt_aci.c ****   cp0->Char_Handle = htob(Char_Handle, 2);
 1133              		.loc 1 338 3 view .LVU396
 1134              		.loc 1 338 20 is_stmt 0 view .LVU397
 1135 0014 ADF80610 		strh	r1, [sp, #6]	@ movhi
 339:Middlewares/ST/BlueNRG-2/hci/controller/bluenrg1_gatt_aci.c ****   index_input += 2;
 1136              		.loc 1 339 3 is_stmt 1 view .LVU398
 1137              	.LVL128:
 340:Middlewares/ST/BlueNRG-2/hci/controller/bluenrg1_gatt_aci.c ****   BLUENRG_memset(&rq, 0, sizeof(rq));
 1138              		.loc 1 340 3 view .LVU399
 1139 0018 4293     		str	r3, [sp, #264]
 1140 001a 4393     		str	r3, [sp, #268]
 1141 001c 4493     		str	r3, [sp, #272]
 1142 001e 4593     		str	r3, [sp, #276]
 1143 0020 4693     		str	r3, [sp, #280]
 1144 0022 4793     		str	r3, [sp, #284]
 341:Middlewares/ST/BlueNRG-2/hci/controller/bluenrg1_gatt_aci.c ****   rq.ogf = 0x3f;
 1145              		.loc 1 341 3 view .LVU400
 1146              		.loc 1 341 10 is_stmt 0 view .LVU401
 1147 0024 3F21     		movs	r1, #63
 1148              	.LVL129:
 1149              		.loc 1 341 10 view .LVU402
 1150 0026 ADF80811 		strh	r1, [sp, #264]	@ movhi
 342:Middlewares/ST/BlueNRG-2/hci/controller/bluenrg1_gatt_aci.c ****   rq.ocf = 0x107;
 1151              		.loc 1 342 3 is_stmt 1 view .LVU403
 1152              		.loc 1 342 10 is_stmt 0 view .LVU404
 1153 002a 40F20711 		movw	r1, #263
 1154 002e ADF80A11 		strh	r1, [sp, #266]	@ movhi
 343:Middlewares/ST/BlueNRG-2/hci/controller/bluenrg1_gatt_aci.c ****   rq.cparam = cmd_buffer;
 1155              		.loc 1 343 3 is_stmt 1 view .LVU405
 1156              		.loc 1 343 13 is_stmt 0 view .LVU406
 1157 0032 4492     		str	r2, [sp, #272]
 344:Middlewares/ST/BlueNRG-2/hci/controller/bluenrg1_gatt_aci.c ****   rq.clen = index_input;
 1158              		.loc 1 344 3 is_stmt 1 view .LVU407
 1159              		.loc 1 344 11 is_stmt 0 view .LVU408
 1160 0034 0422     		movs	r2, #4
 1161              	.LVL130:
 1162              		.loc 1 344 11 view .LVU409
 1163 0036 4592     		str	r2, [sp, #276]
 345:Middlewares/ST/BlueNRG-2/hci/controller/bluenrg1_gatt_aci.c ****   rq.rparam = &status;
 1164              		.loc 1 345 3 is_stmt 1 view .LVU410
 1165              		.loc 1 345 13 is_stmt 0 view .LVU411
 1166 0038 4694     		str	r4, [sp, #280]
 346:Middlewares/ST/BlueNRG-2/hci/controller/bluenrg1_gatt_aci.c ****   rq.rlen = 1;
 1167              		.loc 1 346 3 is_stmt 1 view .LVU412
 1168              		.loc 1 346 11 is_stmt 0 view .LVU413
 1169 003a 0122     		movs	r2, #1
 1170 003c 4792     		str	r2, [sp, #284]
 347:Middlewares/ST/BlueNRG-2/hci/controller/bluenrg1_gatt_aci.c ****   if (hci_send_req(&rq, FALSE) < 0)
 1171              		.loc 1 347 3 is_stmt 1 view .LVU414
 1172              		.loc 1 347 7 is_stmt 0 view .LVU415
 1173 003e 1946     		mov	r1, r3
 1174 0040 42A8     		add	r0, sp, #264
 1175              	.LVL131:
ARM GAS  C:\Users\IAHERN~1\AppData\Local\Temp\ccP26j2c.s 			page 28


 1176              		.loc 1 347 7 view .LVU416
 1177 0042 FFF7FEFF 		bl	hci_send_req
 1178              	.LVL132:
 1179              		.loc 1 347 6 discriminator 1 view .LVU417
 1180 0046 0028     		cmp	r0, #0
 1181 0048 03DB     		blt	.L55
 348:Middlewares/ST/BlueNRG-2/hci/controller/bluenrg1_gatt_aci.c ****     return BLE_STATUS_TIMEOUT;
 349:Middlewares/ST/BlueNRG-2/hci/controller/bluenrg1_gatt_aci.c ****   if (status) {
 1182              		.loc 1 349 3 is_stmt 1 view .LVU418
 1183              		.loc 1 349 7 is_stmt 0 view .LVU419
 1184 004a 9DF80300 		ldrb	r0, [sp, #3]	@ zero_extendqisi2
 1185              	.L54:
 350:Middlewares/ST/BlueNRG-2/hci/controller/bluenrg1_gatt_aci.c ****     return status;
 351:Middlewares/ST/BlueNRG-2/hci/controller/bluenrg1_gatt_aci.c ****   }
 352:Middlewares/ST/BlueNRG-2/hci/controller/bluenrg1_gatt_aci.c ****   return BLE_STATUS_SUCCESS;
 353:Middlewares/ST/BlueNRG-2/hci/controller/bluenrg1_gatt_aci.c **** }
 1186              		.loc 1 353 1 view .LVU420
 1187 004e 48B0     		add	sp, sp, #288
 1188              		.cfi_remember_state
 1189              		.cfi_def_cfa_offset 8
 1190              		@ sp needed
 1191 0050 10BD     		pop	{r4, pc}
 1192              	.LVL133:
 1193              	.L55:
 1194              		.cfi_restore_state
 348:Middlewares/ST/BlueNRG-2/hci/controller/bluenrg1_gatt_aci.c ****     return BLE_STATUS_TIMEOUT;
 1195              		.loc 1 348 12 view .LVU421
 1196 0052 FF20     		movs	r0, #255
 1197 0054 FBE7     		b	.L54
 1198              		.cfi_endproc
 1199              	.LFE143:
 1201              		.section	.text.aci_gatt_del_service,"ax",%progbits
 1202              		.align	1
 1203              		.global	aci_gatt_del_service
 1204              		.syntax unified
 1205              		.thumb
 1206              		.thumb_func
 1208              	aci_gatt_del_service:
 1209              	.LVL134:
 1210              	.LFB144:
 354:Middlewares/ST/BlueNRG-2/hci/controller/bluenrg1_gatt_aci.c **** tBleStatus aci_gatt_del_service(uint16_t Serv_Handle)
 355:Middlewares/ST/BlueNRG-2/hci/controller/bluenrg1_gatt_aci.c **** {
 1211              		.loc 1 355 1 is_stmt 1 view -0
 1212              		.cfi_startproc
 1213              		@ args = 0, pretend = 0, frame = 288
 1214              		@ frame_needed = 0, uses_anonymous_args = 0
 1215              		.loc 1 355 1 is_stmt 0 view .LVU423
 1216 0000 00B5     		push	{lr}
 1217              		.cfi_def_cfa_offset 4
 1218              		.cfi_offset 14, -4
 1219 0002 C9B0     		sub	sp, sp, #292
 1220              		.cfi_def_cfa_offset 296
 356:Middlewares/ST/BlueNRG-2/hci/controller/bluenrg1_gatt_aci.c ****   struct hci_request rq;
 1221              		.loc 1 356 3 is_stmt 1 view .LVU424
 357:Middlewares/ST/BlueNRG-2/hci/controller/bluenrg1_gatt_aci.c ****   uint8_t cmd_buffer[258];
 1222              		.loc 1 357 3 view .LVU425
 358:Middlewares/ST/BlueNRG-2/hci/controller/bluenrg1_gatt_aci.c ****   aci_gatt_del_service_cp0 *cp0 = (aci_gatt_del_service_cp0*)(cmd_buffer);
ARM GAS  C:\Users\IAHERN~1\AppData\Local\Temp\ccP26j2c.s 			page 29


 1223              		.loc 1 358 3 view .LVU426
 1224              	.LVL135:
 359:Middlewares/ST/BlueNRG-2/hci/controller/bluenrg1_gatt_aci.c ****   tBleStatus status = 0;
 1225              		.loc 1 359 3 view .LVU427
 1226              		.loc 1 359 14 is_stmt 0 view .LVU428
 1227 0004 0DF10303 		add	r3, sp, #3
 1228 0008 0021     		movs	r1, #0
 1229 000a 8DF80310 		strb	r1, [sp, #3]
 360:Middlewares/ST/BlueNRG-2/hci/controller/bluenrg1_gatt_aci.c ****   uint8_t index_input = 0;
 1230              		.loc 1 360 3 is_stmt 1 view .LVU429
 1231              	.LVL136:
 361:Middlewares/ST/BlueNRG-2/hci/controller/bluenrg1_gatt_aci.c ****   cp0->Serv_Handle = htob(Serv_Handle, 2);
 1232              		.loc 1 361 3 view .LVU430
 1233              		.loc 1 361 20 is_stmt 0 view .LVU431
 1234 000e 01AA     		add	r2, sp, #4
 1235              	.LVL137:
 1236              		.loc 1 361 20 view .LVU432
 1237 0010 ADF80400 		strh	r0, [sp, #4]	@ movhi
 362:Middlewares/ST/BlueNRG-2/hci/controller/bluenrg1_gatt_aci.c ****   index_input += 2;
 1238              		.loc 1 362 3 is_stmt 1 view .LVU433
 1239              	.LVL138:
 363:Middlewares/ST/BlueNRG-2/hci/controller/bluenrg1_gatt_aci.c ****   BLUENRG_memset(&rq, 0, sizeof(rq));
 1240              		.loc 1 363 3 view .LVU434
 1241 0014 4291     		str	r1, [sp, #264]
 1242 0016 4391     		str	r1, [sp, #268]
 1243 0018 4491     		str	r1, [sp, #272]
 1244 001a 4591     		str	r1, [sp, #276]
 1245 001c 4691     		str	r1, [sp, #280]
 1246 001e 4791     		str	r1, [sp, #284]
 364:Middlewares/ST/BlueNRG-2/hci/controller/bluenrg1_gatt_aci.c ****   rq.ogf = 0x3f;
 1247              		.loc 1 364 3 view .LVU435
 1248              		.loc 1 364 10 is_stmt 0 view .LVU436
 1249 0020 3F20     		movs	r0, #63
 1250              	.LVL139:
 1251              		.loc 1 364 10 view .LVU437
 1252 0022 ADF80801 		strh	r0, [sp, #264]	@ movhi
 365:Middlewares/ST/BlueNRG-2/hci/controller/bluenrg1_gatt_aci.c ****   rq.ocf = 0x108;
 1253              		.loc 1 365 3 is_stmt 1 view .LVU438
 1254              		.loc 1 365 10 is_stmt 0 view .LVU439
 1255 0026 4FF48470 		mov	r0, #264
 1256 002a ADF80A01 		strh	r0, [sp, #266]	@ movhi
 366:Middlewares/ST/BlueNRG-2/hci/controller/bluenrg1_gatt_aci.c ****   rq.cparam = cmd_buffer;
 1257              		.loc 1 366 3 is_stmt 1 view .LVU440
 1258              		.loc 1 366 13 is_stmt 0 view .LVU441
 1259 002e 4492     		str	r2, [sp, #272]
 367:Middlewares/ST/BlueNRG-2/hci/controller/bluenrg1_gatt_aci.c ****   rq.clen = index_input;
 1260              		.loc 1 367 3 is_stmt 1 view .LVU442
 1261              		.loc 1 367 11 is_stmt 0 view .LVU443
 1262 0030 0222     		movs	r2, #2
 1263              	.LVL140:
 1264              		.loc 1 367 11 view .LVU444
 1265 0032 4592     		str	r2, [sp, #276]
 368:Middlewares/ST/BlueNRG-2/hci/controller/bluenrg1_gatt_aci.c ****   rq.rparam = &status;
 1266              		.loc 1 368 3 is_stmt 1 view .LVU445
 1267              		.loc 1 368 13 is_stmt 0 view .LVU446
 1268 0034 4693     		str	r3, [sp, #280]
 369:Middlewares/ST/BlueNRG-2/hci/controller/bluenrg1_gatt_aci.c ****   rq.rlen = 1;
ARM GAS  C:\Users\IAHERN~1\AppData\Local\Temp\ccP26j2c.s 			page 30


 1269              		.loc 1 369 3 is_stmt 1 view .LVU447
 1270              		.loc 1 369 11 is_stmt 0 view .LVU448
 1271 0036 0123     		movs	r3, #1
 1272 0038 4793     		str	r3, [sp, #284]
 370:Middlewares/ST/BlueNRG-2/hci/controller/bluenrg1_gatt_aci.c ****   if (hci_send_req(&rq, FALSE) < 0)
 1273              		.loc 1 370 3 is_stmt 1 view .LVU449
 1274              		.loc 1 370 7 is_stmt 0 view .LVU450
 1275 003a 6844     		add	r0, sp, r0
 1276 003c FFF7FEFF 		bl	hci_send_req
 1277              	.LVL141:
 1278              		.loc 1 370 6 discriminator 1 view .LVU451
 1279 0040 0028     		cmp	r0, #0
 1280 0042 04DB     		blt	.L59
 371:Middlewares/ST/BlueNRG-2/hci/controller/bluenrg1_gatt_aci.c ****     return BLE_STATUS_TIMEOUT;
 372:Middlewares/ST/BlueNRG-2/hci/controller/bluenrg1_gatt_aci.c ****   if (status) {
 1281              		.loc 1 372 3 is_stmt 1 view .LVU452
 1282              		.loc 1 372 7 is_stmt 0 view .LVU453
 1283 0044 9DF80300 		ldrb	r0, [sp, #3]	@ zero_extendqisi2
 1284              	.L58:
 373:Middlewares/ST/BlueNRG-2/hci/controller/bluenrg1_gatt_aci.c ****     return status;
 374:Middlewares/ST/BlueNRG-2/hci/controller/bluenrg1_gatt_aci.c ****   }
 375:Middlewares/ST/BlueNRG-2/hci/controller/bluenrg1_gatt_aci.c ****   return BLE_STATUS_SUCCESS;
 376:Middlewares/ST/BlueNRG-2/hci/controller/bluenrg1_gatt_aci.c **** }
 1285              		.loc 1 376 1 view .LVU454
 1286 0048 49B0     		add	sp, sp, #292
 1287              		.cfi_remember_state
 1288              		.cfi_def_cfa_offset 4
 1289              		@ sp needed
 1290 004a 5DF804FB 		ldr	pc, [sp], #4
 1291              	.LVL142:
 1292              	.L59:
 1293              		.cfi_restore_state
 371:Middlewares/ST/BlueNRG-2/hci/controller/bluenrg1_gatt_aci.c ****     return BLE_STATUS_TIMEOUT;
 1294              		.loc 1 371 12 view .LVU455
 1295 004e FF20     		movs	r0, #255
 1296 0050 FAE7     		b	.L58
 1297              		.cfi_endproc
 1298              	.LFE144:
 1300              		.section	.text.aci_gatt_del_include_service,"ax",%progbits
 1301              		.align	1
 1302              		.global	aci_gatt_del_include_service
 1303              		.syntax unified
 1304              		.thumb
 1305              		.thumb_func
 1307              	aci_gatt_del_include_service:
 1308              	.LVL143:
 1309              	.LFB145:
 377:Middlewares/ST/BlueNRG-2/hci/controller/bluenrg1_gatt_aci.c **** tBleStatus aci_gatt_del_include_service(uint16_t Serv_Handle,
 378:Middlewares/ST/BlueNRG-2/hci/controller/bluenrg1_gatt_aci.c ****                                         uint16_t Include_Handle)
 379:Middlewares/ST/BlueNRG-2/hci/controller/bluenrg1_gatt_aci.c **** {
 1310              		.loc 1 379 1 is_stmt 1 view -0
 1311              		.cfi_startproc
 1312              		@ args = 0, pretend = 0, frame = 288
 1313              		@ frame_needed = 0, uses_anonymous_args = 0
 1314              		.loc 1 379 1 is_stmt 0 view .LVU457
 1315 0000 10B5     		push	{r4, lr}
 1316              		.cfi_def_cfa_offset 8
ARM GAS  C:\Users\IAHERN~1\AppData\Local\Temp\ccP26j2c.s 			page 31


 1317              		.cfi_offset 4, -8
 1318              		.cfi_offset 14, -4
 1319 0002 C8B0     		sub	sp, sp, #288
 1320              		.cfi_def_cfa_offset 296
 380:Middlewares/ST/BlueNRG-2/hci/controller/bluenrg1_gatt_aci.c ****   struct hci_request rq;
 1321              		.loc 1 380 3 is_stmt 1 view .LVU458
 381:Middlewares/ST/BlueNRG-2/hci/controller/bluenrg1_gatt_aci.c ****   uint8_t cmd_buffer[258];
 1322              		.loc 1 381 3 view .LVU459
 382:Middlewares/ST/BlueNRG-2/hci/controller/bluenrg1_gatt_aci.c ****   aci_gatt_del_include_service_cp0 *cp0 = (aci_gatt_del_include_service_cp0*)(cmd_buffer);
 1323              		.loc 1 382 3 view .LVU460
 1324              	.LVL144:
 383:Middlewares/ST/BlueNRG-2/hci/controller/bluenrg1_gatt_aci.c ****   tBleStatus status = 0;
 1325              		.loc 1 383 3 view .LVU461
 1326              		.loc 1 383 14 is_stmt 0 view .LVU462
 1327 0004 0DF10304 		add	r4, sp, #3
 1328 0008 0023     		movs	r3, #0
 1329 000a 8DF80330 		strb	r3, [sp, #3]
 384:Middlewares/ST/BlueNRG-2/hci/controller/bluenrg1_gatt_aci.c ****   uint8_t index_input = 0;
 1330              		.loc 1 384 3 is_stmt 1 view .LVU463
 1331              	.LVL145:
 385:Middlewares/ST/BlueNRG-2/hci/controller/bluenrg1_gatt_aci.c ****   cp0->Serv_Handle = htob(Serv_Handle, 2);
 1332              		.loc 1 385 3 view .LVU464
 1333              		.loc 1 385 20 is_stmt 0 view .LVU465
 1334 000e 01AA     		add	r2, sp, #4
 1335              	.LVL146:
 1336              		.loc 1 385 20 view .LVU466
 1337 0010 ADF80400 		strh	r0, [sp, #4]	@ movhi
 386:Middlewares/ST/BlueNRG-2/hci/controller/bluenrg1_gatt_aci.c ****   index_input += 2;
 1338              		.loc 1 386 3 is_stmt 1 view .LVU467
 1339              	.LVL147:
 387:Middlewares/ST/BlueNRG-2/hci/controller/bluenrg1_gatt_aci.c ****   cp0->Include_Handle = htob(Include_Handle, 2);
 1340              		.loc 1 387 3 view .LVU468
 1341              		.loc 1 387 23 is_stmt 0 view .LVU469
 1342 0014 ADF80610 		strh	r1, [sp, #6]	@ movhi
 388:Middlewares/ST/BlueNRG-2/hci/controller/bluenrg1_gatt_aci.c ****   index_input += 2;
 1343              		.loc 1 388 3 is_stmt 1 view .LVU470
 1344              	.LVL148:
 389:Middlewares/ST/BlueNRG-2/hci/controller/bluenrg1_gatt_aci.c ****   BLUENRG_memset(&rq, 0, sizeof(rq));
 1345              		.loc 1 389 3 view .LVU471
 1346 0018 4293     		str	r3, [sp, #264]
 1347 001a 4393     		str	r3, [sp, #268]
 1348 001c 4493     		str	r3, [sp, #272]
 1349 001e 4593     		str	r3, [sp, #276]
 1350 0020 4693     		str	r3, [sp, #280]
 1351 0022 4793     		str	r3, [sp, #284]
 390:Middlewares/ST/BlueNRG-2/hci/controller/bluenrg1_gatt_aci.c ****   rq.ogf = 0x3f;
 1352              		.loc 1 390 3 view .LVU472
 1353              		.loc 1 390 10 is_stmt 0 view .LVU473
 1354 0024 3F21     		movs	r1, #63
 1355              	.LVL149:
 1356              		.loc 1 390 10 view .LVU474
 1357 0026 ADF80811 		strh	r1, [sp, #264]	@ movhi
 391:Middlewares/ST/BlueNRG-2/hci/controller/bluenrg1_gatt_aci.c ****   rq.ocf = 0x109;
 1358              		.loc 1 391 3 is_stmt 1 view .LVU475
 1359              		.loc 1 391 10 is_stmt 0 view .LVU476
 1360 002a 40F20911 		movw	r1, #265
 1361 002e ADF80A11 		strh	r1, [sp, #266]	@ movhi
ARM GAS  C:\Users\IAHERN~1\AppData\Local\Temp\ccP26j2c.s 			page 32


 392:Middlewares/ST/BlueNRG-2/hci/controller/bluenrg1_gatt_aci.c ****   rq.cparam = cmd_buffer;
 1362              		.loc 1 392 3 is_stmt 1 view .LVU477
 1363              		.loc 1 392 13 is_stmt 0 view .LVU478
 1364 0032 4492     		str	r2, [sp, #272]
 393:Middlewares/ST/BlueNRG-2/hci/controller/bluenrg1_gatt_aci.c ****   rq.clen = index_input;
 1365              		.loc 1 393 3 is_stmt 1 view .LVU479
 1366              		.loc 1 393 11 is_stmt 0 view .LVU480
 1367 0034 0422     		movs	r2, #4
 1368              	.LVL150:
 1369              		.loc 1 393 11 view .LVU481
 1370 0036 4592     		str	r2, [sp, #276]
 394:Middlewares/ST/BlueNRG-2/hci/controller/bluenrg1_gatt_aci.c ****   rq.rparam = &status;
 1371              		.loc 1 394 3 is_stmt 1 view .LVU482
 1372              		.loc 1 394 13 is_stmt 0 view .LVU483
 1373 0038 4694     		str	r4, [sp, #280]
 395:Middlewares/ST/BlueNRG-2/hci/controller/bluenrg1_gatt_aci.c ****   rq.rlen = 1;
 1374              		.loc 1 395 3 is_stmt 1 view .LVU484
 1375              		.loc 1 395 11 is_stmt 0 view .LVU485
 1376 003a 0122     		movs	r2, #1
 1377 003c 4792     		str	r2, [sp, #284]
 396:Middlewares/ST/BlueNRG-2/hci/controller/bluenrg1_gatt_aci.c ****   if (hci_send_req(&rq, FALSE) < 0)
 1378              		.loc 1 396 3 is_stmt 1 view .LVU486
 1379              		.loc 1 396 7 is_stmt 0 view .LVU487
 1380 003e 1946     		mov	r1, r3
 1381 0040 42A8     		add	r0, sp, #264
 1382              	.LVL151:
 1383              		.loc 1 396 7 view .LVU488
 1384 0042 FFF7FEFF 		bl	hci_send_req
 1385              	.LVL152:
 1386              		.loc 1 396 6 discriminator 1 view .LVU489
 1387 0046 0028     		cmp	r0, #0
 1388 0048 03DB     		blt	.L63
 397:Middlewares/ST/BlueNRG-2/hci/controller/bluenrg1_gatt_aci.c ****     return BLE_STATUS_TIMEOUT;
 398:Middlewares/ST/BlueNRG-2/hci/controller/bluenrg1_gatt_aci.c ****   if (status) {
 1389              		.loc 1 398 3 is_stmt 1 view .LVU490
 1390              		.loc 1 398 7 is_stmt 0 view .LVU491
 1391 004a 9DF80300 		ldrb	r0, [sp, #3]	@ zero_extendqisi2
 1392              	.L62:
 399:Middlewares/ST/BlueNRG-2/hci/controller/bluenrg1_gatt_aci.c ****     return status;
 400:Middlewares/ST/BlueNRG-2/hci/controller/bluenrg1_gatt_aci.c ****   }
 401:Middlewares/ST/BlueNRG-2/hci/controller/bluenrg1_gatt_aci.c ****   return BLE_STATUS_SUCCESS;
 402:Middlewares/ST/BlueNRG-2/hci/controller/bluenrg1_gatt_aci.c **** }
 1393              		.loc 1 402 1 view .LVU492
 1394 004e 48B0     		add	sp, sp, #288
 1395              		.cfi_remember_state
 1396              		.cfi_def_cfa_offset 8
 1397              		@ sp needed
 1398 0050 10BD     		pop	{r4, pc}
 1399              	.LVL153:
 1400              	.L63:
 1401              		.cfi_restore_state
 397:Middlewares/ST/BlueNRG-2/hci/controller/bluenrg1_gatt_aci.c ****     return BLE_STATUS_TIMEOUT;
 1402              		.loc 1 397 12 view .LVU493
 1403 0052 FF20     		movs	r0, #255
 1404 0054 FBE7     		b	.L62
 1405              		.cfi_endproc
 1406              	.LFE145:
ARM GAS  C:\Users\IAHERN~1\AppData\Local\Temp\ccP26j2c.s 			page 33


 1408              		.section	.text.aci_gatt_set_event_mask,"ax",%progbits
 1409              		.align	1
 1410              		.global	aci_gatt_set_event_mask
 1411              		.syntax unified
 1412              		.thumb
 1413              		.thumb_func
 1415              	aci_gatt_set_event_mask:
 1416              	.LVL154:
 1417              	.LFB146:
 403:Middlewares/ST/BlueNRG-2/hci/controller/bluenrg1_gatt_aci.c **** tBleStatus aci_gatt_set_event_mask(uint32_t GATT_Evt_Mask)
 404:Middlewares/ST/BlueNRG-2/hci/controller/bluenrg1_gatt_aci.c **** {
 1418              		.loc 1 404 1 is_stmt 1 view -0
 1419              		.cfi_startproc
 1420              		@ args = 0, pretend = 0, frame = 288
 1421              		@ frame_needed = 0, uses_anonymous_args = 0
 1422              		.loc 1 404 1 is_stmt 0 view .LVU495
 1423 0000 00B5     		push	{lr}
 1424              		.cfi_def_cfa_offset 4
 1425              		.cfi_offset 14, -4
 1426 0002 C9B0     		sub	sp, sp, #292
 1427              		.cfi_def_cfa_offset 296
 405:Middlewares/ST/BlueNRG-2/hci/controller/bluenrg1_gatt_aci.c ****   struct hci_request rq;
 1428              		.loc 1 405 3 is_stmt 1 view .LVU496
 406:Middlewares/ST/BlueNRG-2/hci/controller/bluenrg1_gatt_aci.c ****   uint8_t cmd_buffer[258];
 1429              		.loc 1 406 3 view .LVU497
 407:Middlewares/ST/BlueNRG-2/hci/controller/bluenrg1_gatt_aci.c ****   aci_gatt_set_event_mask_cp0 *cp0 = (aci_gatt_set_event_mask_cp0*)(cmd_buffer);
 1430              		.loc 1 407 3 view .LVU498
 1431              	.LVL155:
 408:Middlewares/ST/BlueNRG-2/hci/controller/bluenrg1_gatt_aci.c ****   tBleStatus status = 0;
 1432              		.loc 1 408 3 view .LVU499
 1433              		.loc 1 408 14 is_stmt 0 view .LVU500
 1434 0004 0DF10303 		add	r3, sp, #3
 1435 0008 0021     		movs	r1, #0
 1436 000a 8DF80310 		strb	r1, [sp, #3]
 409:Middlewares/ST/BlueNRG-2/hci/controller/bluenrg1_gatt_aci.c ****   uint8_t index_input = 0;
 1437              		.loc 1 409 3 is_stmt 1 view .LVU501
 1438              	.LVL156:
 410:Middlewares/ST/BlueNRG-2/hci/controller/bluenrg1_gatt_aci.c ****   cp0->GATT_Evt_Mask = htob(GATT_Evt_Mask, 4);
 1439              		.loc 1 410 3 view .LVU502
 1440              		.loc 1 410 22 is_stmt 0 view .LVU503
 1441 000e 01AA     		add	r2, sp, #4
 1442              	.LVL157:
 1443              		.loc 1 410 22 view .LVU504
 1444 0010 0190     		str	r0, [sp, #4]
 411:Middlewares/ST/BlueNRG-2/hci/controller/bluenrg1_gatt_aci.c ****   index_input += 4;
 1445              		.loc 1 411 3 is_stmt 1 view .LVU505
 1446              	.LVL158:
 412:Middlewares/ST/BlueNRG-2/hci/controller/bluenrg1_gatt_aci.c ****   BLUENRG_memset(&rq, 0, sizeof(rq));
 1447              		.loc 1 412 3 view .LVU506
 1448 0012 4291     		str	r1, [sp, #264]
 1449 0014 4391     		str	r1, [sp, #268]
 1450 0016 4491     		str	r1, [sp, #272]
 1451 0018 4591     		str	r1, [sp, #276]
 1452 001a 4691     		str	r1, [sp, #280]
 1453 001c 4791     		str	r1, [sp, #284]
 413:Middlewares/ST/BlueNRG-2/hci/controller/bluenrg1_gatt_aci.c ****   rq.ogf = 0x3f;
 1454              		.loc 1 413 3 view .LVU507
ARM GAS  C:\Users\IAHERN~1\AppData\Local\Temp\ccP26j2c.s 			page 34


 1455              		.loc 1 413 10 is_stmt 0 view .LVU508
 1456 001e 3F20     		movs	r0, #63
 1457              	.LVL159:
 1458              		.loc 1 413 10 view .LVU509
 1459 0020 ADF80801 		strh	r0, [sp, #264]	@ movhi
 414:Middlewares/ST/BlueNRG-2/hci/controller/bluenrg1_gatt_aci.c ****   rq.ocf = 0x10a;
 1460              		.loc 1 414 3 is_stmt 1 view .LVU510
 1461              		.loc 1 414 10 is_stmt 0 view .LVU511
 1462 0024 4FF48570 		mov	r0, #266
 1463 0028 ADF80A01 		strh	r0, [sp, #266]	@ movhi
 415:Middlewares/ST/BlueNRG-2/hci/controller/bluenrg1_gatt_aci.c ****   rq.cparam = cmd_buffer;
 1464              		.loc 1 415 3 is_stmt 1 view .LVU512
 1465              		.loc 1 415 13 is_stmt 0 view .LVU513
 1466 002c 4492     		str	r2, [sp, #272]
 416:Middlewares/ST/BlueNRG-2/hci/controller/bluenrg1_gatt_aci.c ****   rq.clen = index_input;
 1467              		.loc 1 416 3 is_stmt 1 view .LVU514
 1468              		.loc 1 416 11 is_stmt 0 view .LVU515
 1469 002e 0422     		movs	r2, #4
 1470              	.LVL160:
 1471              		.loc 1 416 11 view .LVU516
 1472 0030 4592     		str	r2, [sp, #276]
 417:Middlewares/ST/BlueNRG-2/hci/controller/bluenrg1_gatt_aci.c ****   rq.rparam = &status;
 1473              		.loc 1 417 3 is_stmt 1 view .LVU517
 1474              		.loc 1 417 13 is_stmt 0 view .LVU518
 1475 0032 4693     		str	r3, [sp, #280]
 418:Middlewares/ST/BlueNRG-2/hci/controller/bluenrg1_gatt_aci.c ****   rq.rlen = 1;
 1476              		.loc 1 418 3 is_stmt 1 view .LVU519
 1477              		.loc 1 418 11 is_stmt 0 view .LVU520
 1478 0034 0123     		movs	r3, #1
 1479 0036 4793     		str	r3, [sp, #284]
 419:Middlewares/ST/BlueNRG-2/hci/controller/bluenrg1_gatt_aci.c ****   if (hci_send_req(&rq, FALSE) < 0)
 1480              		.loc 1 419 3 is_stmt 1 view .LVU521
 1481              		.loc 1 419 7 is_stmt 0 view .LVU522
 1482 0038 42A8     		add	r0, sp, #264
 1483 003a FFF7FEFF 		bl	hci_send_req
 1484              	.LVL161:
 1485              		.loc 1 419 6 discriminator 1 view .LVU523
 1486 003e 0028     		cmp	r0, #0
 1487 0040 04DB     		blt	.L67
 420:Middlewares/ST/BlueNRG-2/hci/controller/bluenrg1_gatt_aci.c ****     return BLE_STATUS_TIMEOUT;
 421:Middlewares/ST/BlueNRG-2/hci/controller/bluenrg1_gatt_aci.c ****   if (status) {
 1488              		.loc 1 421 3 is_stmt 1 view .LVU524
 1489              		.loc 1 421 7 is_stmt 0 view .LVU525
 1490 0042 9DF80300 		ldrb	r0, [sp, #3]	@ zero_extendqisi2
 1491              	.L66:
 422:Middlewares/ST/BlueNRG-2/hci/controller/bluenrg1_gatt_aci.c ****     return status;
 423:Middlewares/ST/BlueNRG-2/hci/controller/bluenrg1_gatt_aci.c ****   }
 424:Middlewares/ST/BlueNRG-2/hci/controller/bluenrg1_gatt_aci.c ****   return BLE_STATUS_SUCCESS;
 425:Middlewares/ST/BlueNRG-2/hci/controller/bluenrg1_gatt_aci.c **** }
 1492              		.loc 1 425 1 view .LVU526
 1493 0046 49B0     		add	sp, sp, #292
 1494              		.cfi_remember_state
 1495              		.cfi_def_cfa_offset 4
 1496              		@ sp needed
 1497 0048 5DF804FB 		ldr	pc, [sp], #4
 1498              	.LVL162:
 1499              	.L67:
ARM GAS  C:\Users\IAHERN~1\AppData\Local\Temp\ccP26j2c.s 			page 35


 1500              		.cfi_restore_state
 420:Middlewares/ST/BlueNRG-2/hci/controller/bluenrg1_gatt_aci.c ****     return BLE_STATUS_TIMEOUT;
 1501              		.loc 1 420 12 view .LVU527
 1502 004c FF20     		movs	r0, #255
 1503 004e FAE7     		b	.L66
 1504              		.cfi_endproc
 1505              	.LFE146:
 1507              		.section	.text.aci_gatt_exchange_config,"ax",%progbits
 1508              		.align	1
 1509              		.global	aci_gatt_exchange_config
 1510              		.syntax unified
 1511              		.thumb
 1512              		.thumb_func
 1514              	aci_gatt_exchange_config:
 1515              	.LVL163:
 1516              	.LFB147:
 426:Middlewares/ST/BlueNRG-2/hci/controller/bluenrg1_gatt_aci.c **** tBleStatus aci_gatt_exchange_config(uint16_t Connection_Handle)
 427:Middlewares/ST/BlueNRG-2/hci/controller/bluenrg1_gatt_aci.c **** {
 1517              		.loc 1 427 1 is_stmt 1 view -0
 1518              		.cfi_startproc
 1519              		@ args = 0, pretend = 0, frame = 288
 1520              		@ frame_needed = 0, uses_anonymous_args = 0
 1521              		.loc 1 427 1 is_stmt 0 view .LVU529
 1522 0000 00B5     		push	{lr}
 1523              		.cfi_def_cfa_offset 4
 1524              		.cfi_offset 14, -4
 1525 0002 C9B0     		sub	sp, sp, #292
 1526              		.cfi_def_cfa_offset 296
 428:Middlewares/ST/BlueNRG-2/hci/controller/bluenrg1_gatt_aci.c ****   struct hci_request rq;
 1527              		.loc 1 428 3 is_stmt 1 view .LVU530
 429:Middlewares/ST/BlueNRG-2/hci/controller/bluenrg1_gatt_aci.c ****   uint8_t cmd_buffer[258];
 1528              		.loc 1 429 3 view .LVU531
 430:Middlewares/ST/BlueNRG-2/hci/controller/bluenrg1_gatt_aci.c ****   aci_gatt_exchange_config_cp0 *cp0 = (aci_gatt_exchange_config_cp0*)(cmd_buffer);
 1529              		.loc 1 430 3 view .LVU532
 1530              	.LVL164:
 431:Middlewares/ST/BlueNRG-2/hci/controller/bluenrg1_gatt_aci.c ****   tBleStatus status = 0;
 1531              		.loc 1 431 3 view .LVU533
 1532              		.loc 1 431 14 is_stmt 0 view .LVU534
 1533 0004 0DF10303 		add	r3, sp, #3
 1534 0008 0021     		movs	r1, #0
 1535 000a 8DF80310 		strb	r1, [sp, #3]
 432:Middlewares/ST/BlueNRG-2/hci/controller/bluenrg1_gatt_aci.c ****   uint8_t index_input = 0;
 1536              		.loc 1 432 3 is_stmt 1 view .LVU535
 1537              	.LVL165:
 433:Middlewares/ST/BlueNRG-2/hci/controller/bluenrg1_gatt_aci.c ****   cp0->Connection_Handle = htob(Connection_Handle, 2);
 1538              		.loc 1 433 3 view .LVU536
 1539              		.loc 1 433 26 is_stmt 0 view .LVU537
 1540 000e 01AA     		add	r2, sp, #4
 1541              	.LVL166:
 1542              		.loc 1 433 26 view .LVU538
 1543 0010 ADF80400 		strh	r0, [sp, #4]	@ movhi
 434:Middlewares/ST/BlueNRG-2/hci/controller/bluenrg1_gatt_aci.c ****   index_input += 2;
 1544              		.loc 1 434 3 is_stmt 1 view .LVU539
 1545              	.LVL167:
 435:Middlewares/ST/BlueNRG-2/hci/controller/bluenrg1_gatt_aci.c ****   BLUENRG_memset(&rq, 0, sizeof(rq));
 1546              		.loc 1 435 3 view .LVU540
 1547 0014 4291     		str	r1, [sp, #264]
ARM GAS  C:\Users\IAHERN~1\AppData\Local\Temp\ccP26j2c.s 			page 36


 1548 0016 4391     		str	r1, [sp, #268]
 1549 0018 4491     		str	r1, [sp, #272]
 1550 001a 4591     		str	r1, [sp, #276]
 1551 001c 4691     		str	r1, [sp, #280]
 1552 001e 4791     		str	r1, [sp, #284]
 436:Middlewares/ST/BlueNRG-2/hci/controller/bluenrg1_gatt_aci.c ****   rq.ogf = 0x3f;
 1553              		.loc 1 436 3 view .LVU541
 1554              		.loc 1 436 10 is_stmt 0 view .LVU542
 1555 0020 3F20     		movs	r0, #63
 1556              	.LVL168:
 1557              		.loc 1 436 10 view .LVU543
 1558 0022 ADF80801 		strh	r0, [sp, #264]	@ movhi
 437:Middlewares/ST/BlueNRG-2/hci/controller/bluenrg1_gatt_aci.c ****   rq.ocf = 0x10b;
 1559              		.loc 1 437 3 is_stmt 1 view .LVU544
 1560              		.loc 1 437 10 is_stmt 0 view .LVU545
 1561 0026 40F20B10 		movw	r0, #267
 1562 002a ADF80A01 		strh	r0, [sp, #266]	@ movhi
 438:Middlewares/ST/BlueNRG-2/hci/controller/bluenrg1_gatt_aci.c ****   rq.event = 0x0F;
 1563              		.loc 1 438 3 is_stmt 1 view .LVU546
 1564              		.loc 1 438 12 is_stmt 0 view .LVU547
 1565 002e 0F20     		movs	r0, #15
 1566 0030 4390     		str	r0, [sp, #268]
 439:Middlewares/ST/BlueNRG-2/hci/controller/bluenrg1_gatt_aci.c ****   rq.cparam = cmd_buffer;
 1567              		.loc 1 439 3 is_stmt 1 view .LVU548
 1568              		.loc 1 439 13 is_stmt 0 view .LVU549
 1569 0032 4492     		str	r2, [sp, #272]
 440:Middlewares/ST/BlueNRG-2/hci/controller/bluenrg1_gatt_aci.c ****   rq.clen = index_input;
 1570              		.loc 1 440 3 is_stmt 1 view .LVU550
 1571              		.loc 1 440 11 is_stmt 0 view .LVU551
 1572 0034 0222     		movs	r2, #2
 1573              	.LVL169:
 1574              		.loc 1 440 11 view .LVU552
 1575 0036 4592     		str	r2, [sp, #276]
 441:Middlewares/ST/BlueNRG-2/hci/controller/bluenrg1_gatt_aci.c ****   rq.rparam = &status;
 1576              		.loc 1 441 3 is_stmt 1 view .LVU553
 1577              		.loc 1 441 13 is_stmt 0 view .LVU554
 1578 0038 4693     		str	r3, [sp, #280]
 442:Middlewares/ST/BlueNRG-2/hci/controller/bluenrg1_gatt_aci.c ****   rq.rlen = 1;
 1579              		.loc 1 442 3 is_stmt 1 view .LVU555
 1580              		.loc 1 442 11 is_stmt 0 view .LVU556
 1581 003a 0123     		movs	r3, #1
 1582 003c 4793     		str	r3, [sp, #284]
 443:Middlewares/ST/BlueNRG-2/hci/controller/bluenrg1_gatt_aci.c ****   if (hci_send_req(&rq, FALSE) < 0)
 1583              		.loc 1 443 3 is_stmt 1 view .LVU557
 1584              		.loc 1 443 7 is_stmt 0 view .LVU558
 1585 003e 42A8     		add	r0, sp, #264
 1586 0040 FFF7FEFF 		bl	hci_send_req
 1587              	.LVL170:
 1588              		.loc 1 443 6 discriminator 1 view .LVU559
 1589 0044 0028     		cmp	r0, #0
 1590 0046 04DB     		blt	.L71
 444:Middlewares/ST/BlueNRG-2/hci/controller/bluenrg1_gatt_aci.c ****     return BLE_STATUS_TIMEOUT;
 445:Middlewares/ST/BlueNRG-2/hci/controller/bluenrg1_gatt_aci.c ****   if (status) {
 1591              		.loc 1 445 3 is_stmt 1 view .LVU560
 1592              		.loc 1 445 7 is_stmt 0 view .LVU561
 1593 0048 9DF80300 		ldrb	r0, [sp, #3]	@ zero_extendqisi2
 1594              	.L70:
ARM GAS  C:\Users\IAHERN~1\AppData\Local\Temp\ccP26j2c.s 			page 37


 446:Middlewares/ST/BlueNRG-2/hci/controller/bluenrg1_gatt_aci.c ****     return status;
 447:Middlewares/ST/BlueNRG-2/hci/controller/bluenrg1_gatt_aci.c ****   }
 448:Middlewares/ST/BlueNRG-2/hci/controller/bluenrg1_gatt_aci.c ****   return BLE_STATUS_SUCCESS;
 449:Middlewares/ST/BlueNRG-2/hci/controller/bluenrg1_gatt_aci.c **** }
 1595              		.loc 1 449 1 view .LVU562
 1596 004c 49B0     		add	sp, sp, #292
 1597              		.cfi_remember_state
 1598              		.cfi_def_cfa_offset 4
 1599              		@ sp needed
 1600 004e 5DF804FB 		ldr	pc, [sp], #4
 1601              	.LVL171:
 1602              	.L71:
 1603              		.cfi_restore_state
 444:Middlewares/ST/BlueNRG-2/hci/controller/bluenrg1_gatt_aci.c ****     return BLE_STATUS_TIMEOUT;
 1604              		.loc 1 444 12 view .LVU563
 1605 0052 FF20     		movs	r0, #255
 1606 0054 FAE7     		b	.L70
 1607              		.cfi_endproc
 1608              	.LFE147:
 1610              		.section	.text.aci_att_find_info_req,"ax",%progbits
 1611              		.align	1
 1612              		.global	aci_att_find_info_req
 1613              		.syntax unified
 1614              		.thumb
 1615              		.thumb_func
 1617              	aci_att_find_info_req:
 1618              	.LVL172:
 1619              	.LFB148:
 450:Middlewares/ST/BlueNRG-2/hci/controller/bluenrg1_gatt_aci.c **** tBleStatus aci_att_find_info_req(uint16_t Connection_Handle,
 451:Middlewares/ST/BlueNRG-2/hci/controller/bluenrg1_gatt_aci.c ****                                  uint16_t Start_Handle,
 452:Middlewares/ST/BlueNRG-2/hci/controller/bluenrg1_gatt_aci.c ****                                  uint16_t End_Handle)
 453:Middlewares/ST/BlueNRG-2/hci/controller/bluenrg1_gatt_aci.c **** {
 1620              		.loc 1 453 1 is_stmt 1 view -0
 1621              		.cfi_startproc
 1622              		@ args = 0, pretend = 0, frame = 288
 1623              		@ frame_needed = 0, uses_anonymous_args = 0
 1624              		.loc 1 453 1 is_stmt 0 view .LVU565
 1625 0000 30B5     		push	{r4, r5, lr}
 1626              		.cfi_def_cfa_offset 12
 1627              		.cfi_offset 4, -12
 1628              		.cfi_offset 5, -8
 1629              		.cfi_offset 14, -4
 1630 0002 C9B0     		sub	sp, sp, #292
 1631              		.cfi_def_cfa_offset 304
 454:Middlewares/ST/BlueNRG-2/hci/controller/bluenrg1_gatt_aci.c ****   struct hci_request rq;
 1632              		.loc 1 454 3 is_stmt 1 view .LVU566
 455:Middlewares/ST/BlueNRG-2/hci/controller/bluenrg1_gatt_aci.c ****   uint8_t cmd_buffer[258];
 1633              		.loc 1 455 3 view .LVU567
 456:Middlewares/ST/BlueNRG-2/hci/controller/bluenrg1_gatt_aci.c ****   aci_att_find_info_req_cp0 *cp0 = (aci_att_find_info_req_cp0*)(cmd_buffer);
 1634              		.loc 1 456 3 view .LVU568
 1635              	.LVL173:
 457:Middlewares/ST/BlueNRG-2/hci/controller/bluenrg1_gatt_aci.c ****   tBleStatus status = 0;
 1636              		.loc 1 457 3 view .LVU569
 1637              		.loc 1 457 14 is_stmt 0 view .LVU570
 1638 0004 0DF10305 		add	r5, sp, #3
 1639 0008 0023     		movs	r3, #0
 1640 000a 8DF80330 		strb	r3, [sp, #3]
ARM GAS  C:\Users\IAHERN~1\AppData\Local\Temp\ccP26j2c.s 			page 38


 458:Middlewares/ST/BlueNRG-2/hci/controller/bluenrg1_gatt_aci.c ****   uint8_t index_input = 0;
 1641              		.loc 1 458 3 is_stmt 1 view .LVU571
 1642              	.LVL174:
 459:Middlewares/ST/BlueNRG-2/hci/controller/bluenrg1_gatt_aci.c ****   cp0->Connection_Handle = htob(Connection_Handle, 2);
 1643              		.loc 1 459 3 view .LVU572
 1644              		.loc 1 459 26 is_stmt 0 view .LVU573
 1645 000e 01AC     		add	r4, sp, #4
 1646              	.LVL175:
 1647              		.loc 1 459 26 view .LVU574
 1648 0010 ADF80400 		strh	r0, [sp, #4]	@ movhi
 460:Middlewares/ST/BlueNRG-2/hci/controller/bluenrg1_gatt_aci.c ****   index_input += 2;
 1649              		.loc 1 460 3 is_stmt 1 view .LVU575
 1650              	.LVL176:
 461:Middlewares/ST/BlueNRG-2/hci/controller/bluenrg1_gatt_aci.c ****   cp0->Start_Handle = htob(Start_Handle, 2);
 1651              		.loc 1 461 3 view .LVU576
 1652              		.loc 1 461 21 is_stmt 0 view .LVU577
 1653 0014 ADF80610 		strh	r1, [sp, #6]	@ movhi
 462:Middlewares/ST/BlueNRG-2/hci/controller/bluenrg1_gatt_aci.c ****   index_input += 2;
 1654              		.loc 1 462 3 is_stmt 1 view .LVU578
 1655              	.LVL177:
 463:Middlewares/ST/BlueNRG-2/hci/controller/bluenrg1_gatt_aci.c ****   cp0->End_Handle = htob(End_Handle, 2);
 1656              		.loc 1 463 3 view .LVU579
 1657              		.loc 1 463 19 is_stmt 0 view .LVU580
 1658 0018 ADF80820 		strh	r2, [sp, #8]	@ movhi
 464:Middlewares/ST/BlueNRG-2/hci/controller/bluenrg1_gatt_aci.c ****   index_input += 2;
 1659              		.loc 1 464 3 is_stmt 1 view .LVU581
 1660              	.LVL178:
 465:Middlewares/ST/BlueNRG-2/hci/controller/bluenrg1_gatt_aci.c ****   BLUENRG_memset(&rq, 0, sizeof(rq));
 1661              		.loc 1 465 3 view .LVU582
 1662 001c 4293     		str	r3, [sp, #264]
 1663 001e 4393     		str	r3, [sp, #268]
 1664 0020 4493     		str	r3, [sp, #272]
 1665 0022 4593     		str	r3, [sp, #276]
 1666 0024 4693     		str	r3, [sp, #280]
 1667 0026 4793     		str	r3, [sp, #284]
 466:Middlewares/ST/BlueNRG-2/hci/controller/bluenrg1_gatt_aci.c ****   rq.ogf = 0x3f;
 1668              		.loc 1 466 3 view .LVU583
 1669              		.loc 1 466 10 is_stmt 0 view .LVU584
 1670 0028 3F22     		movs	r2, #63
 1671              	.LVL179:
 1672              		.loc 1 466 10 view .LVU585
 1673 002a ADF80821 		strh	r2, [sp, #264]	@ movhi
 467:Middlewares/ST/BlueNRG-2/hci/controller/bluenrg1_gatt_aci.c ****   rq.ocf = 0x10c;
 1674              		.loc 1 467 3 is_stmt 1 view .LVU586
 1675              		.loc 1 467 10 is_stmt 0 view .LVU587
 1676 002e 4FF48672 		mov	r2, #268
 1677 0032 ADF80A21 		strh	r2, [sp, #266]	@ movhi
 468:Middlewares/ST/BlueNRG-2/hci/controller/bluenrg1_gatt_aci.c ****   rq.event = 0x0F;
 1678              		.loc 1 468 3 is_stmt 1 view .LVU588
 1679              		.loc 1 468 12 is_stmt 0 view .LVU589
 1680 0036 0F22     		movs	r2, #15
 1681 0038 4392     		str	r2, [sp, #268]
 469:Middlewares/ST/BlueNRG-2/hci/controller/bluenrg1_gatt_aci.c ****   rq.cparam = cmd_buffer;
 1682              		.loc 1 469 3 is_stmt 1 view .LVU590
 1683              		.loc 1 469 13 is_stmt 0 view .LVU591
 1684 003a 4494     		str	r4, [sp, #272]
 470:Middlewares/ST/BlueNRG-2/hci/controller/bluenrg1_gatt_aci.c ****   rq.clen = index_input;
ARM GAS  C:\Users\IAHERN~1\AppData\Local\Temp\ccP26j2c.s 			page 39


 1685              		.loc 1 470 3 is_stmt 1 view .LVU592
 1686              		.loc 1 470 11 is_stmt 0 view .LVU593
 1687 003c 0622     		movs	r2, #6
 1688 003e 4592     		str	r2, [sp, #276]
 471:Middlewares/ST/BlueNRG-2/hci/controller/bluenrg1_gatt_aci.c ****   rq.rparam = &status;
 1689              		.loc 1 471 3 is_stmt 1 view .LVU594
 1690              		.loc 1 471 13 is_stmt 0 view .LVU595
 1691 0040 4695     		str	r5, [sp, #280]
 472:Middlewares/ST/BlueNRG-2/hci/controller/bluenrg1_gatt_aci.c ****   rq.rlen = 1;
 1692              		.loc 1 472 3 is_stmt 1 view .LVU596
 1693              		.loc 1 472 11 is_stmt 0 view .LVU597
 1694 0042 0122     		movs	r2, #1
 1695 0044 4792     		str	r2, [sp, #284]
 473:Middlewares/ST/BlueNRG-2/hci/controller/bluenrg1_gatt_aci.c ****   if (hci_send_req(&rq, FALSE) < 0)
 1696              		.loc 1 473 3 is_stmt 1 view .LVU598
 1697              		.loc 1 473 7 is_stmt 0 view .LVU599
 1698 0046 1946     		mov	r1, r3
 1699              	.LVL180:
 1700              		.loc 1 473 7 view .LVU600
 1701 0048 42A8     		add	r0, sp, #264
 1702              	.LVL181:
 1703              		.loc 1 473 7 view .LVU601
 1704 004a FFF7FEFF 		bl	hci_send_req
 1705              	.LVL182:
 1706              		.loc 1 473 6 discriminator 1 view .LVU602
 1707 004e 0028     		cmp	r0, #0
 1708 0050 03DB     		blt	.L75
 474:Middlewares/ST/BlueNRG-2/hci/controller/bluenrg1_gatt_aci.c ****     return BLE_STATUS_TIMEOUT;
 475:Middlewares/ST/BlueNRG-2/hci/controller/bluenrg1_gatt_aci.c ****   if (status) {
 1709              		.loc 1 475 3 is_stmt 1 view .LVU603
 1710              		.loc 1 475 7 is_stmt 0 view .LVU604
 1711 0052 9DF80300 		ldrb	r0, [sp, #3]	@ zero_extendqisi2
 1712              	.L74:
 476:Middlewares/ST/BlueNRG-2/hci/controller/bluenrg1_gatt_aci.c ****     return status;
 477:Middlewares/ST/BlueNRG-2/hci/controller/bluenrg1_gatt_aci.c ****   }
 478:Middlewares/ST/BlueNRG-2/hci/controller/bluenrg1_gatt_aci.c ****   return BLE_STATUS_SUCCESS;
 479:Middlewares/ST/BlueNRG-2/hci/controller/bluenrg1_gatt_aci.c **** }
 1713              		.loc 1 479 1 view .LVU605
 1714 0056 49B0     		add	sp, sp, #292
 1715              		.cfi_remember_state
 1716              		.cfi_def_cfa_offset 12
 1717              		@ sp needed
 1718 0058 30BD     		pop	{r4, r5, pc}
 1719              	.LVL183:
 1720              	.L75:
 1721              		.cfi_restore_state
 474:Middlewares/ST/BlueNRG-2/hci/controller/bluenrg1_gatt_aci.c ****     return BLE_STATUS_TIMEOUT;
 1722              		.loc 1 474 12 view .LVU606
 1723 005a FF20     		movs	r0, #255
 1724 005c FBE7     		b	.L74
 1725              		.cfi_endproc
 1726              	.LFE148:
 1728              		.section	.text.aci_att_find_by_type_value_req,"ax",%progbits
 1729              		.align	1
 1730              		.global	aci_att_find_by_type_value_req
 1731              		.syntax unified
 1732              		.thumb
ARM GAS  C:\Users\IAHERN~1\AppData\Local\Temp\ccP26j2c.s 			page 40


 1733              		.thumb_func
 1735              	aci_att_find_by_type_value_req:
 1736              	.LVL184:
 1737              	.LFB149:
 480:Middlewares/ST/BlueNRG-2/hci/controller/bluenrg1_gatt_aci.c **** tBleStatus aci_att_find_by_type_value_req(uint16_t Connection_Handle,
 481:Middlewares/ST/BlueNRG-2/hci/controller/bluenrg1_gatt_aci.c ****                                           uint16_t Start_Handle,
 482:Middlewares/ST/BlueNRG-2/hci/controller/bluenrg1_gatt_aci.c ****                                           uint16_t End_Handle,
 483:Middlewares/ST/BlueNRG-2/hci/controller/bluenrg1_gatt_aci.c ****                                           uint16_t UUID,
 484:Middlewares/ST/BlueNRG-2/hci/controller/bluenrg1_gatt_aci.c ****                                           uint8_t Attribute_Val_Length,
 485:Middlewares/ST/BlueNRG-2/hci/controller/bluenrg1_gatt_aci.c ****                                           uint8_t Attribute_Val[])
 486:Middlewares/ST/BlueNRG-2/hci/controller/bluenrg1_gatt_aci.c **** {
 1738              		.loc 1 486 1 is_stmt 1 view -0
 1739              		.cfi_startproc
 1740              		@ args = 8, pretend = 0, frame = 288
 1741              		@ frame_needed = 0, uses_anonymous_args = 0
 1742              		.loc 1 486 1 is_stmt 0 view .LVU608
 1743 0000 F0B5     		push	{r4, r5, r6, r7, lr}
 1744              		.cfi_def_cfa_offset 20
 1745              		.cfi_offset 4, -20
 1746              		.cfi_offset 5, -16
 1747              		.cfi_offset 6, -12
 1748              		.cfi_offset 7, -8
 1749              		.cfi_offset 14, -4
 1750 0002 C9B0     		sub	sp, sp, #292
 1751              		.cfi_def_cfa_offset 312
 1752 0004 9DF83851 		ldrb	r5, [sp, #312]	@ zero_extendqisi2
 487:Middlewares/ST/BlueNRG-2/hci/controller/bluenrg1_gatt_aci.c ****   struct hci_request rq;
 1753              		.loc 1 487 3 is_stmt 1 view .LVU609
 488:Middlewares/ST/BlueNRG-2/hci/controller/bluenrg1_gatt_aci.c ****   uint8_t cmd_buffer[258];
 1754              		.loc 1 488 3 view .LVU610
 489:Middlewares/ST/BlueNRG-2/hci/controller/bluenrg1_gatt_aci.c ****   aci_att_find_by_type_value_req_cp0 *cp0 = (aci_att_find_by_type_value_req_cp0*)(cmd_buffer);
 1755              		.loc 1 489 3 view .LVU611
 1756              	.LVL185:
 490:Middlewares/ST/BlueNRG-2/hci/controller/bluenrg1_gatt_aci.c ****   tBleStatus status = 0;
 1757              		.loc 1 490 3 view .LVU612
 1758              		.loc 1 490 14 is_stmt 0 view .LVU613
 1759 0008 0DF10307 		add	r7, sp, #3
 1760 000c 0024     		movs	r4, #0
 1761 000e 8DF80340 		strb	r4, [sp, #3]
 491:Middlewares/ST/BlueNRG-2/hci/controller/bluenrg1_gatt_aci.c ****   uint8_t index_input = 0;
 1762              		.loc 1 491 3 is_stmt 1 view .LVU614
 1763              	.LVL186:
 492:Middlewares/ST/BlueNRG-2/hci/controller/bluenrg1_gatt_aci.c ****   cp0->Connection_Handle = htob(Connection_Handle, 2);
 1764              		.loc 1 492 3 view .LVU615
 1765              		.loc 1 492 26 is_stmt 0 view .LVU616
 1766 0012 01AE     		add	r6, sp, #4
 1767              	.LVL187:
 1768              		.loc 1 492 26 view .LVU617
 1769 0014 ADF80400 		strh	r0, [sp, #4]	@ movhi
 493:Middlewares/ST/BlueNRG-2/hci/controller/bluenrg1_gatt_aci.c ****   index_input += 2;
 1770              		.loc 1 493 3 is_stmt 1 view .LVU618
 1771              	.LVL188:
 494:Middlewares/ST/BlueNRG-2/hci/controller/bluenrg1_gatt_aci.c ****   cp0->Start_Handle = htob(Start_Handle, 2);
 1772              		.loc 1 494 3 view .LVU619
 1773              		.loc 1 494 21 is_stmt 0 view .LVU620
 1774 0018 ADF80610 		strh	r1, [sp, #6]	@ movhi
 495:Middlewares/ST/BlueNRG-2/hci/controller/bluenrg1_gatt_aci.c ****   index_input += 2;
ARM GAS  C:\Users\IAHERN~1\AppData\Local\Temp\ccP26j2c.s 			page 41


 1775              		.loc 1 495 3 is_stmt 1 view .LVU621
 1776              	.LVL189:
 496:Middlewares/ST/BlueNRG-2/hci/controller/bluenrg1_gatt_aci.c ****   cp0->End_Handle = htob(End_Handle, 2);
 1777              		.loc 1 496 3 view .LVU622
 1778              		.loc 1 496 19 is_stmt 0 view .LVU623
 1779 001c ADF80820 		strh	r2, [sp, #8]	@ movhi
 497:Middlewares/ST/BlueNRG-2/hci/controller/bluenrg1_gatt_aci.c ****   index_input += 2;
 1780              		.loc 1 497 3 is_stmt 1 view .LVU624
 1781              	.LVL190:
 498:Middlewares/ST/BlueNRG-2/hci/controller/bluenrg1_gatt_aci.c ****   cp0->UUID = htob(UUID, 2);
 1782              		.loc 1 498 3 view .LVU625
 1783              		.loc 1 498 13 is_stmt 0 view .LVU626
 1784 0020 ADF80A30 		strh	r3, [sp, #10]	@ movhi
 499:Middlewares/ST/BlueNRG-2/hci/controller/bluenrg1_gatt_aci.c ****   index_input += 2;
 1785              		.loc 1 499 3 is_stmt 1 view .LVU627
 1786              	.LVL191:
 500:Middlewares/ST/BlueNRG-2/hci/controller/bluenrg1_gatt_aci.c ****   cp0->Attribute_Val_Length = htob(Attribute_Val_Length, 1);
 1787              		.loc 1 500 3 view .LVU628
 1788              		.loc 1 500 29 is_stmt 0 view .LVU629
 1789 0024 8DF80C50 		strb	r5, [sp, #12]
 501:Middlewares/ST/BlueNRG-2/hci/controller/bluenrg1_gatt_aci.c ****   index_input += 1;
 1790              		.loc 1 501 3 is_stmt 1 view .LVU630
 1791              	.LVL192:
 502:Middlewares/ST/BlueNRG-2/hci/controller/bluenrg1_gatt_aci.c ****   /* var_len_data input */
 503:Middlewares/ST/BlueNRG-2/hci/controller/bluenrg1_gatt_aci.c ****   {
 504:Middlewares/ST/BlueNRG-2/hci/controller/bluenrg1_gatt_aci.c ****     BLUENRG_memcpy((void *) &cp0->Attribute_Val, (const void *) Attribute_Val, Attribute_Val_Length
 1792              		.loc 1 504 5 view .LVU631
 1793 0028 2A46     		mov	r2, r5
 1794              	.LVL193:
 1795              		.loc 1 504 5 is_stmt 0 view .LVU632
 1796 002a 4F99     		ldr	r1, [sp, #316]
 1797              	.LVL194:
 1798              		.loc 1 504 5 view .LVU633
 1799 002c 0DF10D00 		add	r0, sp, #13
 1800              	.LVL195:
 1801              		.loc 1 504 5 view .LVU634
 1802 0030 FFF7FEFF 		bl	memcpy
 1803              	.LVL196:
 505:Middlewares/ST/BlueNRG-2/hci/controller/bluenrg1_gatt_aci.c ****     index_input += Attribute_Val_Length*sizeof(uint8_t);
 1804              		.loc 1 505 5 is_stmt 1 view .LVU635
 1805              		.loc 1 505 17 is_stmt 0 view .LVU636
 1806 0034 0935     		adds	r5, r5, #9
 1807 0036 EDB2     		uxtb	r5, r5
 1808              	.LVL197:
 506:Middlewares/ST/BlueNRG-2/hci/controller/bluenrg1_gatt_aci.c ****   }
 507:Middlewares/ST/BlueNRG-2/hci/controller/bluenrg1_gatt_aci.c ****   BLUENRG_memset(&rq, 0, sizeof(rq));
 1809              		.loc 1 507 3 is_stmt 1 view .LVU637
 1810 0038 4294     		str	r4, [sp, #264]
 1811 003a 4394     		str	r4, [sp, #268]
 1812 003c 4494     		str	r4, [sp, #272]
 1813 003e 4594     		str	r4, [sp, #276]
 1814 0040 4694     		str	r4, [sp, #280]
 1815 0042 4794     		str	r4, [sp, #284]
 508:Middlewares/ST/BlueNRG-2/hci/controller/bluenrg1_gatt_aci.c ****   rq.ogf = 0x3f;
 1816              		.loc 1 508 3 view .LVU638
 1817              		.loc 1 508 10 is_stmt 0 view .LVU639
 1818 0044 3F23     		movs	r3, #63
ARM GAS  C:\Users\IAHERN~1\AppData\Local\Temp\ccP26j2c.s 			page 42


 1819 0046 ADF80831 		strh	r3, [sp, #264]	@ movhi
 509:Middlewares/ST/BlueNRG-2/hci/controller/bluenrg1_gatt_aci.c ****   rq.ocf = 0x10d;
 1820              		.loc 1 509 3 is_stmt 1 view .LVU640
 1821              		.loc 1 509 10 is_stmt 0 view .LVU641
 1822 004a 40F20D13 		movw	r3, #269
 1823 004e ADF80A31 		strh	r3, [sp, #266]	@ movhi
 510:Middlewares/ST/BlueNRG-2/hci/controller/bluenrg1_gatt_aci.c ****   rq.event = 0x0F;
 1824              		.loc 1 510 3 is_stmt 1 view .LVU642
 1825              		.loc 1 510 12 is_stmt 0 view .LVU643
 1826 0052 0F23     		movs	r3, #15
 1827 0054 4393     		str	r3, [sp, #268]
 511:Middlewares/ST/BlueNRG-2/hci/controller/bluenrg1_gatt_aci.c ****   rq.cparam = cmd_buffer;
 1828              		.loc 1 511 3 is_stmt 1 view .LVU644
 1829              		.loc 1 511 13 is_stmt 0 view .LVU645
 1830 0056 4496     		str	r6, [sp, #272]
 512:Middlewares/ST/BlueNRG-2/hci/controller/bluenrg1_gatt_aci.c ****   rq.clen = index_input;
 1831              		.loc 1 512 3 is_stmt 1 view .LVU646
 1832              		.loc 1 512 11 is_stmt 0 view .LVU647
 1833 0058 4595     		str	r5, [sp, #276]
 513:Middlewares/ST/BlueNRG-2/hci/controller/bluenrg1_gatt_aci.c ****   rq.rparam = &status;
 1834              		.loc 1 513 3 is_stmt 1 view .LVU648
 1835              		.loc 1 513 13 is_stmt 0 view .LVU649
 1836 005a 4697     		str	r7, [sp, #280]
 514:Middlewares/ST/BlueNRG-2/hci/controller/bluenrg1_gatt_aci.c ****   rq.rlen = 1;
 1837              		.loc 1 514 3 is_stmt 1 view .LVU650
 1838              		.loc 1 514 11 is_stmt 0 view .LVU651
 1839 005c 0123     		movs	r3, #1
 1840 005e 4793     		str	r3, [sp, #284]
 515:Middlewares/ST/BlueNRG-2/hci/controller/bluenrg1_gatt_aci.c ****   if (hci_send_req(&rq, FALSE) < 0)
 1841              		.loc 1 515 3 is_stmt 1 view .LVU652
 1842              		.loc 1 515 7 is_stmt 0 view .LVU653
 1843 0060 2146     		mov	r1, r4
 1844 0062 42A8     		add	r0, sp, #264
 1845 0064 FFF7FEFF 		bl	hci_send_req
 1846              	.LVL198:
 1847              		.loc 1 515 6 discriminator 1 view .LVU654
 1848 0068 A042     		cmp	r0, r4
 1849 006a 03DB     		blt	.L79
 516:Middlewares/ST/BlueNRG-2/hci/controller/bluenrg1_gatt_aci.c ****     return BLE_STATUS_TIMEOUT;
 517:Middlewares/ST/BlueNRG-2/hci/controller/bluenrg1_gatt_aci.c ****   if (status) {
 1850              		.loc 1 517 3 is_stmt 1 view .LVU655
 1851              		.loc 1 517 7 is_stmt 0 view .LVU656
 1852 006c 9DF80300 		ldrb	r0, [sp, #3]	@ zero_extendqisi2
 1853              	.L78:
 518:Middlewares/ST/BlueNRG-2/hci/controller/bluenrg1_gatt_aci.c ****     return status;
 519:Middlewares/ST/BlueNRG-2/hci/controller/bluenrg1_gatt_aci.c ****   }
 520:Middlewares/ST/BlueNRG-2/hci/controller/bluenrg1_gatt_aci.c ****   return BLE_STATUS_SUCCESS;
 521:Middlewares/ST/BlueNRG-2/hci/controller/bluenrg1_gatt_aci.c **** }
 1854              		.loc 1 521 1 view .LVU657
 1855 0070 49B0     		add	sp, sp, #292
 1856              		.cfi_remember_state
 1857              		.cfi_def_cfa_offset 20
 1858              		@ sp needed
 1859 0072 F0BD     		pop	{r4, r5, r6, r7, pc}
 1860              	.LVL199:
 1861              	.L79:
 1862              		.cfi_restore_state
ARM GAS  C:\Users\IAHERN~1\AppData\Local\Temp\ccP26j2c.s 			page 43


 516:Middlewares/ST/BlueNRG-2/hci/controller/bluenrg1_gatt_aci.c ****     return BLE_STATUS_TIMEOUT;
 1863              		.loc 1 516 12 view .LVU658
 1864 0074 FF20     		movs	r0, #255
 1865 0076 FBE7     		b	.L78
 1866              		.cfi_endproc
 1867              	.LFE149:
 1869              		.section	.text.aci_att_read_by_type_req,"ax",%progbits
 1870              		.align	1
 1871              		.global	aci_att_read_by_type_req
 1872              		.syntax unified
 1873              		.thumb
 1874              		.thumb_func
 1876              	aci_att_read_by_type_req:
 1877              	.LVL200:
 1878              	.LFB150:
 522:Middlewares/ST/BlueNRG-2/hci/controller/bluenrg1_gatt_aci.c **** tBleStatus aci_att_read_by_type_req(uint16_t Connection_Handle,
 523:Middlewares/ST/BlueNRG-2/hci/controller/bluenrg1_gatt_aci.c ****                                     uint16_t Start_Handle,
 524:Middlewares/ST/BlueNRG-2/hci/controller/bluenrg1_gatt_aci.c ****                                     uint16_t End_Handle,
 525:Middlewares/ST/BlueNRG-2/hci/controller/bluenrg1_gatt_aci.c ****                                     uint8_t UUID_Type,
 526:Middlewares/ST/BlueNRG-2/hci/controller/bluenrg1_gatt_aci.c ****                                     UUID_t *UUID)
 527:Middlewares/ST/BlueNRG-2/hci/controller/bluenrg1_gatt_aci.c **** {
 1879              		.loc 1 527 1 is_stmt 1 view -0
 1880              		.cfi_startproc
 1881              		@ args = 4, pretend = 0, frame = 288
 1882              		@ frame_needed = 0, uses_anonymous_args = 0
 1883              		.loc 1 527 1 is_stmt 0 view .LVU660
 1884 0000 10B5     		push	{r4, lr}
 1885              		.cfi_def_cfa_offset 8
 1886              		.cfi_offset 4, -8
 1887              		.cfi_offset 14, -4
 1888 0002 C8B0     		sub	sp, sp, #288
 1889              		.cfi_def_cfa_offset 296
 528:Middlewares/ST/BlueNRG-2/hci/controller/bluenrg1_gatt_aci.c ****   struct hci_request rq;
 1890              		.loc 1 528 3 is_stmt 1 view .LVU661
 529:Middlewares/ST/BlueNRG-2/hci/controller/bluenrg1_gatt_aci.c ****   uint8_t cmd_buffer[258];
 1891              		.loc 1 529 3 view .LVU662
 530:Middlewares/ST/BlueNRG-2/hci/controller/bluenrg1_gatt_aci.c ****   aci_att_read_by_type_req_cp0 *cp0 = (aci_att_read_by_type_req_cp0*)(cmd_buffer);
 1892              		.loc 1 530 3 view .LVU663
 1893              	.LVL201:
 531:Middlewares/ST/BlueNRG-2/hci/controller/bluenrg1_gatt_aci.c ****   tBleStatus status = 0;
 1894              		.loc 1 531 3 view .LVU664
 1895              		.loc 1 531 14 is_stmt 0 view .LVU665
 1896 0004 0024     		movs	r4, #0
 1897 0006 8DF80340 		strb	r4, [sp, #3]
 532:Middlewares/ST/BlueNRG-2/hci/controller/bluenrg1_gatt_aci.c ****   uint8_t index_input = 0;
 1898              		.loc 1 532 3 is_stmt 1 view .LVU666
 1899              	.LVL202:
 533:Middlewares/ST/BlueNRG-2/hci/controller/bluenrg1_gatt_aci.c ****   cp0->Connection_Handle = htob(Connection_Handle, 2);
 1900              		.loc 1 533 3 view .LVU667
 1901              		.loc 1 533 26 is_stmt 0 view .LVU668
 1902 000a ADF80400 		strh	r0, [sp, #4]	@ movhi
 534:Middlewares/ST/BlueNRG-2/hci/controller/bluenrg1_gatt_aci.c ****   index_input += 2;
 1903              		.loc 1 534 3 is_stmt 1 view .LVU669
 1904              	.LVL203:
 535:Middlewares/ST/BlueNRG-2/hci/controller/bluenrg1_gatt_aci.c ****   cp0->Start_Handle = htob(Start_Handle, 2);
 1905              		.loc 1 535 3 view .LVU670
 1906              		.loc 1 535 21 is_stmt 0 view .LVU671
ARM GAS  C:\Users\IAHERN~1\AppData\Local\Temp\ccP26j2c.s 			page 44


 1907 000e ADF80610 		strh	r1, [sp, #6]	@ movhi
 536:Middlewares/ST/BlueNRG-2/hci/controller/bluenrg1_gatt_aci.c ****   index_input += 2;
 1908              		.loc 1 536 3 is_stmt 1 view .LVU672
 1909              	.LVL204:
 537:Middlewares/ST/BlueNRG-2/hci/controller/bluenrg1_gatt_aci.c ****   cp0->End_Handle = htob(End_Handle, 2);
 1910              		.loc 1 537 3 view .LVU673
 1911              		.loc 1 537 19 is_stmt 0 view .LVU674
 1912 0012 ADF80820 		strh	r2, [sp, #8]	@ movhi
 538:Middlewares/ST/BlueNRG-2/hci/controller/bluenrg1_gatt_aci.c ****   index_input += 2;
 1913              		.loc 1 538 3 is_stmt 1 view .LVU675
 1914              	.LVL205:
 539:Middlewares/ST/BlueNRG-2/hci/controller/bluenrg1_gatt_aci.c ****   cp0->UUID_Type = htob(UUID_Type, 1);
 1915              		.loc 1 539 3 view .LVU676
 1916              		.loc 1 539 18 is_stmt 0 view .LVU677
 1917 0016 8DF80A30 		strb	r3, [sp, #10]
 540:Middlewares/ST/BlueNRG-2/hci/controller/bluenrg1_gatt_aci.c ****   index_input += 1;
 1918              		.loc 1 540 3 is_stmt 1 view .LVU678
 1919              	.LVL206:
 1920              	.LBB13:
 541:Middlewares/ST/BlueNRG-2/hci/controller/bluenrg1_gatt_aci.c ****   /* var_len_data input */
 542:Middlewares/ST/BlueNRG-2/hci/controller/bluenrg1_gatt_aci.c ****   {
 543:Middlewares/ST/BlueNRG-2/hci/controller/bluenrg1_gatt_aci.c ****     uint8_t size;
 1921              		.loc 1 543 5 view .LVU679
 544:Middlewares/ST/BlueNRG-2/hci/controller/bluenrg1_gatt_aci.c ****     switch (UUID_Type) {
 1922              		.loc 1 544 5 view .LVU680
 1923 001a 012B     		cmp	r3, #1
 1924 001c 03D0     		beq	.L84
 1925 001e 022B     		cmp	r3, #2
 1926 0020 2AD1     		bne	.L85
 545:Middlewares/ST/BlueNRG-2/hci/controller/bluenrg1_gatt_aci.c ****       case 1: size = 2; break;
 546:Middlewares/ST/BlueNRG-2/hci/controller/bluenrg1_gatt_aci.c ****       case 2: size = 16; break;
 1927              		.loc 1 546 20 is_stmt 0 view .LVU681
 1928 0022 1024     		movs	r4, #16
 1929 0024 00E0     		b	.L82
 1930              	.L84:
 544:Middlewares/ST/BlueNRG-2/hci/controller/bluenrg1_gatt_aci.c ****     switch (UUID_Type) {
 1931              		.loc 1 544 5 view .LVU682
 1932 0026 0224     		movs	r4, #2
 1933              	.L82:
 1934              	.LVL207:
 547:Middlewares/ST/BlueNRG-2/hci/controller/bluenrg1_gatt_aci.c ****       default: return BLE_STATUS_ERROR;
 548:Middlewares/ST/BlueNRG-2/hci/controller/bluenrg1_gatt_aci.c ****     }
 549:Middlewares/ST/BlueNRG-2/hci/controller/bluenrg1_gatt_aci.c ****     BLUENRG_memcpy((void *) &cp0->UUID, (const void *) UUID, size);
 1935              		.loc 1 549 5 is_stmt 1 view .LVU683
 1936 0028 2246     		mov	r2, r4
 1937              	.LVL208:
 1938              		.loc 1 549 5 is_stmt 0 view .LVU684
 1939 002a 4A99     		ldr	r1, [sp, #296]
 1940              	.LVL209:
 1941              		.loc 1 549 5 view .LVU685
 1942 002c 0DF10B00 		add	r0, sp, #11
 1943              	.LVL210:
 1944              		.loc 1 549 5 view .LVU686
 1945 0030 FFF7FEFF 		bl	memcpy
 1946              	.LVL211:
 550:Middlewares/ST/BlueNRG-2/hci/controller/bluenrg1_gatt_aci.c ****     index_input += size;
 1947              		.loc 1 550 5 is_stmt 1 view .LVU687
ARM GAS  C:\Users\IAHERN~1\AppData\Local\Temp\ccP26j2c.s 			page 45


 1948              		.loc 1 550 17 is_stmt 0 view .LVU688
 1949 0034 0734     		adds	r4, r4, #7
 1950              	.LVL212:
 1951              		.loc 1 550 17 view .LVU689
 1952              	.LBE13:
 551:Middlewares/ST/BlueNRG-2/hci/controller/bluenrg1_gatt_aci.c ****   }
 552:Middlewares/ST/BlueNRG-2/hci/controller/bluenrg1_gatt_aci.c ****   BLUENRG_memset(&rq, 0, sizeof(rq));
 1953              		.loc 1 552 3 is_stmt 1 view .LVU690
 1954 0036 0021     		movs	r1, #0
 1955 0038 4291     		str	r1, [sp, #264]
 1956 003a 4391     		str	r1, [sp, #268]
 1957 003c 4491     		str	r1, [sp, #272]
 1958 003e 4591     		str	r1, [sp, #276]
 1959 0040 4691     		str	r1, [sp, #280]
 1960 0042 4791     		str	r1, [sp, #284]
 553:Middlewares/ST/BlueNRG-2/hci/controller/bluenrg1_gatt_aci.c ****   rq.ogf = 0x3f;
 1961              		.loc 1 553 3 view .LVU691
 1962              		.loc 1 553 10 is_stmt 0 view .LVU692
 1963 0044 3F23     		movs	r3, #63
 1964 0046 ADF80831 		strh	r3, [sp, #264]	@ movhi
 554:Middlewares/ST/BlueNRG-2/hci/controller/bluenrg1_gatt_aci.c ****   rq.ocf = 0x10e;
 1965              		.loc 1 554 3 is_stmt 1 view .LVU693
 1966              		.loc 1 554 10 is_stmt 0 view .LVU694
 1967 004a 4FF48773 		mov	r3, #270
 1968 004e ADF80A31 		strh	r3, [sp, #266]	@ movhi
 555:Middlewares/ST/BlueNRG-2/hci/controller/bluenrg1_gatt_aci.c ****   rq.event = 0x0F;
 1969              		.loc 1 555 3 is_stmt 1 view .LVU695
 1970              		.loc 1 555 12 is_stmt 0 view .LVU696
 1971 0052 0F23     		movs	r3, #15
 1972 0054 4393     		str	r3, [sp, #268]
 556:Middlewares/ST/BlueNRG-2/hci/controller/bluenrg1_gatt_aci.c ****   rq.cparam = cmd_buffer;
 1973              		.loc 1 556 3 is_stmt 1 view .LVU697
 1974              		.loc 1 556 13 is_stmt 0 view .LVU698
 1975 0056 01AB     		add	r3, sp, #4
 1976              	.LVL213:
 1977              		.loc 1 556 13 view .LVU699
 1978 0058 4493     		str	r3, [sp, #272]
 557:Middlewares/ST/BlueNRG-2/hci/controller/bluenrg1_gatt_aci.c ****   rq.clen = index_input;
 1979              		.loc 1 557 3 is_stmt 1 view .LVU700
 1980              		.loc 1 557 11 is_stmt 0 view .LVU701
 1981 005a 4594     		str	r4, [sp, #276]
 558:Middlewares/ST/BlueNRG-2/hci/controller/bluenrg1_gatt_aci.c ****   rq.rparam = &status;
 1982              		.loc 1 558 3 is_stmt 1 view .LVU702
 1983              		.loc 1 558 13 is_stmt 0 view .LVU703
 1984 005c 0DF10303 		add	r3, sp, #3
 1985              	.LVL214:
 1986              		.loc 1 558 13 view .LVU704
 1987 0060 4693     		str	r3, [sp, #280]
 559:Middlewares/ST/BlueNRG-2/hci/controller/bluenrg1_gatt_aci.c ****   rq.rlen = 1;
 1988              		.loc 1 559 3 is_stmt 1 view .LVU705
 1989              		.loc 1 559 11 is_stmt 0 view .LVU706
 1990 0062 0123     		movs	r3, #1
 1991 0064 4793     		str	r3, [sp, #284]
 560:Middlewares/ST/BlueNRG-2/hci/controller/bluenrg1_gatt_aci.c ****   if (hci_send_req(&rq, FALSE) < 0)
 1992              		.loc 1 560 3 is_stmt 1 view .LVU707
 1993              		.loc 1 560 7 is_stmt 0 view .LVU708
 1994 0066 42A8     		add	r0, sp, #264
ARM GAS  C:\Users\IAHERN~1\AppData\Local\Temp\ccP26j2c.s 			page 46


 1995 0068 FFF7FEFF 		bl	hci_send_req
 1996              	.LVL215:
 1997              		.loc 1 560 6 discriminator 1 view .LVU709
 1998 006c 0028     		cmp	r0, #0
 1999 006e 05DB     		blt	.L86
 561:Middlewares/ST/BlueNRG-2/hci/controller/bluenrg1_gatt_aci.c ****     return BLE_STATUS_TIMEOUT;
 562:Middlewares/ST/BlueNRG-2/hci/controller/bluenrg1_gatt_aci.c ****   if (status) {
 2000              		.loc 1 562 3 is_stmt 1 view .LVU710
 2001              		.loc 1 562 7 is_stmt 0 view .LVU711
 2002 0070 9DF80300 		ldrb	r0, [sp, #3]	@ zero_extendqisi2
 2003              	.LVL216:
 2004              	.L83:
 563:Middlewares/ST/BlueNRG-2/hci/controller/bluenrg1_gatt_aci.c ****     return status;
 564:Middlewares/ST/BlueNRG-2/hci/controller/bluenrg1_gatt_aci.c ****   }
 565:Middlewares/ST/BlueNRG-2/hci/controller/bluenrg1_gatt_aci.c ****   return BLE_STATUS_SUCCESS;
 566:Middlewares/ST/BlueNRG-2/hci/controller/bluenrg1_gatt_aci.c **** }
 2005              		.loc 1 566 1 view .LVU712
 2006 0074 48B0     		add	sp, sp, #288
 2007              		.cfi_remember_state
 2008              		.cfi_def_cfa_offset 8
 2009              		@ sp needed
 2010 0076 10BD     		pop	{r4, pc}
 2011              	.LVL217:
 2012              	.L85:
 2013              		.cfi_restore_state
 2014              	.LBB14:
 544:Middlewares/ST/BlueNRG-2/hci/controller/bluenrg1_gatt_aci.c ****       case 1: size = 2; break;
 2015              		.loc 1 544 5 view .LVU713
 2016 0078 4720     		movs	r0, #71
 2017              	.LVL218:
 544:Middlewares/ST/BlueNRG-2/hci/controller/bluenrg1_gatt_aci.c ****       case 1: size = 2; break;
 2018              		.loc 1 544 5 view .LVU714
 2019 007a FBE7     		b	.L83
 2020              	.LVL219:
 2021              	.L86:
 544:Middlewares/ST/BlueNRG-2/hci/controller/bluenrg1_gatt_aci.c ****       case 1: size = 2; break;
 2022              		.loc 1 544 5 view .LVU715
 2023              	.LBE14:
 561:Middlewares/ST/BlueNRG-2/hci/controller/bluenrg1_gatt_aci.c ****     return BLE_STATUS_TIMEOUT;
 2024              		.loc 1 561 12 view .LVU716
 2025 007c FF20     		movs	r0, #255
 2026 007e F9E7     		b	.L83
 2027              		.cfi_endproc
 2028              	.LFE150:
 2030              		.section	.text.aci_att_read_by_group_type_req,"ax",%progbits
 2031              		.align	1
 2032              		.global	aci_att_read_by_group_type_req
 2033              		.syntax unified
 2034              		.thumb
 2035              		.thumb_func
 2037              	aci_att_read_by_group_type_req:
 2038              	.LVL220:
 2039              	.LFB151:
 567:Middlewares/ST/BlueNRG-2/hci/controller/bluenrg1_gatt_aci.c **** tBleStatus aci_att_read_by_group_type_req(uint16_t Connection_Handle,
 568:Middlewares/ST/BlueNRG-2/hci/controller/bluenrg1_gatt_aci.c ****                                           uint16_t Start_Handle,
 569:Middlewares/ST/BlueNRG-2/hci/controller/bluenrg1_gatt_aci.c ****                                           uint16_t End_Handle,
 570:Middlewares/ST/BlueNRG-2/hci/controller/bluenrg1_gatt_aci.c ****                                           uint8_t UUID_Type,
ARM GAS  C:\Users\IAHERN~1\AppData\Local\Temp\ccP26j2c.s 			page 47


 571:Middlewares/ST/BlueNRG-2/hci/controller/bluenrg1_gatt_aci.c ****                                           UUID_t *UUID)
 572:Middlewares/ST/BlueNRG-2/hci/controller/bluenrg1_gatt_aci.c **** {
 2040              		.loc 1 572 1 is_stmt 1 view -0
 2041              		.cfi_startproc
 2042              		@ args = 4, pretend = 0, frame = 288
 2043              		@ frame_needed = 0, uses_anonymous_args = 0
 2044              		.loc 1 572 1 is_stmt 0 view .LVU718
 2045 0000 10B5     		push	{r4, lr}
 2046              		.cfi_def_cfa_offset 8
 2047              		.cfi_offset 4, -8
 2048              		.cfi_offset 14, -4
 2049 0002 C8B0     		sub	sp, sp, #288
 2050              		.cfi_def_cfa_offset 296
 573:Middlewares/ST/BlueNRG-2/hci/controller/bluenrg1_gatt_aci.c ****   struct hci_request rq;
 2051              		.loc 1 573 3 is_stmt 1 view .LVU719
 574:Middlewares/ST/BlueNRG-2/hci/controller/bluenrg1_gatt_aci.c ****   uint8_t cmd_buffer[258];
 2052              		.loc 1 574 3 view .LVU720
 575:Middlewares/ST/BlueNRG-2/hci/controller/bluenrg1_gatt_aci.c ****   aci_att_read_by_group_type_req_cp0 *cp0 = (aci_att_read_by_group_type_req_cp0*)(cmd_buffer);
 2053              		.loc 1 575 3 view .LVU721
 2054              	.LVL221:
 576:Middlewares/ST/BlueNRG-2/hci/controller/bluenrg1_gatt_aci.c ****   tBleStatus status = 0;
 2055              		.loc 1 576 3 view .LVU722
 2056              		.loc 1 576 14 is_stmt 0 view .LVU723
 2057 0004 0024     		movs	r4, #0
 2058 0006 8DF80340 		strb	r4, [sp, #3]
 577:Middlewares/ST/BlueNRG-2/hci/controller/bluenrg1_gatt_aci.c ****   uint8_t index_input = 0;
 2059              		.loc 1 577 3 is_stmt 1 view .LVU724
 2060              	.LVL222:
 578:Middlewares/ST/BlueNRG-2/hci/controller/bluenrg1_gatt_aci.c ****   cp0->Connection_Handle = htob(Connection_Handle, 2);
 2061              		.loc 1 578 3 view .LVU725
 2062              		.loc 1 578 26 is_stmt 0 view .LVU726
 2063 000a ADF80400 		strh	r0, [sp, #4]	@ movhi
 579:Middlewares/ST/BlueNRG-2/hci/controller/bluenrg1_gatt_aci.c ****   index_input += 2;
 2064              		.loc 1 579 3 is_stmt 1 view .LVU727
 2065              	.LVL223:
 580:Middlewares/ST/BlueNRG-2/hci/controller/bluenrg1_gatt_aci.c ****   cp0->Start_Handle = htob(Start_Handle, 2);
 2066              		.loc 1 580 3 view .LVU728
 2067              		.loc 1 580 21 is_stmt 0 view .LVU729
 2068 000e ADF80610 		strh	r1, [sp, #6]	@ movhi
 581:Middlewares/ST/BlueNRG-2/hci/controller/bluenrg1_gatt_aci.c ****   index_input += 2;
 2069              		.loc 1 581 3 is_stmt 1 view .LVU730
 2070              	.LVL224:
 582:Middlewares/ST/BlueNRG-2/hci/controller/bluenrg1_gatt_aci.c ****   cp0->End_Handle = htob(End_Handle, 2);
 2071              		.loc 1 582 3 view .LVU731
 2072              		.loc 1 582 19 is_stmt 0 view .LVU732
 2073 0012 ADF80820 		strh	r2, [sp, #8]	@ movhi
 583:Middlewares/ST/BlueNRG-2/hci/controller/bluenrg1_gatt_aci.c ****   index_input += 2;
 2074              		.loc 1 583 3 is_stmt 1 view .LVU733
 2075              	.LVL225:
 584:Middlewares/ST/BlueNRG-2/hci/controller/bluenrg1_gatt_aci.c ****   cp0->UUID_Type = htob(UUID_Type, 1);
 2076              		.loc 1 584 3 view .LVU734
 2077              		.loc 1 584 18 is_stmt 0 view .LVU735
 2078 0016 8DF80A30 		strb	r3, [sp, #10]
 585:Middlewares/ST/BlueNRG-2/hci/controller/bluenrg1_gatt_aci.c ****   index_input += 1;
 2079              		.loc 1 585 3 is_stmt 1 view .LVU736
 2080              	.LVL226:
 2081              	.LBB15:
ARM GAS  C:\Users\IAHERN~1\AppData\Local\Temp\ccP26j2c.s 			page 48


 586:Middlewares/ST/BlueNRG-2/hci/controller/bluenrg1_gatt_aci.c ****   /* var_len_data input */
 587:Middlewares/ST/BlueNRG-2/hci/controller/bluenrg1_gatt_aci.c ****   {
 588:Middlewares/ST/BlueNRG-2/hci/controller/bluenrg1_gatt_aci.c ****     uint8_t size;
 2082              		.loc 1 588 5 view .LVU737
 589:Middlewares/ST/BlueNRG-2/hci/controller/bluenrg1_gatt_aci.c ****     switch (UUID_Type) {
 2083              		.loc 1 589 5 view .LVU738
 2084 001a 012B     		cmp	r3, #1
 2085 001c 03D0     		beq	.L91
 2086 001e 022B     		cmp	r3, #2
 2087 0020 2AD1     		bne	.L92
 590:Middlewares/ST/BlueNRG-2/hci/controller/bluenrg1_gatt_aci.c ****       case 1: size = 2; break;
 591:Middlewares/ST/BlueNRG-2/hci/controller/bluenrg1_gatt_aci.c ****       case 2: size = 16; break;
 2088              		.loc 1 591 20 is_stmt 0 view .LVU739
 2089 0022 1024     		movs	r4, #16
 2090 0024 00E0     		b	.L89
 2091              	.L91:
 589:Middlewares/ST/BlueNRG-2/hci/controller/bluenrg1_gatt_aci.c ****     switch (UUID_Type) {
 2092              		.loc 1 589 5 view .LVU740
 2093 0026 0224     		movs	r4, #2
 2094              	.L89:
 2095              	.LVL227:
 592:Middlewares/ST/BlueNRG-2/hci/controller/bluenrg1_gatt_aci.c ****       default: return BLE_STATUS_ERROR;
 593:Middlewares/ST/BlueNRG-2/hci/controller/bluenrg1_gatt_aci.c ****     }
 594:Middlewares/ST/BlueNRG-2/hci/controller/bluenrg1_gatt_aci.c ****     BLUENRG_memcpy((void *) &cp0->UUID, (const void *) UUID, size);
 2096              		.loc 1 594 5 is_stmt 1 view .LVU741
 2097 0028 2246     		mov	r2, r4
 2098              	.LVL228:
 2099              		.loc 1 594 5 is_stmt 0 view .LVU742
 2100 002a 4A99     		ldr	r1, [sp, #296]
 2101              	.LVL229:
 2102              		.loc 1 594 5 view .LVU743
 2103 002c 0DF10B00 		add	r0, sp, #11
 2104              	.LVL230:
 2105              		.loc 1 594 5 view .LVU744
 2106 0030 FFF7FEFF 		bl	memcpy
 2107              	.LVL231:
 595:Middlewares/ST/BlueNRG-2/hci/controller/bluenrg1_gatt_aci.c ****     index_input += size;
 2108              		.loc 1 595 5 is_stmt 1 view .LVU745
 2109              		.loc 1 595 17 is_stmt 0 view .LVU746
 2110 0034 0734     		adds	r4, r4, #7
 2111              	.LVL232:
 2112              		.loc 1 595 17 view .LVU747
 2113              	.LBE15:
 596:Middlewares/ST/BlueNRG-2/hci/controller/bluenrg1_gatt_aci.c ****   }
 597:Middlewares/ST/BlueNRG-2/hci/controller/bluenrg1_gatt_aci.c ****   BLUENRG_memset(&rq, 0, sizeof(rq));
 2114              		.loc 1 597 3 is_stmt 1 view .LVU748
 2115 0036 0021     		movs	r1, #0
 2116 0038 4291     		str	r1, [sp, #264]
 2117 003a 4391     		str	r1, [sp, #268]
 2118 003c 4491     		str	r1, [sp, #272]
 2119 003e 4591     		str	r1, [sp, #276]
 2120 0040 4691     		str	r1, [sp, #280]
 2121 0042 4791     		str	r1, [sp, #284]
 598:Middlewares/ST/BlueNRG-2/hci/controller/bluenrg1_gatt_aci.c ****   rq.ogf = 0x3f;
 2122              		.loc 1 598 3 view .LVU749
 2123              		.loc 1 598 10 is_stmt 0 view .LVU750
 2124 0044 3F23     		movs	r3, #63
ARM GAS  C:\Users\IAHERN~1\AppData\Local\Temp\ccP26j2c.s 			page 49


 2125 0046 ADF80831 		strh	r3, [sp, #264]	@ movhi
 599:Middlewares/ST/BlueNRG-2/hci/controller/bluenrg1_gatt_aci.c ****   rq.ocf = 0x10f;
 2126              		.loc 1 599 3 is_stmt 1 view .LVU751
 2127              		.loc 1 599 10 is_stmt 0 view .LVU752
 2128 004a 40F20F13 		movw	r3, #271
 2129 004e ADF80A31 		strh	r3, [sp, #266]	@ movhi
 600:Middlewares/ST/BlueNRG-2/hci/controller/bluenrg1_gatt_aci.c ****   rq.event = 0x0F;
 2130              		.loc 1 600 3 is_stmt 1 view .LVU753
 2131              		.loc 1 600 12 is_stmt 0 view .LVU754
 2132 0052 0F23     		movs	r3, #15
 2133 0054 4393     		str	r3, [sp, #268]
 601:Middlewares/ST/BlueNRG-2/hci/controller/bluenrg1_gatt_aci.c ****   rq.cparam = cmd_buffer;
 2134              		.loc 1 601 3 is_stmt 1 view .LVU755
 2135              		.loc 1 601 13 is_stmt 0 view .LVU756
 2136 0056 01AB     		add	r3, sp, #4
 2137              	.LVL233:
 2138              		.loc 1 601 13 view .LVU757
 2139 0058 4493     		str	r3, [sp, #272]
 602:Middlewares/ST/BlueNRG-2/hci/controller/bluenrg1_gatt_aci.c ****   rq.clen = index_input;
 2140              		.loc 1 602 3 is_stmt 1 view .LVU758
 2141              		.loc 1 602 11 is_stmt 0 view .LVU759
 2142 005a 4594     		str	r4, [sp, #276]
 603:Middlewares/ST/BlueNRG-2/hci/controller/bluenrg1_gatt_aci.c ****   rq.rparam = &status;
 2143              		.loc 1 603 3 is_stmt 1 view .LVU760
 2144              		.loc 1 603 13 is_stmt 0 view .LVU761
 2145 005c 0DF10303 		add	r3, sp, #3
 2146              	.LVL234:
 2147              		.loc 1 603 13 view .LVU762
 2148 0060 4693     		str	r3, [sp, #280]
 604:Middlewares/ST/BlueNRG-2/hci/controller/bluenrg1_gatt_aci.c ****   rq.rlen = 1;
 2149              		.loc 1 604 3 is_stmt 1 view .LVU763
 2150              		.loc 1 604 11 is_stmt 0 view .LVU764
 2151 0062 0123     		movs	r3, #1
 2152 0064 4793     		str	r3, [sp, #284]
 605:Middlewares/ST/BlueNRG-2/hci/controller/bluenrg1_gatt_aci.c ****   if (hci_send_req(&rq, FALSE) < 0)
 2153              		.loc 1 605 3 is_stmt 1 view .LVU765
 2154              		.loc 1 605 7 is_stmt 0 view .LVU766
 2155 0066 42A8     		add	r0, sp, #264
 2156 0068 FFF7FEFF 		bl	hci_send_req
 2157              	.LVL235:
 2158              		.loc 1 605 6 discriminator 1 view .LVU767
 2159 006c 0028     		cmp	r0, #0
 2160 006e 05DB     		blt	.L93
 606:Middlewares/ST/BlueNRG-2/hci/controller/bluenrg1_gatt_aci.c ****     return BLE_STATUS_TIMEOUT;
 607:Middlewares/ST/BlueNRG-2/hci/controller/bluenrg1_gatt_aci.c ****   if (status) {
 2161              		.loc 1 607 3 is_stmt 1 view .LVU768
 2162              		.loc 1 607 7 is_stmt 0 view .LVU769
 2163 0070 9DF80300 		ldrb	r0, [sp, #3]	@ zero_extendqisi2
 2164              	.LVL236:
 2165              	.L90:
 608:Middlewares/ST/BlueNRG-2/hci/controller/bluenrg1_gatt_aci.c ****     return status;
 609:Middlewares/ST/BlueNRG-2/hci/controller/bluenrg1_gatt_aci.c ****   }
 610:Middlewares/ST/BlueNRG-2/hci/controller/bluenrg1_gatt_aci.c ****   return BLE_STATUS_SUCCESS;
 611:Middlewares/ST/BlueNRG-2/hci/controller/bluenrg1_gatt_aci.c **** }
 2166              		.loc 1 611 1 view .LVU770
 2167 0074 48B0     		add	sp, sp, #288
 2168              		.cfi_remember_state
ARM GAS  C:\Users\IAHERN~1\AppData\Local\Temp\ccP26j2c.s 			page 50


 2169              		.cfi_def_cfa_offset 8
 2170              		@ sp needed
 2171 0076 10BD     		pop	{r4, pc}
 2172              	.LVL237:
 2173              	.L92:
 2174              		.cfi_restore_state
 2175              	.LBB16:
 589:Middlewares/ST/BlueNRG-2/hci/controller/bluenrg1_gatt_aci.c ****       case 1: size = 2; break;
 2176              		.loc 1 589 5 view .LVU771
 2177 0078 4720     		movs	r0, #71
 2178              	.LVL238:
 589:Middlewares/ST/BlueNRG-2/hci/controller/bluenrg1_gatt_aci.c ****       case 1: size = 2; break;
 2179              		.loc 1 589 5 view .LVU772
 2180 007a FBE7     		b	.L90
 2181              	.LVL239:
 2182              	.L93:
 589:Middlewares/ST/BlueNRG-2/hci/controller/bluenrg1_gatt_aci.c ****       case 1: size = 2; break;
 2183              		.loc 1 589 5 view .LVU773
 2184              	.LBE16:
 606:Middlewares/ST/BlueNRG-2/hci/controller/bluenrg1_gatt_aci.c ****     return BLE_STATUS_TIMEOUT;
 2185              		.loc 1 606 12 view .LVU774
 2186 007c FF20     		movs	r0, #255
 2187 007e F9E7     		b	.L90
 2188              		.cfi_endproc
 2189              	.LFE151:
 2191              		.section	.text.aci_att_prepare_write_req,"ax",%progbits
 2192              		.align	1
 2193              		.global	aci_att_prepare_write_req
 2194              		.syntax unified
 2195              		.thumb
 2196              		.thumb_func
 2198              	aci_att_prepare_write_req:
 2199              	.LVL240:
 2200              	.LFB152:
 612:Middlewares/ST/BlueNRG-2/hci/controller/bluenrg1_gatt_aci.c **** tBleStatus aci_att_prepare_write_req(uint16_t Connection_Handle,
 613:Middlewares/ST/BlueNRG-2/hci/controller/bluenrg1_gatt_aci.c ****                                      uint16_t Attr_Handle,
 614:Middlewares/ST/BlueNRG-2/hci/controller/bluenrg1_gatt_aci.c ****                                      uint16_t Val_Offset,
 615:Middlewares/ST/BlueNRG-2/hci/controller/bluenrg1_gatt_aci.c ****                                      uint8_t Attribute_Val_Length,
 616:Middlewares/ST/BlueNRG-2/hci/controller/bluenrg1_gatt_aci.c ****                                      uint8_t Attribute_Val[])
 617:Middlewares/ST/BlueNRG-2/hci/controller/bluenrg1_gatt_aci.c **** {
 2201              		.loc 1 617 1 is_stmt 1 view -0
 2202              		.cfi_startproc
 2203              		@ args = 4, pretend = 0, frame = 288
 2204              		@ frame_needed = 0, uses_anonymous_args = 0
 2205              		.loc 1 617 1 is_stmt 0 view .LVU776
 2206 0000 F0B5     		push	{r4, r5, r6, r7, lr}
 2207              		.cfi_def_cfa_offset 20
 2208              		.cfi_offset 4, -20
 2209              		.cfi_offset 5, -16
 2210              		.cfi_offset 6, -12
 2211              		.cfi_offset 7, -8
 2212              		.cfi_offset 14, -4
 2213 0002 C9B0     		sub	sp, sp, #292
 2214              		.cfi_def_cfa_offset 312
 2215 0004 1C46     		mov	r4, r3
 618:Middlewares/ST/BlueNRG-2/hci/controller/bluenrg1_gatt_aci.c ****   struct hci_request rq;
 2216              		.loc 1 618 3 is_stmt 1 view .LVU777
ARM GAS  C:\Users\IAHERN~1\AppData\Local\Temp\ccP26j2c.s 			page 51


 619:Middlewares/ST/BlueNRG-2/hci/controller/bluenrg1_gatt_aci.c ****   uint8_t cmd_buffer[258];
 2217              		.loc 1 619 3 view .LVU778
 620:Middlewares/ST/BlueNRG-2/hci/controller/bluenrg1_gatt_aci.c ****   aci_att_prepare_write_req_cp0 *cp0 = (aci_att_prepare_write_req_cp0*)(cmd_buffer);
 2218              		.loc 1 620 3 view .LVU779
 2219              	.LVL241:
 621:Middlewares/ST/BlueNRG-2/hci/controller/bluenrg1_gatt_aci.c ****   tBleStatus status = 0;
 2220              		.loc 1 621 3 view .LVU780
 2221              		.loc 1 621 14 is_stmt 0 view .LVU781
 2222 0006 0DF10307 		add	r7, sp, #3
 2223 000a 0025     		movs	r5, #0
 2224 000c 8DF80350 		strb	r5, [sp, #3]
 622:Middlewares/ST/BlueNRG-2/hci/controller/bluenrg1_gatt_aci.c ****   uint8_t index_input = 0;
 2225              		.loc 1 622 3 is_stmt 1 view .LVU782
 2226              	.LVL242:
 623:Middlewares/ST/BlueNRG-2/hci/controller/bluenrg1_gatt_aci.c ****   cp0->Connection_Handle = htob(Connection_Handle, 2);
 2227              		.loc 1 623 3 view .LVU783
 2228              		.loc 1 623 26 is_stmt 0 view .LVU784
 2229 0010 01AE     		add	r6, sp, #4
 2230              	.LVL243:
 2231              		.loc 1 623 26 view .LVU785
 2232 0012 ADF80400 		strh	r0, [sp, #4]	@ movhi
 624:Middlewares/ST/BlueNRG-2/hci/controller/bluenrg1_gatt_aci.c ****   index_input += 2;
 2233              		.loc 1 624 3 is_stmt 1 view .LVU786
 2234              	.LVL244:
 625:Middlewares/ST/BlueNRG-2/hci/controller/bluenrg1_gatt_aci.c ****   cp0->Attr_Handle = htob(Attr_Handle, 2);
 2235              		.loc 1 625 3 view .LVU787
 2236              		.loc 1 625 20 is_stmt 0 view .LVU788
 2237 0016 ADF80610 		strh	r1, [sp, #6]	@ movhi
 626:Middlewares/ST/BlueNRG-2/hci/controller/bluenrg1_gatt_aci.c ****   index_input += 2;
 2238              		.loc 1 626 3 is_stmt 1 view .LVU789
 2239              	.LVL245:
 627:Middlewares/ST/BlueNRG-2/hci/controller/bluenrg1_gatt_aci.c ****   cp0->Val_Offset = htob(Val_Offset, 2);
 2240              		.loc 1 627 3 view .LVU790
 2241              		.loc 1 627 19 is_stmt 0 view .LVU791
 2242 001a ADF80820 		strh	r2, [sp, #8]	@ movhi
 628:Middlewares/ST/BlueNRG-2/hci/controller/bluenrg1_gatt_aci.c ****   index_input += 2;
 2243              		.loc 1 628 3 is_stmt 1 view .LVU792
 2244              	.LVL246:
 629:Middlewares/ST/BlueNRG-2/hci/controller/bluenrg1_gatt_aci.c ****   cp0->Attribute_Val_Length = htob(Attribute_Val_Length, 1);
 2245              		.loc 1 629 3 view .LVU793
 2246              		.loc 1 629 29 is_stmt 0 view .LVU794
 2247 001e 8DF80A30 		strb	r3, [sp, #10]
 630:Middlewares/ST/BlueNRG-2/hci/controller/bluenrg1_gatt_aci.c ****   index_input += 1;
 2248              		.loc 1 630 3 is_stmt 1 view .LVU795
 2249              	.LVL247:
 631:Middlewares/ST/BlueNRG-2/hci/controller/bluenrg1_gatt_aci.c ****   /* var_len_data input */
 632:Middlewares/ST/BlueNRG-2/hci/controller/bluenrg1_gatt_aci.c ****   {
 633:Middlewares/ST/BlueNRG-2/hci/controller/bluenrg1_gatt_aci.c ****     BLUENRG_memcpy((void *) &cp0->Attribute_Val, (const void *) Attribute_Val, Attribute_Val_Length
 2250              		.loc 1 633 5 view .LVU796
 2251 0022 1A46     		mov	r2, r3
 2252              	.LVL248:
 2253              		.loc 1 633 5 is_stmt 0 view .LVU797
 2254 0024 4E99     		ldr	r1, [sp, #312]
 2255              	.LVL249:
 2256              		.loc 1 633 5 view .LVU798
 2257 0026 0DF10B00 		add	r0, sp, #11
 2258              	.LVL250:
ARM GAS  C:\Users\IAHERN~1\AppData\Local\Temp\ccP26j2c.s 			page 52


 2259              		.loc 1 633 5 view .LVU799
 2260 002a FFF7FEFF 		bl	memcpy
 2261              	.LVL251:
 634:Middlewares/ST/BlueNRG-2/hci/controller/bluenrg1_gatt_aci.c ****     index_input += Attribute_Val_Length*sizeof(uint8_t);
 2262              		.loc 1 634 5 is_stmt 1 view .LVU800
 2263              		.loc 1 634 17 is_stmt 0 view .LVU801
 2264 002e 0734     		adds	r4, r4, #7
 2265              	.LVL252:
 2266              		.loc 1 634 17 view .LVU802
 2267 0030 E4B2     		uxtb	r4, r4
 2268              	.LVL253:
 635:Middlewares/ST/BlueNRG-2/hci/controller/bluenrg1_gatt_aci.c ****   }
 636:Middlewares/ST/BlueNRG-2/hci/controller/bluenrg1_gatt_aci.c ****   BLUENRG_memset(&rq, 0, sizeof(rq));
 2269              		.loc 1 636 3 is_stmt 1 view .LVU803
 2270 0032 4295     		str	r5, [sp, #264]
 2271 0034 4395     		str	r5, [sp, #268]
 2272 0036 4495     		str	r5, [sp, #272]
 2273 0038 4595     		str	r5, [sp, #276]
 2274 003a 4695     		str	r5, [sp, #280]
 2275 003c 4795     		str	r5, [sp, #284]
 637:Middlewares/ST/BlueNRG-2/hci/controller/bluenrg1_gatt_aci.c ****   rq.ogf = 0x3f;
 2276              		.loc 1 637 3 view .LVU804
 2277              		.loc 1 637 10 is_stmt 0 view .LVU805
 2278 003e 3F23     		movs	r3, #63
 2279 0040 ADF80831 		strh	r3, [sp, #264]	@ movhi
 638:Middlewares/ST/BlueNRG-2/hci/controller/bluenrg1_gatt_aci.c ****   rq.ocf = 0x110;
 2280              		.loc 1 638 3 is_stmt 1 view .LVU806
 2281              		.loc 1 638 10 is_stmt 0 view .LVU807
 2282 0044 4FF48873 		mov	r3, #272
 2283 0048 ADF80A31 		strh	r3, [sp, #266]	@ movhi
 639:Middlewares/ST/BlueNRG-2/hci/controller/bluenrg1_gatt_aci.c ****   rq.event = 0x0F;
 2284              		.loc 1 639 3 is_stmt 1 view .LVU808
 2285              		.loc 1 639 12 is_stmt 0 view .LVU809
 2286 004c 0F23     		movs	r3, #15
 2287 004e 4393     		str	r3, [sp, #268]
 640:Middlewares/ST/BlueNRG-2/hci/controller/bluenrg1_gatt_aci.c ****   rq.cparam = cmd_buffer;
 2288              		.loc 1 640 3 is_stmt 1 view .LVU810
 2289              		.loc 1 640 13 is_stmt 0 view .LVU811
 2290 0050 4496     		str	r6, [sp, #272]
 641:Middlewares/ST/BlueNRG-2/hci/controller/bluenrg1_gatt_aci.c ****   rq.clen = index_input;
 2291              		.loc 1 641 3 is_stmt 1 view .LVU812
 2292              		.loc 1 641 11 is_stmt 0 view .LVU813
 2293 0052 4594     		str	r4, [sp, #276]
 642:Middlewares/ST/BlueNRG-2/hci/controller/bluenrg1_gatt_aci.c ****   rq.rparam = &status;
 2294              		.loc 1 642 3 is_stmt 1 view .LVU814
 2295              		.loc 1 642 13 is_stmt 0 view .LVU815
 2296 0054 4697     		str	r7, [sp, #280]
 643:Middlewares/ST/BlueNRG-2/hci/controller/bluenrg1_gatt_aci.c ****   rq.rlen = 1;
 2297              		.loc 1 643 3 is_stmt 1 view .LVU816
 2298              		.loc 1 643 11 is_stmt 0 view .LVU817
 2299 0056 0123     		movs	r3, #1
 2300 0058 4793     		str	r3, [sp, #284]
 644:Middlewares/ST/BlueNRG-2/hci/controller/bluenrg1_gatt_aci.c ****   if (hci_send_req(&rq, FALSE) < 0)
 2301              		.loc 1 644 3 is_stmt 1 view .LVU818
 2302              		.loc 1 644 7 is_stmt 0 view .LVU819
 2303 005a 2946     		mov	r1, r5
 2304 005c 42A8     		add	r0, sp, #264
ARM GAS  C:\Users\IAHERN~1\AppData\Local\Temp\ccP26j2c.s 			page 53


 2305 005e FFF7FEFF 		bl	hci_send_req
 2306              	.LVL254:
 2307              		.loc 1 644 6 discriminator 1 view .LVU820
 2308 0062 A842     		cmp	r0, r5
 2309 0064 03DB     		blt	.L97
 645:Middlewares/ST/BlueNRG-2/hci/controller/bluenrg1_gatt_aci.c ****     return BLE_STATUS_TIMEOUT;
 646:Middlewares/ST/BlueNRG-2/hci/controller/bluenrg1_gatt_aci.c ****   if (status) {
 2310              		.loc 1 646 3 is_stmt 1 view .LVU821
 2311              		.loc 1 646 7 is_stmt 0 view .LVU822
 2312 0066 9DF80300 		ldrb	r0, [sp, #3]	@ zero_extendqisi2
 2313              	.L96:
 647:Middlewares/ST/BlueNRG-2/hci/controller/bluenrg1_gatt_aci.c ****     return status;
 648:Middlewares/ST/BlueNRG-2/hci/controller/bluenrg1_gatt_aci.c ****   }
 649:Middlewares/ST/BlueNRG-2/hci/controller/bluenrg1_gatt_aci.c ****   return BLE_STATUS_SUCCESS;
 650:Middlewares/ST/BlueNRG-2/hci/controller/bluenrg1_gatt_aci.c **** }
 2314              		.loc 1 650 1 view .LVU823
 2315 006a 49B0     		add	sp, sp, #292
 2316              		.cfi_remember_state
 2317              		.cfi_def_cfa_offset 20
 2318              		@ sp needed
 2319 006c F0BD     		pop	{r4, r5, r6, r7, pc}
 2320              	.LVL255:
 2321              	.L97:
 2322              		.cfi_restore_state
 645:Middlewares/ST/BlueNRG-2/hci/controller/bluenrg1_gatt_aci.c ****     return BLE_STATUS_TIMEOUT;
 2323              		.loc 1 645 12 view .LVU824
 2324 006e FF20     		movs	r0, #255
 2325 0070 FBE7     		b	.L96
 2326              		.cfi_endproc
 2327              	.LFE152:
 2329              		.section	.text.aci_att_execute_write_req,"ax",%progbits
 2330              		.align	1
 2331              		.global	aci_att_execute_write_req
 2332              		.syntax unified
 2333              		.thumb
 2334              		.thumb_func
 2336              	aci_att_execute_write_req:
 2337              	.LVL256:
 2338              	.LFB153:
 651:Middlewares/ST/BlueNRG-2/hci/controller/bluenrg1_gatt_aci.c **** tBleStatus aci_att_execute_write_req(uint16_t Connection_Handle,
 652:Middlewares/ST/BlueNRG-2/hci/controller/bluenrg1_gatt_aci.c ****                                      uint8_t Execute)
 653:Middlewares/ST/BlueNRG-2/hci/controller/bluenrg1_gatt_aci.c **** {
 2339              		.loc 1 653 1 is_stmt 1 view -0
 2340              		.cfi_startproc
 2341              		@ args = 0, pretend = 0, frame = 288
 2342              		@ frame_needed = 0, uses_anonymous_args = 0
 2343              		.loc 1 653 1 is_stmt 0 view .LVU826
 2344 0000 10B5     		push	{r4, lr}
 2345              		.cfi_def_cfa_offset 8
 2346              		.cfi_offset 4, -8
 2347              		.cfi_offset 14, -4
 2348 0002 C8B0     		sub	sp, sp, #288
 2349              		.cfi_def_cfa_offset 296
 654:Middlewares/ST/BlueNRG-2/hci/controller/bluenrg1_gatt_aci.c ****   struct hci_request rq;
 2350              		.loc 1 654 3 is_stmt 1 view .LVU827
 655:Middlewares/ST/BlueNRG-2/hci/controller/bluenrg1_gatt_aci.c ****   uint8_t cmd_buffer[258];
 2351              		.loc 1 655 3 view .LVU828
ARM GAS  C:\Users\IAHERN~1\AppData\Local\Temp\ccP26j2c.s 			page 54


 656:Middlewares/ST/BlueNRG-2/hci/controller/bluenrg1_gatt_aci.c ****   aci_att_execute_write_req_cp0 *cp0 = (aci_att_execute_write_req_cp0*)(cmd_buffer);
 2352              		.loc 1 656 3 view .LVU829
 2353              	.LVL257:
 657:Middlewares/ST/BlueNRG-2/hci/controller/bluenrg1_gatt_aci.c ****   tBleStatus status = 0;
 2354              		.loc 1 657 3 view .LVU830
 2355              		.loc 1 657 14 is_stmt 0 view .LVU831
 2356 0004 0DF10304 		add	r4, sp, #3
 2357 0008 0023     		movs	r3, #0
 2358 000a 8DF80330 		strb	r3, [sp, #3]
 658:Middlewares/ST/BlueNRG-2/hci/controller/bluenrg1_gatt_aci.c ****   uint8_t index_input = 0;
 2359              		.loc 1 658 3 is_stmt 1 view .LVU832
 2360              	.LVL258:
 659:Middlewares/ST/BlueNRG-2/hci/controller/bluenrg1_gatt_aci.c ****   cp0->Connection_Handle = htob(Connection_Handle, 2);
 2361              		.loc 1 659 3 view .LVU833
 2362              		.loc 1 659 26 is_stmt 0 view .LVU834
 2363 000e 01AA     		add	r2, sp, #4
 2364              	.LVL259:
 2365              		.loc 1 659 26 view .LVU835
 2366 0010 ADF80400 		strh	r0, [sp, #4]	@ movhi
 660:Middlewares/ST/BlueNRG-2/hci/controller/bluenrg1_gatt_aci.c ****   index_input += 2;
 2367              		.loc 1 660 3 is_stmt 1 view .LVU836
 2368              	.LVL260:
 661:Middlewares/ST/BlueNRG-2/hci/controller/bluenrg1_gatt_aci.c ****   cp0->Execute = htob(Execute, 1);
 2369              		.loc 1 661 3 view .LVU837
 2370              		.loc 1 661 16 is_stmt 0 view .LVU838
 2371 0014 8DF80610 		strb	r1, [sp, #6]
 662:Middlewares/ST/BlueNRG-2/hci/controller/bluenrg1_gatt_aci.c ****   index_input += 1;
 2372              		.loc 1 662 3 is_stmt 1 view .LVU839
 2373              	.LVL261:
 663:Middlewares/ST/BlueNRG-2/hci/controller/bluenrg1_gatt_aci.c ****   BLUENRG_memset(&rq, 0, sizeof(rq));
 2374              		.loc 1 663 3 view .LVU840
 2375 0018 4293     		str	r3, [sp, #264]
 2376 001a 4393     		str	r3, [sp, #268]
 2377 001c 4493     		str	r3, [sp, #272]
 2378 001e 4593     		str	r3, [sp, #276]
 2379 0020 4693     		str	r3, [sp, #280]
 2380 0022 4793     		str	r3, [sp, #284]
 664:Middlewares/ST/BlueNRG-2/hci/controller/bluenrg1_gatt_aci.c ****   rq.ogf = 0x3f;
 2381              		.loc 1 664 3 view .LVU841
 2382              		.loc 1 664 10 is_stmt 0 view .LVU842
 2383 0024 3F21     		movs	r1, #63
 2384              	.LVL262:
 2385              		.loc 1 664 10 view .LVU843
 2386 0026 ADF80811 		strh	r1, [sp, #264]	@ movhi
 665:Middlewares/ST/BlueNRG-2/hci/controller/bluenrg1_gatt_aci.c ****   rq.ocf = 0x111;
 2387              		.loc 1 665 3 is_stmt 1 view .LVU844
 2388              		.loc 1 665 10 is_stmt 0 view .LVU845
 2389 002a 40F21111 		movw	r1, #273
 2390 002e ADF80A11 		strh	r1, [sp, #266]	@ movhi
 666:Middlewares/ST/BlueNRG-2/hci/controller/bluenrg1_gatt_aci.c ****   rq.event = 0x0F;
 2391              		.loc 1 666 3 is_stmt 1 view .LVU846
 2392              		.loc 1 666 12 is_stmt 0 view .LVU847
 2393 0032 0F21     		movs	r1, #15
 2394 0034 4391     		str	r1, [sp, #268]
 667:Middlewares/ST/BlueNRG-2/hci/controller/bluenrg1_gatt_aci.c ****   rq.cparam = cmd_buffer;
 2395              		.loc 1 667 3 is_stmt 1 view .LVU848
 2396              		.loc 1 667 13 is_stmt 0 view .LVU849
ARM GAS  C:\Users\IAHERN~1\AppData\Local\Temp\ccP26j2c.s 			page 55


 2397 0036 4492     		str	r2, [sp, #272]
 668:Middlewares/ST/BlueNRG-2/hci/controller/bluenrg1_gatt_aci.c ****   rq.clen = index_input;
 2398              		.loc 1 668 3 is_stmt 1 view .LVU850
 2399              		.loc 1 668 11 is_stmt 0 view .LVU851
 2400 0038 0322     		movs	r2, #3
 2401              	.LVL263:
 2402              		.loc 1 668 11 view .LVU852
 2403 003a 4592     		str	r2, [sp, #276]
 669:Middlewares/ST/BlueNRG-2/hci/controller/bluenrg1_gatt_aci.c ****   rq.rparam = &status;
 2404              		.loc 1 669 3 is_stmt 1 view .LVU853
 2405              		.loc 1 669 13 is_stmt 0 view .LVU854
 2406 003c 4694     		str	r4, [sp, #280]
 670:Middlewares/ST/BlueNRG-2/hci/controller/bluenrg1_gatt_aci.c ****   rq.rlen = 1;
 2407              		.loc 1 670 3 is_stmt 1 view .LVU855
 2408              		.loc 1 670 11 is_stmt 0 view .LVU856
 2409 003e 0122     		movs	r2, #1
 2410 0040 4792     		str	r2, [sp, #284]
 671:Middlewares/ST/BlueNRG-2/hci/controller/bluenrg1_gatt_aci.c ****   if (hci_send_req(&rq, FALSE) < 0)
 2411              		.loc 1 671 3 is_stmt 1 view .LVU857
 2412              		.loc 1 671 7 is_stmt 0 view .LVU858
 2413 0042 1946     		mov	r1, r3
 2414 0044 42A8     		add	r0, sp, #264
 2415              	.LVL264:
 2416              		.loc 1 671 7 view .LVU859
 2417 0046 FFF7FEFF 		bl	hci_send_req
 2418              	.LVL265:
 2419              		.loc 1 671 6 discriminator 1 view .LVU860
 2420 004a 0028     		cmp	r0, #0
 2421 004c 03DB     		blt	.L101
 672:Middlewares/ST/BlueNRG-2/hci/controller/bluenrg1_gatt_aci.c ****     return BLE_STATUS_TIMEOUT;
 673:Middlewares/ST/BlueNRG-2/hci/controller/bluenrg1_gatt_aci.c ****   if (status) {
 2422              		.loc 1 673 3 is_stmt 1 view .LVU861
 2423              		.loc 1 673 7 is_stmt 0 view .LVU862
 2424 004e 9DF80300 		ldrb	r0, [sp, #3]	@ zero_extendqisi2
 2425              	.L100:
 674:Middlewares/ST/BlueNRG-2/hci/controller/bluenrg1_gatt_aci.c ****     return status;
 675:Middlewares/ST/BlueNRG-2/hci/controller/bluenrg1_gatt_aci.c ****   }
 676:Middlewares/ST/BlueNRG-2/hci/controller/bluenrg1_gatt_aci.c ****   return BLE_STATUS_SUCCESS;
 677:Middlewares/ST/BlueNRG-2/hci/controller/bluenrg1_gatt_aci.c **** }
 2426              		.loc 1 677 1 view .LVU863
 2427 0052 48B0     		add	sp, sp, #288
 2428              		.cfi_remember_state
 2429              		.cfi_def_cfa_offset 8
 2430              		@ sp needed
 2431 0054 10BD     		pop	{r4, pc}
 2432              	.LVL266:
 2433              	.L101:
 2434              		.cfi_restore_state
 672:Middlewares/ST/BlueNRG-2/hci/controller/bluenrg1_gatt_aci.c ****     return BLE_STATUS_TIMEOUT;
 2435              		.loc 1 672 12 view .LVU864
 2436 0056 FF20     		movs	r0, #255
 2437 0058 FBE7     		b	.L100
 2438              		.cfi_endproc
 2439              	.LFE153:
 2441              		.section	.text.aci_gatt_disc_all_primary_services,"ax",%progbits
 2442              		.align	1
 2443              		.global	aci_gatt_disc_all_primary_services
ARM GAS  C:\Users\IAHERN~1\AppData\Local\Temp\ccP26j2c.s 			page 56


 2444              		.syntax unified
 2445              		.thumb
 2446              		.thumb_func
 2448              	aci_gatt_disc_all_primary_services:
 2449              	.LVL267:
 2450              	.LFB154:
 678:Middlewares/ST/BlueNRG-2/hci/controller/bluenrg1_gatt_aci.c **** tBleStatus aci_gatt_disc_all_primary_services(uint16_t Connection_Handle)
 679:Middlewares/ST/BlueNRG-2/hci/controller/bluenrg1_gatt_aci.c **** {
 2451              		.loc 1 679 1 is_stmt 1 view -0
 2452              		.cfi_startproc
 2453              		@ args = 0, pretend = 0, frame = 288
 2454              		@ frame_needed = 0, uses_anonymous_args = 0
 2455              		.loc 1 679 1 is_stmt 0 view .LVU866
 2456 0000 00B5     		push	{lr}
 2457              		.cfi_def_cfa_offset 4
 2458              		.cfi_offset 14, -4
 2459 0002 C9B0     		sub	sp, sp, #292
 2460              		.cfi_def_cfa_offset 296
 680:Middlewares/ST/BlueNRG-2/hci/controller/bluenrg1_gatt_aci.c ****   struct hci_request rq;
 2461              		.loc 1 680 3 is_stmt 1 view .LVU867
 681:Middlewares/ST/BlueNRG-2/hci/controller/bluenrg1_gatt_aci.c ****   uint8_t cmd_buffer[258];
 2462              		.loc 1 681 3 view .LVU868
 682:Middlewares/ST/BlueNRG-2/hci/controller/bluenrg1_gatt_aci.c ****   aci_gatt_disc_all_primary_services_cp0 *cp0 = (aci_gatt_disc_all_primary_services_cp0*)(cmd_buffe
 2463              		.loc 1 682 3 view .LVU869
 2464              	.LVL268:
 683:Middlewares/ST/BlueNRG-2/hci/controller/bluenrg1_gatt_aci.c ****   tBleStatus status = 0;
 2465              		.loc 1 683 3 view .LVU870
 2466              		.loc 1 683 14 is_stmt 0 view .LVU871
 2467 0004 0DF10303 		add	r3, sp, #3
 2468 0008 0021     		movs	r1, #0
 2469 000a 8DF80310 		strb	r1, [sp, #3]
 684:Middlewares/ST/BlueNRG-2/hci/controller/bluenrg1_gatt_aci.c ****   uint8_t index_input = 0;
 2470              		.loc 1 684 3 is_stmt 1 view .LVU872
 2471              	.LVL269:
 685:Middlewares/ST/BlueNRG-2/hci/controller/bluenrg1_gatt_aci.c ****   cp0->Connection_Handle = htob(Connection_Handle, 2);
 2472              		.loc 1 685 3 view .LVU873
 2473              		.loc 1 685 26 is_stmt 0 view .LVU874
 2474 000e 01AA     		add	r2, sp, #4
 2475              	.LVL270:
 2476              		.loc 1 685 26 view .LVU875
 2477 0010 ADF80400 		strh	r0, [sp, #4]	@ movhi
 686:Middlewares/ST/BlueNRG-2/hci/controller/bluenrg1_gatt_aci.c ****   index_input += 2;
 2478              		.loc 1 686 3 is_stmt 1 view .LVU876
 2479              	.LVL271:
 687:Middlewares/ST/BlueNRG-2/hci/controller/bluenrg1_gatt_aci.c ****   BLUENRG_memset(&rq, 0, sizeof(rq));
 2480              		.loc 1 687 3 view .LVU877
 2481 0014 4291     		str	r1, [sp, #264]
 2482 0016 4391     		str	r1, [sp, #268]
 2483 0018 4491     		str	r1, [sp, #272]
 2484 001a 4591     		str	r1, [sp, #276]
 2485 001c 4691     		str	r1, [sp, #280]
 2486 001e 4791     		str	r1, [sp, #284]
 688:Middlewares/ST/BlueNRG-2/hci/controller/bluenrg1_gatt_aci.c ****   rq.ogf = 0x3f;
 2487              		.loc 1 688 3 view .LVU878
 2488              		.loc 1 688 10 is_stmt 0 view .LVU879
 2489 0020 3F20     		movs	r0, #63
 2490              	.LVL272:
ARM GAS  C:\Users\IAHERN~1\AppData\Local\Temp\ccP26j2c.s 			page 57


 2491              		.loc 1 688 10 view .LVU880
 2492 0022 ADF80801 		strh	r0, [sp, #264]	@ movhi
 689:Middlewares/ST/BlueNRG-2/hci/controller/bluenrg1_gatt_aci.c ****   rq.ocf = 0x112;
 2493              		.loc 1 689 3 is_stmt 1 view .LVU881
 2494              		.loc 1 689 10 is_stmt 0 view .LVU882
 2495 0026 4FF48970 		mov	r0, #274
 2496 002a ADF80A01 		strh	r0, [sp, #266]	@ movhi
 690:Middlewares/ST/BlueNRG-2/hci/controller/bluenrg1_gatt_aci.c ****   rq.event = 0x0F;
 2497              		.loc 1 690 3 is_stmt 1 view .LVU883
 2498              		.loc 1 690 12 is_stmt 0 view .LVU884
 2499 002e 0F20     		movs	r0, #15
 2500 0030 4390     		str	r0, [sp, #268]
 691:Middlewares/ST/BlueNRG-2/hci/controller/bluenrg1_gatt_aci.c ****   rq.cparam = cmd_buffer;
 2501              		.loc 1 691 3 is_stmt 1 view .LVU885
 2502              		.loc 1 691 13 is_stmt 0 view .LVU886
 2503 0032 4492     		str	r2, [sp, #272]
 692:Middlewares/ST/BlueNRG-2/hci/controller/bluenrg1_gatt_aci.c ****   rq.clen = index_input;
 2504              		.loc 1 692 3 is_stmt 1 view .LVU887
 2505              		.loc 1 692 11 is_stmt 0 view .LVU888
 2506 0034 0222     		movs	r2, #2
 2507              	.LVL273:
 2508              		.loc 1 692 11 view .LVU889
 2509 0036 4592     		str	r2, [sp, #276]
 693:Middlewares/ST/BlueNRG-2/hci/controller/bluenrg1_gatt_aci.c ****   rq.rparam = &status;
 2510              		.loc 1 693 3 is_stmt 1 view .LVU890
 2511              		.loc 1 693 13 is_stmt 0 view .LVU891
 2512 0038 4693     		str	r3, [sp, #280]
 694:Middlewares/ST/BlueNRG-2/hci/controller/bluenrg1_gatt_aci.c ****   rq.rlen = 1;
 2513              		.loc 1 694 3 is_stmt 1 view .LVU892
 2514              		.loc 1 694 11 is_stmt 0 view .LVU893
 2515 003a 0123     		movs	r3, #1
 2516 003c 4793     		str	r3, [sp, #284]
 695:Middlewares/ST/BlueNRG-2/hci/controller/bluenrg1_gatt_aci.c ****   if (hci_send_req(&rq, FALSE) < 0)
 2517              		.loc 1 695 3 is_stmt 1 view .LVU894
 2518              		.loc 1 695 7 is_stmt 0 view .LVU895
 2519 003e 42A8     		add	r0, sp, #264
 2520 0040 FFF7FEFF 		bl	hci_send_req
 2521              	.LVL274:
 2522              		.loc 1 695 6 discriminator 1 view .LVU896
 2523 0044 0028     		cmp	r0, #0
 2524 0046 04DB     		blt	.L105
 696:Middlewares/ST/BlueNRG-2/hci/controller/bluenrg1_gatt_aci.c ****     return BLE_STATUS_TIMEOUT;
 697:Middlewares/ST/BlueNRG-2/hci/controller/bluenrg1_gatt_aci.c ****   if (status) {
 2525              		.loc 1 697 3 is_stmt 1 view .LVU897
 2526              		.loc 1 697 7 is_stmt 0 view .LVU898
 2527 0048 9DF80300 		ldrb	r0, [sp, #3]	@ zero_extendqisi2
 2528              	.L104:
 698:Middlewares/ST/BlueNRG-2/hci/controller/bluenrg1_gatt_aci.c ****     return status;
 699:Middlewares/ST/BlueNRG-2/hci/controller/bluenrg1_gatt_aci.c ****   }
 700:Middlewares/ST/BlueNRG-2/hci/controller/bluenrg1_gatt_aci.c ****   return BLE_STATUS_SUCCESS;
 701:Middlewares/ST/BlueNRG-2/hci/controller/bluenrg1_gatt_aci.c **** }
 2529              		.loc 1 701 1 view .LVU899
 2530 004c 49B0     		add	sp, sp, #292
 2531              		.cfi_remember_state
 2532              		.cfi_def_cfa_offset 4
 2533              		@ sp needed
 2534 004e 5DF804FB 		ldr	pc, [sp], #4
ARM GAS  C:\Users\IAHERN~1\AppData\Local\Temp\ccP26j2c.s 			page 58


 2535              	.LVL275:
 2536              	.L105:
 2537              		.cfi_restore_state
 696:Middlewares/ST/BlueNRG-2/hci/controller/bluenrg1_gatt_aci.c ****     return BLE_STATUS_TIMEOUT;
 2538              		.loc 1 696 12 view .LVU900
 2539 0052 FF20     		movs	r0, #255
 2540 0054 FAE7     		b	.L104
 2541              		.cfi_endproc
 2542              	.LFE154:
 2544              		.section	.text.aci_gatt_disc_primary_service_by_uuid,"ax",%progbits
 2545              		.align	1
 2546              		.global	aci_gatt_disc_primary_service_by_uuid
 2547              		.syntax unified
 2548              		.thumb
 2549              		.thumb_func
 2551              	aci_gatt_disc_primary_service_by_uuid:
 2552              	.LVL276:
 2553              	.LFB155:
 702:Middlewares/ST/BlueNRG-2/hci/controller/bluenrg1_gatt_aci.c **** tBleStatus aci_gatt_disc_primary_service_by_uuid(uint16_t Connection_Handle,
 703:Middlewares/ST/BlueNRG-2/hci/controller/bluenrg1_gatt_aci.c ****                                                  uint8_t UUID_Type,
 704:Middlewares/ST/BlueNRG-2/hci/controller/bluenrg1_gatt_aci.c ****                                                  UUID_t *UUID)
 705:Middlewares/ST/BlueNRG-2/hci/controller/bluenrg1_gatt_aci.c **** {
 2554              		.loc 1 705 1 is_stmt 1 view -0
 2555              		.cfi_startproc
 2556              		@ args = 0, pretend = 0, frame = 288
 2557              		@ frame_needed = 0, uses_anonymous_args = 0
 2558              		.loc 1 705 1 is_stmt 0 view .LVU902
 2559 0000 10B5     		push	{r4, lr}
 2560              		.cfi_def_cfa_offset 8
 2561              		.cfi_offset 4, -8
 2562              		.cfi_offset 14, -4
 2563 0002 C8B0     		sub	sp, sp, #288
 2564              		.cfi_def_cfa_offset 296
 2565 0004 0B46     		mov	r3, r1
 2566 0006 1146     		mov	r1, r2
 2567              	.LVL277:
 706:Middlewares/ST/BlueNRG-2/hci/controller/bluenrg1_gatt_aci.c ****   struct hci_request rq;
 2568              		.loc 1 706 3 is_stmt 1 view .LVU903
 707:Middlewares/ST/BlueNRG-2/hci/controller/bluenrg1_gatt_aci.c ****   uint8_t cmd_buffer[258];
 2569              		.loc 1 707 3 view .LVU904
 708:Middlewares/ST/BlueNRG-2/hci/controller/bluenrg1_gatt_aci.c ****   aci_gatt_disc_primary_service_by_uuid_cp0 *cp0 = (aci_gatt_disc_primary_service_by_uuid_cp0*)(cmd
 2570              		.loc 1 708 3 view .LVU905
 709:Middlewares/ST/BlueNRG-2/hci/controller/bluenrg1_gatt_aci.c ****   tBleStatus status = 0;
 2571              		.loc 1 709 3 view .LVU906
 2572              		.loc 1 709 14 is_stmt 0 view .LVU907
 2573 0008 0022     		movs	r2, #0
 2574              	.LVL278:
 2575              		.loc 1 709 14 view .LVU908
 2576 000a 8DF80320 		strb	r2, [sp, #3]
 710:Middlewares/ST/BlueNRG-2/hci/controller/bluenrg1_gatt_aci.c ****   uint8_t index_input = 0;
 2577              		.loc 1 710 3 is_stmt 1 view .LVU909
 2578              	.LVL279:
 711:Middlewares/ST/BlueNRG-2/hci/controller/bluenrg1_gatt_aci.c ****   cp0->Connection_Handle = htob(Connection_Handle, 2);
 2579              		.loc 1 711 3 view .LVU910
 2580              		.loc 1 711 26 is_stmt 0 view .LVU911
 2581 000e ADF80400 		strh	r0, [sp, #4]	@ movhi
 712:Middlewares/ST/BlueNRG-2/hci/controller/bluenrg1_gatt_aci.c ****   index_input += 2;
ARM GAS  C:\Users\IAHERN~1\AppData\Local\Temp\ccP26j2c.s 			page 59


 2582              		.loc 1 712 3 is_stmt 1 view .LVU912
 2583              	.LVL280:
 713:Middlewares/ST/BlueNRG-2/hci/controller/bluenrg1_gatt_aci.c ****   cp0->UUID_Type = htob(UUID_Type, 1);
 2584              		.loc 1 713 3 view .LVU913
 2585              		.loc 1 713 18 is_stmt 0 view .LVU914
 2586 0012 8DF80630 		strb	r3, [sp, #6]
 714:Middlewares/ST/BlueNRG-2/hci/controller/bluenrg1_gatt_aci.c ****   index_input += 1;
 2587              		.loc 1 714 3 is_stmt 1 view .LVU915
 2588              	.LVL281:
 2589              	.LBB17:
 715:Middlewares/ST/BlueNRG-2/hci/controller/bluenrg1_gatt_aci.c ****   /* var_len_data input */
 716:Middlewares/ST/BlueNRG-2/hci/controller/bluenrg1_gatt_aci.c ****   {
 717:Middlewares/ST/BlueNRG-2/hci/controller/bluenrg1_gatt_aci.c ****     uint8_t size;
 2590              		.loc 1 717 5 view .LVU916
 718:Middlewares/ST/BlueNRG-2/hci/controller/bluenrg1_gatt_aci.c ****     switch (UUID_Type) {
 2591              		.loc 1 718 5 view .LVU917
 2592 0016 012B     		cmp	r3, #1
 2593 0018 03D0     		beq	.L110
 2594 001a 022B     		cmp	r3, #2
 2595 001c 29D1     		bne	.L111
 719:Middlewares/ST/BlueNRG-2/hci/controller/bluenrg1_gatt_aci.c ****       case 1: size = 2; break;
 720:Middlewares/ST/BlueNRG-2/hci/controller/bluenrg1_gatt_aci.c ****       case 2: size = 16; break;
 2596              		.loc 1 720 20 is_stmt 0 view .LVU918
 2597 001e 1024     		movs	r4, #16
 2598 0020 00E0     		b	.L108
 2599              	.L110:
 718:Middlewares/ST/BlueNRG-2/hci/controller/bluenrg1_gatt_aci.c ****     switch (UUID_Type) {
 2600              		.loc 1 718 5 view .LVU919
 2601 0022 0224     		movs	r4, #2
 2602              	.L108:
 2603              	.LVL282:
 721:Middlewares/ST/BlueNRG-2/hci/controller/bluenrg1_gatt_aci.c ****       default: return BLE_STATUS_ERROR;
 722:Middlewares/ST/BlueNRG-2/hci/controller/bluenrg1_gatt_aci.c ****     }
 723:Middlewares/ST/BlueNRG-2/hci/controller/bluenrg1_gatt_aci.c ****     BLUENRG_memcpy((void *) &cp0->UUID, (const void *) UUID, size);
 2604              		.loc 1 723 5 is_stmt 1 view .LVU920
 2605 0024 2246     		mov	r2, r4
 2606 0026 0DF10700 		add	r0, sp, #7
 2607              	.LVL283:
 2608              		.loc 1 723 5 is_stmt 0 view .LVU921
 2609 002a FFF7FEFF 		bl	memcpy
 2610              	.LVL284:
 724:Middlewares/ST/BlueNRG-2/hci/controller/bluenrg1_gatt_aci.c ****     index_input += size;
 2611              		.loc 1 724 5 is_stmt 1 view .LVU922
 2612              		.loc 1 724 17 is_stmt 0 view .LVU923
 2613 002e 0334     		adds	r4, r4, #3
 2614              	.LVL285:
 2615              		.loc 1 724 17 view .LVU924
 2616              	.LBE17:
 725:Middlewares/ST/BlueNRG-2/hci/controller/bluenrg1_gatt_aci.c ****   }
 726:Middlewares/ST/BlueNRG-2/hci/controller/bluenrg1_gatt_aci.c ****   BLUENRG_memset(&rq, 0, sizeof(rq));
 2617              		.loc 1 726 3 is_stmt 1 view .LVU925
 2618 0030 0021     		movs	r1, #0
 2619 0032 4291     		str	r1, [sp, #264]
 2620 0034 4391     		str	r1, [sp, #268]
 2621 0036 4491     		str	r1, [sp, #272]
 2622 0038 4591     		str	r1, [sp, #276]
 2623 003a 4691     		str	r1, [sp, #280]
ARM GAS  C:\Users\IAHERN~1\AppData\Local\Temp\ccP26j2c.s 			page 60


 2624 003c 4791     		str	r1, [sp, #284]
 727:Middlewares/ST/BlueNRG-2/hci/controller/bluenrg1_gatt_aci.c ****   rq.ogf = 0x3f;
 2625              		.loc 1 727 3 view .LVU926
 2626              		.loc 1 727 10 is_stmt 0 view .LVU927
 2627 003e 3F23     		movs	r3, #63
 2628 0040 ADF80831 		strh	r3, [sp, #264]	@ movhi
 728:Middlewares/ST/BlueNRG-2/hci/controller/bluenrg1_gatt_aci.c ****   rq.ocf = 0x113;
 2629              		.loc 1 728 3 is_stmt 1 view .LVU928
 2630              		.loc 1 728 10 is_stmt 0 view .LVU929
 2631 0044 40F21313 		movw	r3, #275
 2632 0048 ADF80A31 		strh	r3, [sp, #266]	@ movhi
 729:Middlewares/ST/BlueNRG-2/hci/controller/bluenrg1_gatt_aci.c ****   rq.event = 0x0F;
 2633              		.loc 1 729 3 is_stmt 1 view .LVU930
 2634              		.loc 1 729 12 is_stmt 0 view .LVU931
 2635 004c 0F23     		movs	r3, #15
 2636 004e 4393     		str	r3, [sp, #268]
 730:Middlewares/ST/BlueNRG-2/hci/controller/bluenrg1_gatt_aci.c ****   rq.cparam = cmd_buffer;
 2637              		.loc 1 730 3 is_stmt 1 view .LVU932
 2638              		.loc 1 730 13 is_stmt 0 view .LVU933
 2639 0050 01AB     		add	r3, sp, #4
 2640              	.LVL286:
 2641              		.loc 1 730 13 view .LVU934
 2642 0052 4493     		str	r3, [sp, #272]
 731:Middlewares/ST/BlueNRG-2/hci/controller/bluenrg1_gatt_aci.c ****   rq.clen = index_input;
 2643              		.loc 1 731 3 is_stmt 1 view .LVU935
 2644              		.loc 1 731 11 is_stmt 0 view .LVU936
 2645 0054 4594     		str	r4, [sp, #276]
 732:Middlewares/ST/BlueNRG-2/hci/controller/bluenrg1_gatt_aci.c ****   rq.rparam = &status;
 2646              		.loc 1 732 3 is_stmt 1 view .LVU937
 2647              		.loc 1 732 13 is_stmt 0 view .LVU938
 2648 0056 0DF10303 		add	r3, sp, #3
 2649              	.LVL287:
 2650              		.loc 1 732 13 view .LVU939
 2651 005a 4693     		str	r3, [sp, #280]
 733:Middlewares/ST/BlueNRG-2/hci/controller/bluenrg1_gatt_aci.c ****   rq.rlen = 1;
 2652              		.loc 1 733 3 is_stmt 1 view .LVU940
 2653              		.loc 1 733 11 is_stmt 0 view .LVU941
 2654 005c 0123     		movs	r3, #1
 2655 005e 4793     		str	r3, [sp, #284]
 734:Middlewares/ST/BlueNRG-2/hci/controller/bluenrg1_gatt_aci.c ****   if (hci_send_req(&rq, FALSE) < 0)
 2656              		.loc 1 734 3 is_stmt 1 view .LVU942
 2657              		.loc 1 734 7 is_stmt 0 view .LVU943
 2658 0060 42A8     		add	r0, sp, #264
 2659 0062 FFF7FEFF 		bl	hci_send_req
 2660              	.LVL288:
 2661              		.loc 1 734 6 discriminator 1 view .LVU944
 2662 0066 0028     		cmp	r0, #0
 2663 0068 05DB     		blt	.L112
 735:Middlewares/ST/BlueNRG-2/hci/controller/bluenrg1_gatt_aci.c ****     return BLE_STATUS_TIMEOUT;
 736:Middlewares/ST/BlueNRG-2/hci/controller/bluenrg1_gatt_aci.c ****   if (status) {
 2664              		.loc 1 736 3 is_stmt 1 view .LVU945
 2665              		.loc 1 736 7 is_stmt 0 view .LVU946
 2666 006a 9DF80300 		ldrb	r0, [sp, #3]	@ zero_extendqisi2
 2667              	.LVL289:
 2668              	.L109:
 737:Middlewares/ST/BlueNRG-2/hci/controller/bluenrg1_gatt_aci.c ****     return status;
 738:Middlewares/ST/BlueNRG-2/hci/controller/bluenrg1_gatt_aci.c ****   }
ARM GAS  C:\Users\IAHERN~1\AppData\Local\Temp\ccP26j2c.s 			page 61


 739:Middlewares/ST/BlueNRG-2/hci/controller/bluenrg1_gatt_aci.c ****   return BLE_STATUS_SUCCESS;
 740:Middlewares/ST/BlueNRG-2/hci/controller/bluenrg1_gatt_aci.c **** }
 2669              		.loc 1 740 1 view .LVU947
 2670 006e 48B0     		add	sp, sp, #288
 2671              		.cfi_remember_state
 2672              		.cfi_def_cfa_offset 8
 2673              		@ sp needed
 2674 0070 10BD     		pop	{r4, pc}
 2675              	.LVL290:
 2676              	.L111:
 2677              		.cfi_restore_state
 2678              	.LBB18:
 718:Middlewares/ST/BlueNRG-2/hci/controller/bluenrg1_gatt_aci.c ****       case 1: size = 2; break;
 2679              		.loc 1 718 5 view .LVU948
 2680 0072 4720     		movs	r0, #71
 2681              	.LVL291:
 718:Middlewares/ST/BlueNRG-2/hci/controller/bluenrg1_gatt_aci.c ****       case 1: size = 2; break;
 2682              		.loc 1 718 5 view .LVU949
 2683 0074 FBE7     		b	.L109
 2684              	.LVL292:
 2685              	.L112:
 718:Middlewares/ST/BlueNRG-2/hci/controller/bluenrg1_gatt_aci.c ****       case 1: size = 2; break;
 2686              		.loc 1 718 5 view .LVU950
 2687              	.LBE18:
 735:Middlewares/ST/BlueNRG-2/hci/controller/bluenrg1_gatt_aci.c ****     return BLE_STATUS_TIMEOUT;
 2688              		.loc 1 735 12 view .LVU951
 2689 0076 FF20     		movs	r0, #255
 2690 0078 F9E7     		b	.L109
 2691              		.cfi_endproc
 2692              	.LFE155:
 2694              		.section	.text.aci_gatt_find_included_services,"ax",%progbits
 2695              		.align	1
 2696              		.global	aci_gatt_find_included_services
 2697              		.syntax unified
 2698              		.thumb
 2699              		.thumb_func
 2701              	aci_gatt_find_included_services:
 2702              	.LVL293:
 2703              	.LFB156:
 741:Middlewares/ST/BlueNRG-2/hci/controller/bluenrg1_gatt_aci.c **** tBleStatus aci_gatt_find_included_services(uint16_t Connection_Handle,
 742:Middlewares/ST/BlueNRG-2/hci/controller/bluenrg1_gatt_aci.c ****                                            uint16_t Start_Handle,
 743:Middlewares/ST/BlueNRG-2/hci/controller/bluenrg1_gatt_aci.c ****                                            uint16_t End_Handle)
 744:Middlewares/ST/BlueNRG-2/hci/controller/bluenrg1_gatt_aci.c **** {
 2704              		.loc 1 744 1 is_stmt 1 view -0
 2705              		.cfi_startproc
 2706              		@ args = 0, pretend = 0, frame = 288
 2707              		@ frame_needed = 0, uses_anonymous_args = 0
 2708              		.loc 1 744 1 is_stmt 0 view .LVU953
 2709 0000 30B5     		push	{r4, r5, lr}
 2710              		.cfi_def_cfa_offset 12
 2711              		.cfi_offset 4, -12
 2712              		.cfi_offset 5, -8
 2713              		.cfi_offset 14, -4
 2714 0002 C9B0     		sub	sp, sp, #292
 2715              		.cfi_def_cfa_offset 304
 745:Middlewares/ST/BlueNRG-2/hci/controller/bluenrg1_gatt_aci.c ****   struct hci_request rq;
 2716              		.loc 1 745 3 is_stmt 1 view .LVU954
ARM GAS  C:\Users\IAHERN~1\AppData\Local\Temp\ccP26j2c.s 			page 62


 746:Middlewares/ST/BlueNRG-2/hci/controller/bluenrg1_gatt_aci.c ****   uint8_t cmd_buffer[258];
 2717              		.loc 1 746 3 view .LVU955
 747:Middlewares/ST/BlueNRG-2/hci/controller/bluenrg1_gatt_aci.c ****   aci_gatt_find_included_services_cp0 *cp0 = (aci_gatt_find_included_services_cp0*)(cmd_buffer);
 2718              		.loc 1 747 3 view .LVU956
 2719              	.LVL294:
 748:Middlewares/ST/BlueNRG-2/hci/controller/bluenrg1_gatt_aci.c ****   tBleStatus status = 0;
 2720              		.loc 1 748 3 view .LVU957
 2721              		.loc 1 748 14 is_stmt 0 view .LVU958
 2722 0004 0DF10305 		add	r5, sp, #3
 2723 0008 0023     		movs	r3, #0
 2724 000a 8DF80330 		strb	r3, [sp, #3]
 749:Middlewares/ST/BlueNRG-2/hci/controller/bluenrg1_gatt_aci.c ****   uint8_t index_input = 0;
 2725              		.loc 1 749 3 is_stmt 1 view .LVU959
 2726              	.LVL295:
 750:Middlewares/ST/BlueNRG-2/hci/controller/bluenrg1_gatt_aci.c ****   cp0->Connection_Handle = htob(Connection_Handle, 2);
 2727              		.loc 1 750 3 view .LVU960
 2728              		.loc 1 750 26 is_stmt 0 view .LVU961
 2729 000e 01AC     		add	r4, sp, #4
 2730              	.LVL296:
 2731              		.loc 1 750 26 view .LVU962
 2732 0010 ADF80400 		strh	r0, [sp, #4]	@ movhi
 751:Middlewares/ST/BlueNRG-2/hci/controller/bluenrg1_gatt_aci.c ****   index_input += 2;
 2733              		.loc 1 751 3 is_stmt 1 view .LVU963
 2734              	.LVL297:
 752:Middlewares/ST/BlueNRG-2/hci/controller/bluenrg1_gatt_aci.c ****   cp0->Start_Handle = htob(Start_Handle, 2);
 2735              		.loc 1 752 3 view .LVU964
 2736              		.loc 1 752 21 is_stmt 0 view .LVU965
 2737 0014 ADF80610 		strh	r1, [sp, #6]	@ movhi
 753:Middlewares/ST/BlueNRG-2/hci/controller/bluenrg1_gatt_aci.c ****   index_input += 2;
 2738              		.loc 1 753 3 is_stmt 1 view .LVU966
 2739              	.LVL298:
 754:Middlewares/ST/BlueNRG-2/hci/controller/bluenrg1_gatt_aci.c ****   cp0->End_Handle = htob(End_Handle, 2);
 2740              		.loc 1 754 3 view .LVU967
 2741              		.loc 1 754 19 is_stmt 0 view .LVU968
 2742 0018 ADF80820 		strh	r2, [sp, #8]	@ movhi
 755:Middlewares/ST/BlueNRG-2/hci/controller/bluenrg1_gatt_aci.c ****   index_input += 2;
 2743              		.loc 1 755 3 is_stmt 1 view .LVU969
 2744              	.LVL299:
 756:Middlewares/ST/BlueNRG-2/hci/controller/bluenrg1_gatt_aci.c ****   BLUENRG_memset(&rq, 0, sizeof(rq));
 2745              		.loc 1 756 3 view .LVU970
 2746 001c 4293     		str	r3, [sp, #264]
 2747 001e 4393     		str	r3, [sp, #268]
 2748 0020 4493     		str	r3, [sp, #272]
 2749 0022 4593     		str	r3, [sp, #276]
 2750 0024 4693     		str	r3, [sp, #280]
 2751 0026 4793     		str	r3, [sp, #284]
 757:Middlewares/ST/BlueNRG-2/hci/controller/bluenrg1_gatt_aci.c ****   rq.ogf = 0x3f;
 2752              		.loc 1 757 3 view .LVU971
 2753              		.loc 1 757 10 is_stmt 0 view .LVU972
 2754 0028 3F22     		movs	r2, #63
 2755              	.LVL300:
 2756              		.loc 1 757 10 view .LVU973
 2757 002a ADF80821 		strh	r2, [sp, #264]	@ movhi
 758:Middlewares/ST/BlueNRG-2/hci/controller/bluenrg1_gatt_aci.c ****   rq.ocf = 0x114;
 2758              		.loc 1 758 3 is_stmt 1 view .LVU974
 2759              		.loc 1 758 10 is_stmt 0 view .LVU975
 2760 002e 4FF48A72 		mov	r2, #276
ARM GAS  C:\Users\IAHERN~1\AppData\Local\Temp\ccP26j2c.s 			page 63


 2761 0032 ADF80A21 		strh	r2, [sp, #266]	@ movhi
 759:Middlewares/ST/BlueNRG-2/hci/controller/bluenrg1_gatt_aci.c ****   rq.event = 0x0F;
 2762              		.loc 1 759 3 is_stmt 1 view .LVU976
 2763              		.loc 1 759 12 is_stmt 0 view .LVU977
 2764 0036 0F22     		movs	r2, #15
 2765 0038 4392     		str	r2, [sp, #268]
 760:Middlewares/ST/BlueNRG-2/hci/controller/bluenrg1_gatt_aci.c ****   rq.cparam = cmd_buffer;
 2766              		.loc 1 760 3 is_stmt 1 view .LVU978
 2767              		.loc 1 760 13 is_stmt 0 view .LVU979
 2768 003a 4494     		str	r4, [sp, #272]
 761:Middlewares/ST/BlueNRG-2/hci/controller/bluenrg1_gatt_aci.c ****   rq.clen = index_input;
 2769              		.loc 1 761 3 is_stmt 1 view .LVU980
 2770              		.loc 1 761 11 is_stmt 0 view .LVU981
 2771 003c 0622     		movs	r2, #6
 2772 003e 4592     		str	r2, [sp, #276]
 762:Middlewares/ST/BlueNRG-2/hci/controller/bluenrg1_gatt_aci.c ****   rq.rparam = &status;
 2773              		.loc 1 762 3 is_stmt 1 view .LVU982
 2774              		.loc 1 762 13 is_stmt 0 view .LVU983
 2775 0040 4695     		str	r5, [sp, #280]
 763:Middlewares/ST/BlueNRG-2/hci/controller/bluenrg1_gatt_aci.c ****   rq.rlen = 1;
 2776              		.loc 1 763 3 is_stmt 1 view .LVU984
 2777              		.loc 1 763 11 is_stmt 0 view .LVU985
 2778 0042 0122     		movs	r2, #1
 2779 0044 4792     		str	r2, [sp, #284]
 764:Middlewares/ST/BlueNRG-2/hci/controller/bluenrg1_gatt_aci.c ****   if (hci_send_req(&rq, FALSE) < 0)
 2780              		.loc 1 764 3 is_stmt 1 view .LVU986
 2781              		.loc 1 764 7 is_stmt 0 view .LVU987
 2782 0046 1946     		mov	r1, r3
 2783              	.LVL301:
 2784              		.loc 1 764 7 view .LVU988
 2785 0048 42A8     		add	r0, sp, #264
 2786              	.LVL302:
 2787              		.loc 1 764 7 view .LVU989
 2788 004a FFF7FEFF 		bl	hci_send_req
 2789              	.LVL303:
 2790              		.loc 1 764 6 discriminator 1 view .LVU990
 2791 004e 0028     		cmp	r0, #0
 2792 0050 03DB     		blt	.L116
 765:Middlewares/ST/BlueNRG-2/hci/controller/bluenrg1_gatt_aci.c ****     return BLE_STATUS_TIMEOUT;
 766:Middlewares/ST/BlueNRG-2/hci/controller/bluenrg1_gatt_aci.c ****   if (status) {
 2793              		.loc 1 766 3 is_stmt 1 view .LVU991
 2794              		.loc 1 766 7 is_stmt 0 view .LVU992
 2795 0052 9DF80300 		ldrb	r0, [sp, #3]	@ zero_extendqisi2
 2796              	.L115:
 767:Middlewares/ST/BlueNRG-2/hci/controller/bluenrg1_gatt_aci.c ****     return status;
 768:Middlewares/ST/BlueNRG-2/hci/controller/bluenrg1_gatt_aci.c ****   }
 769:Middlewares/ST/BlueNRG-2/hci/controller/bluenrg1_gatt_aci.c ****   return BLE_STATUS_SUCCESS;
 770:Middlewares/ST/BlueNRG-2/hci/controller/bluenrg1_gatt_aci.c **** }
 2797              		.loc 1 770 1 view .LVU993
 2798 0056 49B0     		add	sp, sp, #292
 2799              		.cfi_remember_state
 2800              		.cfi_def_cfa_offset 12
 2801              		@ sp needed
 2802 0058 30BD     		pop	{r4, r5, pc}
 2803              	.LVL304:
 2804              	.L116:
 2805              		.cfi_restore_state
ARM GAS  C:\Users\IAHERN~1\AppData\Local\Temp\ccP26j2c.s 			page 64


 765:Middlewares/ST/BlueNRG-2/hci/controller/bluenrg1_gatt_aci.c ****     return BLE_STATUS_TIMEOUT;
 2806              		.loc 1 765 12 view .LVU994
 2807 005a FF20     		movs	r0, #255
 2808 005c FBE7     		b	.L115
 2809              		.cfi_endproc
 2810              	.LFE156:
 2812              		.section	.text.aci_gatt_disc_all_char_of_service,"ax",%progbits
 2813              		.align	1
 2814              		.global	aci_gatt_disc_all_char_of_service
 2815              		.syntax unified
 2816              		.thumb
 2817              		.thumb_func
 2819              	aci_gatt_disc_all_char_of_service:
 2820              	.LVL305:
 2821              	.LFB157:
 771:Middlewares/ST/BlueNRG-2/hci/controller/bluenrg1_gatt_aci.c **** tBleStatus aci_gatt_disc_all_char_of_service(uint16_t Connection_Handle,
 772:Middlewares/ST/BlueNRG-2/hci/controller/bluenrg1_gatt_aci.c ****                                              uint16_t Start_Handle,
 773:Middlewares/ST/BlueNRG-2/hci/controller/bluenrg1_gatt_aci.c ****                                              uint16_t End_Handle)
 774:Middlewares/ST/BlueNRG-2/hci/controller/bluenrg1_gatt_aci.c **** {
 2822              		.loc 1 774 1 is_stmt 1 view -0
 2823              		.cfi_startproc
 2824              		@ args = 0, pretend = 0, frame = 288
 2825              		@ frame_needed = 0, uses_anonymous_args = 0
 2826              		.loc 1 774 1 is_stmt 0 view .LVU996
 2827 0000 30B5     		push	{r4, r5, lr}
 2828              		.cfi_def_cfa_offset 12
 2829              		.cfi_offset 4, -12
 2830              		.cfi_offset 5, -8
 2831              		.cfi_offset 14, -4
 2832 0002 C9B0     		sub	sp, sp, #292
 2833              		.cfi_def_cfa_offset 304
 775:Middlewares/ST/BlueNRG-2/hci/controller/bluenrg1_gatt_aci.c ****   struct hci_request rq;
 2834              		.loc 1 775 3 is_stmt 1 view .LVU997
 776:Middlewares/ST/BlueNRG-2/hci/controller/bluenrg1_gatt_aci.c ****   uint8_t cmd_buffer[258];
 2835              		.loc 1 776 3 view .LVU998
 777:Middlewares/ST/BlueNRG-2/hci/controller/bluenrg1_gatt_aci.c ****   aci_gatt_disc_all_char_of_service_cp0 *cp0 = (aci_gatt_disc_all_char_of_service_cp0*)(cmd_buffer)
 2836              		.loc 1 777 3 view .LVU999
 2837              	.LVL306:
 778:Middlewares/ST/BlueNRG-2/hci/controller/bluenrg1_gatt_aci.c ****   tBleStatus status = 0;
 2838              		.loc 1 778 3 view .LVU1000
 2839              		.loc 1 778 14 is_stmt 0 view .LVU1001
 2840 0004 0DF10305 		add	r5, sp, #3
 2841 0008 0023     		movs	r3, #0
 2842 000a 8DF80330 		strb	r3, [sp, #3]
 779:Middlewares/ST/BlueNRG-2/hci/controller/bluenrg1_gatt_aci.c ****   uint8_t index_input = 0;
 2843              		.loc 1 779 3 is_stmt 1 view .LVU1002
 2844              	.LVL307:
 780:Middlewares/ST/BlueNRG-2/hci/controller/bluenrg1_gatt_aci.c ****   cp0->Connection_Handle = htob(Connection_Handle, 2);
 2845              		.loc 1 780 3 view .LVU1003
 2846              		.loc 1 780 26 is_stmt 0 view .LVU1004
 2847 000e 01AC     		add	r4, sp, #4
 2848              	.LVL308:
 2849              		.loc 1 780 26 view .LVU1005
 2850 0010 ADF80400 		strh	r0, [sp, #4]	@ movhi
 781:Middlewares/ST/BlueNRG-2/hci/controller/bluenrg1_gatt_aci.c ****   index_input += 2;
 2851              		.loc 1 781 3 is_stmt 1 view .LVU1006
 2852              	.LVL309:
ARM GAS  C:\Users\IAHERN~1\AppData\Local\Temp\ccP26j2c.s 			page 65


 782:Middlewares/ST/BlueNRG-2/hci/controller/bluenrg1_gatt_aci.c ****   cp0->Start_Handle = htob(Start_Handle, 2);
 2853              		.loc 1 782 3 view .LVU1007
 2854              		.loc 1 782 21 is_stmt 0 view .LVU1008
 2855 0014 ADF80610 		strh	r1, [sp, #6]	@ movhi
 783:Middlewares/ST/BlueNRG-2/hci/controller/bluenrg1_gatt_aci.c ****   index_input += 2;
 2856              		.loc 1 783 3 is_stmt 1 view .LVU1009
 2857              	.LVL310:
 784:Middlewares/ST/BlueNRG-2/hci/controller/bluenrg1_gatt_aci.c ****   cp0->End_Handle = htob(End_Handle, 2);
 2858              		.loc 1 784 3 view .LVU1010
 2859              		.loc 1 784 19 is_stmt 0 view .LVU1011
 2860 0018 ADF80820 		strh	r2, [sp, #8]	@ movhi
 785:Middlewares/ST/BlueNRG-2/hci/controller/bluenrg1_gatt_aci.c ****   index_input += 2;
 2861              		.loc 1 785 3 is_stmt 1 view .LVU1012
 2862              	.LVL311:
 786:Middlewares/ST/BlueNRG-2/hci/controller/bluenrg1_gatt_aci.c ****   BLUENRG_memset(&rq, 0, sizeof(rq));
 2863              		.loc 1 786 3 view .LVU1013
 2864 001c 4293     		str	r3, [sp, #264]
 2865 001e 4393     		str	r3, [sp, #268]
 2866 0020 4493     		str	r3, [sp, #272]
 2867 0022 4593     		str	r3, [sp, #276]
 2868 0024 4693     		str	r3, [sp, #280]
 2869 0026 4793     		str	r3, [sp, #284]
 787:Middlewares/ST/BlueNRG-2/hci/controller/bluenrg1_gatt_aci.c ****   rq.ogf = 0x3f;
 2870              		.loc 1 787 3 view .LVU1014
 2871              		.loc 1 787 10 is_stmt 0 view .LVU1015
 2872 0028 3F22     		movs	r2, #63
 2873              	.LVL312:
 2874              		.loc 1 787 10 view .LVU1016
 2875 002a ADF80821 		strh	r2, [sp, #264]	@ movhi
 788:Middlewares/ST/BlueNRG-2/hci/controller/bluenrg1_gatt_aci.c ****   rq.ocf = 0x115;
 2876              		.loc 1 788 3 is_stmt 1 view .LVU1017
 2877              		.loc 1 788 10 is_stmt 0 view .LVU1018
 2878 002e 40F21512 		movw	r2, #277
 2879 0032 ADF80A21 		strh	r2, [sp, #266]	@ movhi
 789:Middlewares/ST/BlueNRG-2/hci/controller/bluenrg1_gatt_aci.c ****   rq.event = 0x0F;
 2880              		.loc 1 789 3 is_stmt 1 view .LVU1019
 2881              		.loc 1 789 12 is_stmt 0 view .LVU1020
 2882 0036 0F22     		movs	r2, #15
 2883 0038 4392     		str	r2, [sp, #268]
 790:Middlewares/ST/BlueNRG-2/hci/controller/bluenrg1_gatt_aci.c ****   rq.cparam = cmd_buffer;
 2884              		.loc 1 790 3 is_stmt 1 view .LVU1021
 2885              		.loc 1 790 13 is_stmt 0 view .LVU1022
 2886 003a 4494     		str	r4, [sp, #272]
 791:Middlewares/ST/BlueNRG-2/hci/controller/bluenrg1_gatt_aci.c ****   rq.clen = index_input;
 2887              		.loc 1 791 3 is_stmt 1 view .LVU1023
 2888              		.loc 1 791 11 is_stmt 0 view .LVU1024
 2889 003c 0622     		movs	r2, #6
 2890 003e 4592     		str	r2, [sp, #276]
 792:Middlewares/ST/BlueNRG-2/hci/controller/bluenrg1_gatt_aci.c ****   rq.rparam = &status;
 2891              		.loc 1 792 3 is_stmt 1 view .LVU1025
 2892              		.loc 1 792 13 is_stmt 0 view .LVU1026
 2893 0040 4695     		str	r5, [sp, #280]
 793:Middlewares/ST/BlueNRG-2/hci/controller/bluenrg1_gatt_aci.c ****   rq.rlen = 1;
 2894              		.loc 1 793 3 is_stmt 1 view .LVU1027
 2895              		.loc 1 793 11 is_stmt 0 view .LVU1028
 2896 0042 0122     		movs	r2, #1
 2897 0044 4792     		str	r2, [sp, #284]
ARM GAS  C:\Users\IAHERN~1\AppData\Local\Temp\ccP26j2c.s 			page 66


 794:Middlewares/ST/BlueNRG-2/hci/controller/bluenrg1_gatt_aci.c ****   if (hci_send_req(&rq, FALSE) < 0)
 2898              		.loc 1 794 3 is_stmt 1 view .LVU1029
 2899              		.loc 1 794 7 is_stmt 0 view .LVU1030
 2900 0046 1946     		mov	r1, r3
 2901              	.LVL313:
 2902              		.loc 1 794 7 view .LVU1031
 2903 0048 42A8     		add	r0, sp, #264
 2904              	.LVL314:
 2905              		.loc 1 794 7 view .LVU1032
 2906 004a FFF7FEFF 		bl	hci_send_req
 2907              	.LVL315:
 2908              		.loc 1 794 6 discriminator 1 view .LVU1033
 2909 004e 0028     		cmp	r0, #0
 2910 0050 03DB     		blt	.L120
 795:Middlewares/ST/BlueNRG-2/hci/controller/bluenrg1_gatt_aci.c ****     return BLE_STATUS_TIMEOUT;
 796:Middlewares/ST/BlueNRG-2/hci/controller/bluenrg1_gatt_aci.c ****   if (status) {
 2911              		.loc 1 796 3 is_stmt 1 view .LVU1034
 2912              		.loc 1 796 7 is_stmt 0 view .LVU1035
 2913 0052 9DF80300 		ldrb	r0, [sp, #3]	@ zero_extendqisi2
 2914              	.L119:
 797:Middlewares/ST/BlueNRG-2/hci/controller/bluenrg1_gatt_aci.c ****     return status;
 798:Middlewares/ST/BlueNRG-2/hci/controller/bluenrg1_gatt_aci.c ****   }
 799:Middlewares/ST/BlueNRG-2/hci/controller/bluenrg1_gatt_aci.c ****   return BLE_STATUS_SUCCESS;
 800:Middlewares/ST/BlueNRG-2/hci/controller/bluenrg1_gatt_aci.c **** }
 2915              		.loc 1 800 1 view .LVU1036
 2916 0056 49B0     		add	sp, sp, #292
 2917              		.cfi_remember_state
 2918              		.cfi_def_cfa_offset 12
 2919              		@ sp needed
 2920 0058 30BD     		pop	{r4, r5, pc}
 2921              	.LVL316:
 2922              	.L120:
 2923              		.cfi_restore_state
 795:Middlewares/ST/BlueNRG-2/hci/controller/bluenrg1_gatt_aci.c ****     return BLE_STATUS_TIMEOUT;
 2924              		.loc 1 795 12 view .LVU1037
 2925 005a FF20     		movs	r0, #255
 2926 005c FBE7     		b	.L119
 2927              		.cfi_endproc
 2928              	.LFE157:
 2930              		.section	.text.aci_gatt_disc_char_by_uuid,"ax",%progbits
 2931              		.align	1
 2932              		.global	aci_gatt_disc_char_by_uuid
 2933              		.syntax unified
 2934              		.thumb
 2935              		.thumb_func
 2937              	aci_gatt_disc_char_by_uuid:
 2938              	.LVL317:
 2939              	.LFB158:
 801:Middlewares/ST/BlueNRG-2/hci/controller/bluenrg1_gatt_aci.c **** tBleStatus aci_gatt_disc_char_by_uuid(uint16_t Connection_Handle,
 802:Middlewares/ST/BlueNRG-2/hci/controller/bluenrg1_gatt_aci.c ****                                       uint16_t Start_Handle,
 803:Middlewares/ST/BlueNRG-2/hci/controller/bluenrg1_gatt_aci.c ****                                       uint16_t End_Handle,
 804:Middlewares/ST/BlueNRG-2/hci/controller/bluenrg1_gatt_aci.c ****                                       uint8_t UUID_Type,
 805:Middlewares/ST/BlueNRG-2/hci/controller/bluenrg1_gatt_aci.c ****                                       UUID_t *UUID)
 806:Middlewares/ST/BlueNRG-2/hci/controller/bluenrg1_gatt_aci.c **** {
 2940              		.loc 1 806 1 is_stmt 1 view -0
 2941              		.cfi_startproc
 2942              		@ args = 4, pretend = 0, frame = 288
ARM GAS  C:\Users\IAHERN~1\AppData\Local\Temp\ccP26j2c.s 			page 67


 2943              		@ frame_needed = 0, uses_anonymous_args = 0
 2944              		.loc 1 806 1 is_stmt 0 view .LVU1039
 2945 0000 10B5     		push	{r4, lr}
 2946              		.cfi_def_cfa_offset 8
 2947              		.cfi_offset 4, -8
 2948              		.cfi_offset 14, -4
 2949 0002 C8B0     		sub	sp, sp, #288
 2950              		.cfi_def_cfa_offset 296
 807:Middlewares/ST/BlueNRG-2/hci/controller/bluenrg1_gatt_aci.c ****   struct hci_request rq;
 2951              		.loc 1 807 3 is_stmt 1 view .LVU1040
 808:Middlewares/ST/BlueNRG-2/hci/controller/bluenrg1_gatt_aci.c ****   uint8_t cmd_buffer[258];
 2952              		.loc 1 808 3 view .LVU1041
 809:Middlewares/ST/BlueNRG-2/hci/controller/bluenrg1_gatt_aci.c ****   aci_gatt_disc_char_by_uuid_cp0 *cp0 = (aci_gatt_disc_char_by_uuid_cp0*)(cmd_buffer);
 2953              		.loc 1 809 3 view .LVU1042
 2954              	.LVL318:
 810:Middlewares/ST/BlueNRG-2/hci/controller/bluenrg1_gatt_aci.c ****   tBleStatus status = 0;
 2955              		.loc 1 810 3 view .LVU1043
 2956              		.loc 1 810 14 is_stmt 0 view .LVU1044
 2957 0004 0024     		movs	r4, #0
 2958 0006 8DF80340 		strb	r4, [sp, #3]
 811:Middlewares/ST/BlueNRG-2/hci/controller/bluenrg1_gatt_aci.c ****   uint8_t index_input = 0;
 2959              		.loc 1 811 3 is_stmt 1 view .LVU1045
 2960              	.LVL319:
 812:Middlewares/ST/BlueNRG-2/hci/controller/bluenrg1_gatt_aci.c ****   cp0->Connection_Handle = htob(Connection_Handle, 2);
 2961              		.loc 1 812 3 view .LVU1046
 2962              		.loc 1 812 26 is_stmt 0 view .LVU1047
 2963 000a ADF80400 		strh	r0, [sp, #4]	@ movhi
 813:Middlewares/ST/BlueNRG-2/hci/controller/bluenrg1_gatt_aci.c ****   index_input += 2;
 2964              		.loc 1 813 3 is_stmt 1 view .LVU1048
 2965              	.LVL320:
 814:Middlewares/ST/BlueNRG-2/hci/controller/bluenrg1_gatt_aci.c ****   cp0->Start_Handle = htob(Start_Handle, 2);
 2966              		.loc 1 814 3 view .LVU1049
 2967              		.loc 1 814 21 is_stmt 0 view .LVU1050
 2968 000e ADF80610 		strh	r1, [sp, #6]	@ movhi
 815:Middlewares/ST/BlueNRG-2/hci/controller/bluenrg1_gatt_aci.c ****   index_input += 2;
 2969              		.loc 1 815 3 is_stmt 1 view .LVU1051
 2970              	.LVL321:
 816:Middlewares/ST/BlueNRG-2/hci/controller/bluenrg1_gatt_aci.c ****   cp0->End_Handle = htob(End_Handle, 2);
 2971              		.loc 1 816 3 view .LVU1052
 2972              		.loc 1 816 19 is_stmt 0 view .LVU1053
 2973 0012 ADF80820 		strh	r2, [sp, #8]	@ movhi
 817:Middlewares/ST/BlueNRG-2/hci/controller/bluenrg1_gatt_aci.c ****   index_input += 2;
 2974              		.loc 1 817 3 is_stmt 1 view .LVU1054
 2975              	.LVL322:
 818:Middlewares/ST/BlueNRG-2/hci/controller/bluenrg1_gatt_aci.c ****   cp0->UUID_Type = htob(UUID_Type, 1);
 2976              		.loc 1 818 3 view .LVU1055
 2977              		.loc 1 818 18 is_stmt 0 view .LVU1056
 2978 0016 8DF80A30 		strb	r3, [sp, #10]
 819:Middlewares/ST/BlueNRG-2/hci/controller/bluenrg1_gatt_aci.c ****   index_input += 1;
 2979              		.loc 1 819 3 is_stmt 1 view .LVU1057
 2980              	.LVL323:
 2981              	.LBB19:
 820:Middlewares/ST/BlueNRG-2/hci/controller/bluenrg1_gatt_aci.c ****   /* var_len_data input */
 821:Middlewares/ST/BlueNRG-2/hci/controller/bluenrg1_gatt_aci.c ****   {
 822:Middlewares/ST/BlueNRG-2/hci/controller/bluenrg1_gatt_aci.c ****     uint8_t size;
 2982              		.loc 1 822 5 view .LVU1058
 823:Middlewares/ST/BlueNRG-2/hci/controller/bluenrg1_gatt_aci.c ****     switch (UUID_Type) {
ARM GAS  C:\Users\IAHERN~1\AppData\Local\Temp\ccP26j2c.s 			page 68


 2983              		.loc 1 823 5 view .LVU1059
 2984 001a 012B     		cmp	r3, #1
 2985 001c 03D0     		beq	.L125
 2986 001e 022B     		cmp	r3, #2
 2987 0020 2AD1     		bne	.L126
 824:Middlewares/ST/BlueNRG-2/hci/controller/bluenrg1_gatt_aci.c ****       case 1: size = 2; break;
 825:Middlewares/ST/BlueNRG-2/hci/controller/bluenrg1_gatt_aci.c ****       case 2: size = 16; break;
 2988              		.loc 1 825 20 is_stmt 0 view .LVU1060
 2989 0022 1024     		movs	r4, #16
 2990 0024 00E0     		b	.L123
 2991              	.L125:
 823:Middlewares/ST/BlueNRG-2/hci/controller/bluenrg1_gatt_aci.c ****     switch (UUID_Type) {
 2992              		.loc 1 823 5 view .LVU1061
 2993 0026 0224     		movs	r4, #2
 2994              	.L123:
 2995              	.LVL324:
 826:Middlewares/ST/BlueNRG-2/hci/controller/bluenrg1_gatt_aci.c ****       default: return BLE_STATUS_ERROR;
 827:Middlewares/ST/BlueNRG-2/hci/controller/bluenrg1_gatt_aci.c ****     }
 828:Middlewares/ST/BlueNRG-2/hci/controller/bluenrg1_gatt_aci.c ****     BLUENRG_memcpy((void *) &cp0->UUID, (const void *) UUID, size);
 2996              		.loc 1 828 5 is_stmt 1 view .LVU1062
 2997 0028 2246     		mov	r2, r4
 2998              	.LVL325:
 2999              		.loc 1 828 5 is_stmt 0 view .LVU1063
 3000 002a 4A99     		ldr	r1, [sp, #296]
 3001              	.LVL326:
 3002              		.loc 1 828 5 view .LVU1064
 3003 002c 0DF10B00 		add	r0, sp, #11
 3004              	.LVL327:
 3005              		.loc 1 828 5 view .LVU1065
 3006 0030 FFF7FEFF 		bl	memcpy
 3007              	.LVL328:
 829:Middlewares/ST/BlueNRG-2/hci/controller/bluenrg1_gatt_aci.c ****     index_input += size;
 3008              		.loc 1 829 5 is_stmt 1 view .LVU1066
 3009              		.loc 1 829 17 is_stmt 0 view .LVU1067
 3010 0034 0734     		adds	r4, r4, #7
 3011              	.LVL329:
 3012              		.loc 1 829 17 view .LVU1068
 3013              	.LBE19:
 830:Middlewares/ST/BlueNRG-2/hci/controller/bluenrg1_gatt_aci.c ****   }
 831:Middlewares/ST/BlueNRG-2/hci/controller/bluenrg1_gatt_aci.c ****   BLUENRG_memset(&rq, 0, sizeof(rq));
 3014              		.loc 1 831 3 is_stmt 1 view .LVU1069
 3015 0036 0021     		movs	r1, #0
 3016 0038 4291     		str	r1, [sp, #264]
 3017 003a 4391     		str	r1, [sp, #268]
 3018 003c 4491     		str	r1, [sp, #272]
 3019 003e 4591     		str	r1, [sp, #276]
 3020 0040 4691     		str	r1, [sp, #280]
 3021 0042 4791     		str	r1, [sp, #284]
 832:Middlewares/ST/BlueNRG-2/hci/controller/bluenrg1_gatt_aci.c ****   rq.ogf = 0x3f;
 3022              		.loc 1 832 3 view .LVU1070
 3023              		.loc 1 832 10 is_stmt 0 view .LVU1071
 3024 0044 3F23     		movs	r3, #63
 3025 0046 ADF80831 		strh	r3, [sp, #264]	@ movhi
 833:Middlewares/ST/BlueNRG-2/hci/controller/bluenrg1_gatt_aci.c ****   rq.ocf = 0x116;
 3026              		.loc 1 833 3 is_stmt 1 view .LVU1072
 3027              		.loc 1 833 10 is_stmt 0 view .LVU1073
 3028 004a 4FF48B73 		mov	r3, #278
ARM GAS  C:\Users\IAHERN~1\AppData\Local\Temp\ccP26j2c.s 			page 69


 3029 004e ADF80A31 		strh	r3, [sp, #266]	@ movhi
 834:Middlewares/ST/BlueNRG-2/hci/controller/bluenrg1_gatt_aci.c ****   rq.event = 0x0F;
 3030              		.loc 1 834 3 is_stmt 1 view .LVU1074
 3031              		.loc 1 834 12 is_stmt 0 view .LVU1075
 3032 0052 0F23     		movs	r3, #15
 3033 0054 4393     		str	r3, [sp, #268]
 835:Middlewares/ST/BlueNRG-2/hci/controller/bluenrg1_gatt_aci.c ****   rq.cparam = cmd_buffer;
 3034              		.loc 1 835 3 is_stmt 1 view .LVU1076
 3035              		.loc 1 835 13 is_stmt 0 view .LVU1077
 3036 0056 01AB     		add	r3, sp, #4
 3037              	.LVL330:
 3038              		.loc 1 835 13 view .LVU1078
 3039 0058 4493     		str	r3, [sp, #272]
 836:Middlewares/ST/BlueNRG-2/hci/controller/bluenrg1_gatt_aci.c ****   rq.clen = index_input;
 3040              		.loc 1 836 3 is_stmt 1 view .LVU1079
 3041              		.loc 1 836 11 is_stmt 0 view .LVU1080
 3042 005a 4594     		str	r4, [sp, #276]
 837:Middlewares/ST/BlueNRG-2/hci/controller/bluenrg1_gatt_aci.c ****   rq.rparam = &status;
 3043              		.loc 1 837 3 is_stmt 1 view .LVU1081
 3044              		.loc 1 837 13 is_stmt 0 view .LVU1082
 3045 005c 0DF10303 		add	r3, sp, #3
 3046              	.LVL331:
 3047              		.loc 1 837 13 view .LVU1083
 3048 0060 4693     		str	r3, [sp, #280]
 838:Middlewares/ST/BlueNRG-2/hci/controller/bluenrg1_gatt_aci.c ****   rq.rlen = 1;
 3049              		.loc 1 838 3 is_stmt 1 view .LVU1084
 3050              		.loc 1 838 11 is_stmt 0 view .LVU1085
 3051 0062 0123     		movs	r3, #1
 3052 0064 4793     		str	r3, [sp, #284]
 839:Middlewares/ST/BlueNRG-2/hci/controller/bluenrg1_gatt_aci.c ****   if (hci_send_req(&rq, FALSE) < 0)
 3053              		.loc 1 839 3 is_stmt 1 view .LVU1086
 3054              		.loc 1 839 7 is_stmt 0 view .LVU1087
 3055 0066 42A8     		add	r0, sp, #264
 3056 0068 FFF7FEFF 		bl	hci_send_req
 3057              	.LVL332:
 3058              		.loc 1 839 6 discriminator 1 view .LVU1088
 3059 006c 0028     		cmp	r0, #0
 3060 006e 05DB     		blt	.L127
 840:Middlewares/ST/BlueNRG-2/hci/controller/bluenrg1_gatt_aci.c ****     return BLE_STATUS_TIMEOUT;
 841:Middlewares/ST/BlueNRG-2/hci/controller/bluenrg1_gatt_aci.c ****   if (status) {
 3061              		.loc 1 841 3 is_stmt 1 view .LVU1089
 3062              		.loc 1 841 7 is_stmt 0 view .LVU1090
 3063 0070 9DF80300 		ldrb	r0, [sp, #3]	@ zero_extendqisi2
 3064              	.LVL333:
 3065              	.L124:
 842:Middlewares/ST/BlueNRG-2/hci/controller/bluenrg1_gatt_aci.c ****     return status;
 843:Middlewares/ST/BlueNRG-2/hci/controller/bluenrg1_gatt_aci.c ****   }
 844:Middlewares/ST/BlueNRG-2/hci/controller/bluenrg1_gatt_aci.c ****   return BLE_STATUS_SUCCESS;
 845:Middlewares/ST/BlueNRG-2/hci/controller/bluenrg1_gatt_aci.c **** }
 3066              		.loc 1 845 1 view .LVU1091
 3067 0074 48B0     		add	sp, sp, #288
 3068              		.cfi_remember_state
 3069              		.cfi_def_cfa_offset 8
 3070              		@ sp needed
 3071 0076 10BD     		pop	{r4, pc}
 3072              	.LVL334:
 3073              	.L126:
ARM GAS  C:\Users\IAHERN~1\AppData\Local\Temp\ccP26j2c.s 			page 70


 3074              		.cfi_restore_state
 3075              	.LBB20:
 823:Middlewares/ST/BlueNRG-2/hci/controller/bluenrg1_gatt_aci.c ****       case 1: size = 2; break;
 3076              		.loc 1 823 5 view .LVU1092
 3077 0078 4720     		movs	r0, #71
 3078              	.LVL335:
 823:Middlewares/ST/BlueNRG-2/hci/controller/bluenrg1_gatt_aci.c ****       case 1: size = 2; break;
 3079              		.loc 1 823 5 view .LVU1093
 3080 007a FBE7     		b	.L124
 3081              	.LVL336:
 3082              	.L127:
 823:Middlewares/ST/BlueNRG-2/hci/controller/bluenrg1_gatt_aci.c ****       case 1: size = 2; break;
 3083              		.loc 1 823 5 view .LVU1094
 3084              	.LBE20:
 840:Middlewares/ST/BlueNRG-2/hci/controller/bluenrg1_gatt_aci.c ****     return BLE_STATUS_TIMEOUT;
 3085              		.loc 1 840 12 view .LVU1095
 3086 007c FF20     		movs	r0, #255
 3087 007e F9E7     		b	.L124
 3088              		.cfi_endproc
 3089              	.LFE158:
 3091              		.section	.text.aci_gatt_disc_all_char_desc,"ax",%progbits
 3092              		.align	1
 3093              		.global	aci_gatt_disc_all_char_desc
 3094              		.syntax unified
 3095              		.thumb
 3096              		.thumb_func
 3098              	aci_gatt_disc_all_char_desc:
 3099              	.LVL337:
 3100              	.LFB159:
 846:Middlewares/ST/BlueNRG-2/hci/controller/bluenrg1_gatt_aci.c **** tBleStatus aci_gatt_disc_all_char_desc(uint16_t Connection_Handle,
 847:Middlewares/ST/BlueNRG-2/hci/controller/bluenrg1_gatt_aci.c ****                                        uint16_t Char_Handle,
 848:Middlewares/ST/BlueNRG-2/hci/controller/bluenrg1_gatt_aci.c ****                                        uint16_t End_Handle)
 849:Middlewares/ST/BlueNRG-2/hci/controller/bluenrg1_gatt_aci.c **** {
 3101              		.loc 1 849 1 is_stmt 1 view -0
 3102              		.cfi_startproc
 3103              		@ args = 0, pretend = 0, frame = 288
 3104              		@ frame_needed = 0, uses_anonymous_args = 0
 3105              		.loc 1 849 1 is_stmt 0 view .LVU1097
 3106 0000 30B5     		push	{r4, r5, lr}
 3107              		.cfi_def_cfa_offset 12
 3108              		.cfi_offset 4, -12
 3109              		.cfi_offset 5, -8
 3110              		.cfi_offset 14, -4
 3111 0002 C9B0     		sub	sp, sp, #292
 3112              		.cfi_def_cfa_offset 304
 850:Middlewares/ST/BlueNRG-2/hci/controller/bluenrg1_gatt_aci.c ****   struct hci_request rq;
 3113              		.loc 1 850 3 is_stmt 1 view .LVU1098
 851:Middlewares/ST/BlueNRG-2/hci/controller/bluenrg1_gatt_aci.c ****   uint8_t cmd_buffer[258];
 3114              		.loc 1 851 3 view .LVU1099
 852:Middlewares/ST/BlueNRG-2/hci/controller/bluenrg1_gatt_aci.c ****   aci_gatt_disc_all_char_desc_cp0 *cp0 = (aci_gatt_disc_all_char_desc_cp0*)(cmd_buffer);
 3115              		.loc 1 852 3 view .LVU1100
 3116              	.LVL338:
 853:Middlewares/ST/BlueNRG-2/hci/controller/bluenrg1_gatt_aci.c ****   tBleStatus status = 0;
 3117              		.loc 1 853 3 view .LVU1101
 3118              		.loc 1 853 14 is_stmt 0 view .LVU1102
 3119 0004 0DF10305 		add	r5, sp, #3
 3120 0008 0023     		movs	r3, #0
ARM GAS  C:\Users\IAHERN~1\AppData\Local\Temp\ccP26j2c.s 			page 71


 3121 000a 8DF80330 		strb	r3, [sp, #3]
 854:Middlewares/ST/BlueNRG-2/hci/controller/bluenrg1_gatt_aci.c ****   uint8_t index_input = 0;
 3122              		.loc 1 854 3 is_stmt 1 view .LVU1103
 3123              	.LVL339:
 855:Middlewares/ST/BlueNRG-2/hci/controller/bluenrg1_gatt_aci.c ****   cp0->Connection_Handle = htob(Connection_Handle, 2);
 3124              		.loc 1 855 3 view .LVU1104
 3125              		.loc 1 855 26 is_stmt 0 view .LVU1105
 3126 000e 01AC     		add	r4, sp, #4
 3127              	.LVL340:
 3128              		.loc 1 855 26 view .LVU1106
 3129 0010 ADF80400 		strh	r0, [sp, #4]	@ movhi
 856:Middlewares/ST/BlueNRG-2/hci/controller/bluenrg1_gatt_aci.c ****   index_input += 2;
 3130              		.loc 1 856 3 is_stmt 1 view .LVU1107
 3131              	.LVL341:
 857:Middlewares/ST/BlueNRG-2/hci/controller/bluenrg1_gatt_aci.c ****   cp0->Char_Handle = htob(Char_Handle, 2);
 3132              		.loc 1 857 3 view .LVU1108
 3133              		.loc 1 857 20 is_stmt 0 view .LVU1109
 3134 0014 ADF80610 		strh	r1, [sp, #6]	@ movhi
 858:Middlewares/ST/BlueNRG-2/hci/controller/bluenrg1_gatt_aci.c ****   index_input += 2;
 3135              		.loc 1 858 3 is_stmt 1 view .LVU1110
 3136              	.LVL342:
 859:Middlewares/ST/BlueNRG-2/hci/controller/bluenrg1_gatt_aci.c ****   cp0->End_Handle = htob(End_Handle, 2);
 3137              		.loc 1 859 3 view .LVU1111
 3138              		.loc 1 859 19 is_stmt 0 view .LVU1112
 3139 0018 ADF80820 		strh	r2, [sp, #8]	@ movhi
 860:Middlewares/ST/BlueNRG-2/hci/controller/bluenrg1_gatt_aci.c ****   index_input += 2;
 3140              		.loc 1 860 3 is_stmt 1 view .LVU1113
 3141              	.LVL343:
 861:Middlewares/ST/BlueNRG-2/hci/controller/bluenrg1_gatt_aci.c ****   BLUENRG_memset(&rq, 0, sizeof(rq));
 3142              		.loc 1 861 3 view .LVU1114
 3143 001c 4293     		str	r3, [sp, #264]
 3144 001e 4393     		str	r3, [sp, #268]
 3145 0020 4493     		str	r3, [sp, #272]
 3146 0022 4593     		str	r3, [sp, #276]
 3147 0024 4693     		str	r3, [sp, #280]
 3148 0026 4793     		str	r3, [sp, #284]
 862:Middlewares/ST/BlueNRG-2/hci/controller/bluenrg1_gatt_aci.c ****   rq.ogf = 0x3f;
 3149              		.loc 1 862 3 view .LVU1115
 3150              		.loc 1 862 10 is_stmt 0 view .LVU1116
 3151 0028 3F22     		movs	r2, #63
 3152              	.LVL344:
 3153              		.loc 1 862 10 view .LVU1117
 3154 002a ADF80821 		strh	r2, [sp, #264]	@ movhi
 863:Middlewares/ST/BlueNRG-2/hci/controller/bluenrg1_gatt_aci.c ****   rq.ocf = 0x117;
 3155              		.loc 1 863 3 is_stmt 1 view .LVU1118
 3156              		.loc 1 863 10 is_stmt 0 view .LVU1119
 3157 002e 40F21712 		movw	r2, #279
 3158 0032 ADF80A21 		strh	r2, [sp, #266]	@ movhi
 864:Middlewares/ST/BlueNRG-2/hci/controller/bluenrg1_gatt_aci.c ****   rq.event = 0x0F;
 3159              		.loc 1 864 3 is_stmt 1 view .LVU1120
 3160              		.loc 1 864 12 is_stmt 0 view .LVU1121
 3161 0036 0F22     		movs	r2, #15
 3162 0038 4392     		str	r2, [sp, #268]
 865:Middlewares/ST/BlueNRG-2/hci/controller/bluenrg1_gatt_aci.c ****   rq.cparam = cmd_buffer;
 3163              		.loc 1 865 3 is_stmt 1 view .LVU1122
 3164              		.loc 1 865 13 is_stmt 0 view .LVU1123
 3165 003a 4494     		str	r4, [sp, #272]
ARM GAS  C:\Users\IAHERN~1\AppData\Local\Temp\ccP26j2c.s 			page 72


 866:Middlewares/ST/BlueNRG-2/hci/controller/bluenrg1_gatt_aci.c ****   rq.clen = index_input;
 3166              		.loc 1 866 3 is_stmt 1 view .LVU1124
 3167              		.loc 1 866 11 is_stmt 0 view .LVU1125
 3168 003c 0622     		movs	r2, #6
 3169 003e 4592     		str	r2, [sp, #276]
 867:Middlewares/ST/BlueNRG-2/hci/controller/bluenrg1_gatt_aci.c ****   rq.rparam = &status;
 3170              		.loc 1 867 3 is_stmt 1 view .LVU1126
 3171              		.loc 1 867 13 is_stmt 0 view .LVU1127
 3172 0040 4695     		str	r5, [sp, #280]
 868:Middlewares/ST/BlueNRG-2/hci/controller/bluenrg1_gatt_aci.c ****   rq.rlen = 1;
 3173              		.loc 1 868 3 is_stmt 1 view .LVU1128
 3174              		.loc 1 868 11 is_stmt 0 view .LVU1129
 3175 0042 0122     		movs	r2, #1
 3176 0044 4792     		str	r2, [sp, #284]
 869:Middlewares/ST/BlueNRG-2/hci/controller/bluenrg1_gatt_aci.c ****   if (hci_send_req(&rq, FALSE) < 0)
 3177              		.loc 1 869 3 is_stmt 1 view .LVU1130
 3178              		.loc 1 869 7 is_stmt 0 view .LVU1131
 3179 0046 1946     		mov	r1, r3
 3180              	.LVL345:
 3181              		.loc 1 869 7 view .LVU1132
 3182 0048 42A8     		add	r0, sp, #264
 3183              	.LVL346:
 3184              		.loc 1 869 7 view .LVU1133
 3185 004a FFF7FEFF 		bl	hci_send_req
 3186              	.LVL347:
 3187              		.loc 1 869 6 discriminator 1 view .LVU1134
 3188 004e 0028     		cmp	r0, #0
 3189 0050 03DB     		blt	.L131
 870:Middlewares/ST/BlueNRG-2/hci/controller/bluenrg1_gatt_aci.c ****     return BLE_STATUS_TIMEOUT;
 871:Middlewares/ST/BlueNRG-2/hci/controller/bluenrg1_gatt_aci.c ****   if (status) {
 3190              		.loc 1 871 3 is_stmt 1 view .LVU1135
 3191              		.loc 1 871 7 is_stmt 0 view .LVU1136
 3192 0052 9DF80300 		ldrb	r0, [sp, #3]	@ zero_extendqisi2
 3193              	.L130:
 872:Middlewares/ST/BlueNRG-2/hci/controller/bluenrg1_gatt_aci.c ****     return status;
 873:Middlewares/ST/BlueNRG-2/hci/controller/bluenrg1_gatt_aci.c ****   }
 874:Middlewares/ST/BlueNRG-2/hci/controller/bluenrg1_gatt_aci.c ****   return BLE_STATUS_SUCCESS;
 875:Middlewares/ST/BlueNRG-2/hci/controller/bluenrg1_gatt_aci.c **** }
 3194              		.loc 1 875 1 view .LVU1137
 3195 0056 49B0     		add	sp, sp, #292
 3196              		.cfi_remember_state
 3197              		.cfi_def_cfa_offset 12
 3198              		@ sp needed
 3199 0058 30BD     		pop	{r4, r5, pc}
 3200              	.LVL348:
 3201              	.L131:
 3202              		.cfi_restore_state
 870:Middlewares/ST/BlueNRG-2/hci/controller/bluenrg1_gatt_aci.c ****     return BLE_STATUS_TIMEOUT;
 3203              		.loc 1 870 12 view .LVU1138
 3204 005a FF20     		movs	r0, #255
 3205 005c FBE7     		b	.L130
 3206              		.cfi_endproc
 3207              	.LFE159:
 3209              		.section	.text.aci_gatt_read_char_value,"ax",%progbits
 3210              		.align	1
 3211              		.global	aci_gatt_read_char_value
 3212              		.syntax unified
ARM GAS  C:\Users\IAHERN~1\AppData\Local\Temp\ccP26j2c.s 			page 73


 3213              		.thumb
 3214              		.thumb_func
 3216              	aci_gatt_read_char_value:
 3217              	.LVL349:
 3218              	.LFB160:
 876:Middlewares/ST/BlueNRG-2/hci/controller/bluenrg1_gatt_aci.c **** tBleStatus aci_gatt_read_char_value(uint16_t Connection_Handle,
 877:Middlewares/ST/BlueNRG-2/hci/controller/bluenrg1_gatt_aci.c ****                                     uint16_t Attr_Handle)
 878:Middlewares/ST/BlueNRG-2/hci/controller/bluenrg1_gatt_aci.c **** {
 3219              		.loc 1 878 1 is_stmt 1 view -0
 3220              		.cfi_startproc
 3221              		@ args = 0, pretend = 0, frame = 288
 3222              		@ frame_needed = 0, uses_anonymous_args = 0
 3223              		.loc 1 878 1 is_stmt 0 view .LVU1140
 3224 0000 10B5     		push	{r4, lr}
 3225              		.cfi_def_cfa_offset 8
 3226              		.cfi_offset 4, -8
 3227              		.cfi_offset 14, -4
 3228 0002 C8B0     		sub	sp, sp, #288
 3229              		.cfi_def_cfa_offset 296
 879:Middlewares/ST/BlueNRG-2/hci/controller/bluenrg1_gatt_aci.c ****   struct hci_request rq;
 3230              		.loc 1 879 3 is_stmt 1 view .LVU1141
 880:Middlewares/ST/BlueNRG-2/hci/controller/bluenrg1_gatt_aci.c ****   uint8_t cmd_buffer[258];
 3231              		.loc 1 880 3 view .LVU1142
 881:Middlewares/ST/BlueNRG-2/hci/controller/bluenrg1_gatt_aci.c ****   aci_gatt_read_char_value_cp0 *cp0 = (aci_gatt_read_char_value_cp0*)(cmd_buffer);
 3232              		.loc 1 881 3 view .LVU1143
 3233              	.LVL350:
 882:Middlewares/ST/BlueNRG-2/hci/controller/bluenrg1_gatt_aci.c ****   tBleStatus status = 0;
 3234              		.loc 1 882 3 view .LVU1144
 3235              		.loc 1 882 14 is_stmt 0 view .LVU1145
 3236 0004 0DF10304 		add	r4, sp, #3
 3237 0008 0023     		movs	r3, #0
 3238 000a 8DF80330 		strb	r3, [sp, #3]
 883:Middlewares/ST/BlueNRG-2/hci/controller/bluenrg1_gatt_aci.c ****   uint8_t index_input = 0;
 3239              		.loc 1 883 3 is_stmt 1 view .LVU1146
 3240              	.LVL351:
 884:Middlewares/ST/BlueNRG-2/hci/controller/bluenrg1_gatt_aci.c ****   cp0->Connection_Handle = htob(Connection_Handle, 2);
 3241              		.loc 1 884 3 view .LVU1147
 3242              		.loc 1 884 26 is_stmt 0 view .LVU1148
 3243 000e 01AA     		add	r2, sp, #4
 3244              	.LVL352:
 3245              		.loc 1 884 26 view .LVU1149
 3246 0010 ADF80400 		strh	r0, [sp, #4]	@ movhi
 885:Middlewares/ST/BlueNRG-2/hci/controller/bluenrg1_gatt_aci.c ****   index_input += 2;
 3247              		.loc 1 885 3 is_stmt 1 view .LVU1150
 3248              	.LVL353:
 886:Middlewares/ST/BlueNRG-2/hci/controller/bluenrg1_gatt_aci.c ****   cp0->Attr_Handle = htob(Attr_Handle, 2);
 3249              		.loc 1 886 3 view .LVU1151
 3250              		.loc 1 886 20 is_stmt 0 view .LVU1152
 3251 0014 ADF80610 		strh	r1, [sp, #6]	@ movhi
 887:Middlewares/ST/BlueNRG-2/hci/controller/bluenrg1_gatt_aci.c ****   index_input += 2;
 3252              		.loc 1 887 3 is_stmt 1 view .LVU1153
 3253              	.LVL354:
 888:Middlewares/ST/BlueNRG-2/hci/controller/bluenrg1_gatt_aci.c ****   BLUENRG_memset(&rq, 0, sizeof(rq));
 3254              		.loc 1 888 3 view .LVU1154
 3255 0018 4293     		str	r3, [sp, #264]
 3256 001a 4393     		str	r3, [sp, #268]
 3257 001c 4493     		str	r3, [sp, #272]
ARM GAS  C:\Users\IAHERN~1\AppData\Local\Temp\ccP26j2c.s 			page 74


 3258 001e 4593     		str	r3, [sp, #276]
 3259 0020 4693     		str	r3, [sp, #280]
 3260 0022 4793     		str	r3, [sp, #284]
 889:Middlewares/ST/BlueNRG-2/hci/controller/bluenrg1_gatt_aci.c ****   rq.ogf = 0x3f;
 3261              		.loc 1 889 3 view .LVU1155
 3262              		.loc 1 889 10 is_stmt 0 view .LVU1156
 3263 0024 3F21     		movs	r1, #63
 3264              	.LVL355:
 3265              		.loc 1 889 10 view .LVU1157
 3266 0026 ADF80811 		strh	r1, [sp, #264]	@ movhi
 890:Middlewares/ST/BlueNRG-2/hci/controller/bluenrg1_gatt_aci.c ****   rq.ocf = 0x118;
 3267              		.loc 1 890 3 is_stmt 1 view .LVU1158
 3268              		.loc 1 890 10 is_stmt 0 view .LVU1159
 3269 002a 4FF48C71 		mov	r1, #280
 3270 002e ADF80A11 		strh	r1, [sp, #266]	@ movhi
 891:Middlewares/ST/BlueNRG-2/hci/controller/bluenrg1_gatt_aci.c ****   rq.event = 0x0F;
 3271              		.loc 1 891 3 is_stmt 1 view .LVU1160
 3272              		.loc 1 891 12 is_stmt 0 view .LVU1161
 3273 0032 0F21     		movs	r1, #15
 3274 0034 4391     		str	r1, [sp, #268]
 892:Middlewares/ST/BlueNRG-2/hci/controller/bluenrg1_gatt_aci.c ****   rq.cparam = cmd_buffer;
 3275              		.loc 1 892 3 is_stmt 1 view .LVU1162
 3276              		.loc 1 892 13 is_stmt 0 view .LVU1163
 3277 0036 4492     		str	r2, [sp, #272]
 893:Middlewares/ST/BlueNRG-2/hci/controller/bluenrg1_gatt_aci.c ****   rq.clen = index_input;
 3278              		.loc 1 893 3 is_stmt 1 view .LVU1164
 3279              		.loc 1 893 11 is_stmt 0 view .LVU1165
 3280 0038 0422     		movs	r2, #4
 3281              	.LVL356:
 3282              		.loc 1 893 11 view .LVU1166
 3283 003a 4592     		str	r2, [sp, #276]
 894:Middlewares/ST/BlueNRG-2/hci/controller/bluenrg1_gatt_aci.c ****   rq.rparam = &status;
 3284              		.loc 1 894 3 is_stmt 1 view .LVU1167
 3285              		.loc 1 894 13 is_stmt 0 view .LVU1168
 3286 003c 4694     		str	r4, [sp, #280]
 895:Middlewares/ST/BlueNRG-2/hci/controller/bluenrg1_gatt_aci.c ****   rq.rlen = 1;
 3287              		.loc 1 895 3 is_stmt 1 view .LVU1169
 3288              		.loc 1 895 11 is_stmt 0 view .LVU1170
 3289 003e 0122     		movs	r2, #1
 3290 0040 4792     		str	r2, [sp, #284]
 896:Middlewares/ST/BlueNRG-2/hci/controller/bluenrg1_gatt_aci.c ****   if (hci_send_req(&rq, FALSE) < 0)
 3291              		.loc 1 896 3 is_stmt 1 view .LVU1171
 3292              		.loc 1 896 7 is_stmt 0 view .LVU1172
 3293 0042 1946     		mov	r1, r3
 3294 0044 42A8     		add	r0, sp, #264
 3295              	.LVL357:
 3296              		.loc 1 896 7 view .LVU1173
 3297 0046 FFF7FEFF 		bl	hci_send_req
 3298              	.LVL358:
 3299              		.loc 1 896 6 discriminator 1 view .LVU1174
 3300 004a 0028     		cmp	r0, #0
 3301 004c 03DB     		blt	.L135
 897:Middlewares/ST/BlueNRG-2/hci/controller/bluenrg1_gatt_aci.c ****     return BLE_STATUS_TIMEOUT;
 898:Middlewares/ST/BlueNRG-2/hci/controller/bluenrg1_gatt_aci.c ****   if (status) {
 3302              		.loc 1 898 3 is_stmt 1 view .LVU1175
 3303              		.loc 1 898 7 is_stmt 0 view .LVU1176
 3304 004e 9DF80300 		ldrb	r0, [sp, #3]	@ zero_extendqisi2
ARM GAS  C:\Users\IAHERN~1\AppData\Local\Temp\ccP26j2c.s 			page 75


 3305              	.L134:
 899:Middlewares/ST/BlueNRG-2/hci/controller/bluenrg1_gatt_aci.c ****     return status;
 900:Middlewares/ST/BlueNRG-2/hci/controller/bluenrg1_gatt_aci.c ****   }
 901:Middlewares/ST/BlueNRG-2/hci/controller/bluenrg1_gatt_aci.c ****   return BLE_STATUS_SUCCESS;
 902:Middlewares/ST/BlueNRG-2/hci/controller/bluenrg1_gatt_aci.c **** }
 3306              		.loc 1 902 1 view .LVU1177
 3307 0052 48B0     		add	sp, sp, #288
 3308              		.cfi_remember_state
 3309              		.cfi_def_cfa_offset 8
 3310              		@ sp needed
 3311 0054 10BD     		pop	{r4, pc}
 3312              	.LVL359:
 3313              	.L135:
 3314              		.cfi_restore_state
 897:Middlewares/ST/BlueNRG-2/hci/controller/bluenrg1_gatt_aci.c ****     return BLE_STATUS_TIMEOUT;
 3315              		.loc 1 897 12 view .LVU1178
 3316 0056 FF20     		movs	r0, #255
 3317 0058 FBE7     		b	.L134
 3318              		.cfi_endproc
 3319              	.LFE160:
 3321              		.section	.text.aci_gatt_read_using_char_uuid,"ax",%progbits
 3322              		.align	1
 3323              		.global	aci_gatt_read_using_char_uuid
 3324              		.syntax unified
 3325              		.thumb
 3326              		.thumb_func
 3328              	aci_gatt_read_using_char_uuid:
 3329              	.LVL360:
 3330              	.LFB161:
 903:Middlewares/ST/BlueNRG-2/hci/controller/bluenrg1_gatt_aci.c **** tBleStatus aci_gatt_read_using_char_uuid(uint16_t Connection_Handle,
 904:Middlewares/ST/BlueNRG-2/hci/controller/bluenrg1_gatt_aci.c ****                                          uint16_t Start_Handle,
 905:Middlewares/ST/BlueNRG-2/hci/controller/bluenrg1_gatt_aci.c ****                                          uint16_t End_Handle,
 906:Middlewares/ST/BlueNRG-2/hci/controller/bluenrg1_gatt_aci.c ****                                          uint8_t UUID_Type,
 907:Middlewares/ST/BlueNRG-2/hci/controller/bluenrg1_gatt_aci.c ****                                          UUID_t *UUID)
 908:Middlewares/ST/BlueNRG-2/hci/controller/bluenrg1_gatt_aci.c **** {
 3331              		.loc 1 908 1 is_stmt 1 view -0
 3332              		.cfi_startproc
 3333              		@ args = 4, pretend = 0, frame = 288
 3334              		@ frame_needed = 0, uses_anonymous_args = 0
 3335              		.loc 1 908 1 is_stmt 0 view .LVU1180
 3336 0000 10B5     		push	{r4, lr}
 3337              		.cfi_def_cfa_offset 8
 3338              		.cfi_offset 4, -8
 3339              		.cfi_offset 14, -4
 3340 0002 C8B0     		sub	sp, sp, #288
 3341              		.cfi_def_cfa_offset 296
 909:Middlewares/ST/BlueNRG-2/hci/controller/bluenrg1_gatt_aci.c ****   struct hci_request rq;
 3342              		.loc 1 909 3 is_stmt 1 view .LVU1181
 910:Middlewares/ST/BlueNRG-2/hci/controller/bluenrg1_gatt_aci.c ****   uint8_t cmd_buffer[258];
 3343              		.loc 1 910 3 view .LVU1182
 911:Middlewares/ST/BlueNRG-2/hci/controller/bluenrg1_gatt_aci.c ****   aci_gatt_read_using_char_uuid_cp0 *cp0 = (aci_gatt_read_using_char_uuid_cp0*)(cmd_buffer);
 3344              		.loc 1 911 3 view .LVU1183
 3345              	.LVL361:
 912:Middlewares/ST/BlueNRG-2/hci/controller/bluenrg1_gatt_aci.c ****   tBleStatus status = 0;
 3346              		.loc 1 912 3 view .LVU1184
 3347              		.loc 1 912 14 is_stmt 0 view .LVU1185
 3348 0004 0024     		movs	r4, #0
ARM GAS  C:\Users\IAHERN~1\AppData\Local\Temp\ccP26j2c.s 			page 76


 3349 0006 8DF80340 		strb	r4, [sp, #3]
 913:Middlewares/ST/BlueNRG-2/hci/controller/bluenrg1_gatt_aci.c ****   uint8_t index_input = 0;
 3350              		.loc 1 913 3 is_stmt 1 view .LVU1186
 3351              	.LVL362:
 914:Middlewares/ST/BlueNRG-2/hci/controller/bluenrg1_gatt_aci.c ****   cp0->Connection_Handle = htob(Connection_Handle, 2);
 3352              		.loc 1 914 3 view .LVU1187
 3353              		.loc 1 914 26 is_stmt 0 view .LVU1188
 3354 000a ADF80400 		strh	r0, [sp, #4]	@ movhi
 915:Middlewares/ST/BlueNRG-2/hci/controller/bluenrg1_gatt_aci.c ****   index_input += 2;
 3355              		.loc 1 915 3 is_stmt 1 view .LVU1189
 3356              	.LVL363:
 916:Middlewares/ST/BlueNRG-2/hci/controller/bluenrg1_gatt_aci.c ****   cp0->Start_Handle = htob(Start_Handle, 2);
 3357              		.loc 1 916 3 view .LVU1190
 3358              		.loc 1 916 21 is_stmt 0 view .LVU1191
 3359 000e ADF80610 		strh	r1, [sp, #6]	@ movhi
 917:Middlewares/ST/BlueNRG-2/hci/controller/bluenrg1_gatt_aci.c ****   index_input += 2;
 3360              		.loc 1 917 3 is_stmt 1 view .LVU1192
 3361              	.LVL364:
 918:Middlewares/ST/BlueNRG-2/hci/controller/bluenrg1_gatt_aci.c ****   cp0->End_Handle = htob(End_Handle, 2);
 3362              		.loc 1 918 3 view .LVU1193
 3363              		.loc 1 918 19 is_stmt 0 view .LVU1194
 3364 0012 ADF80820 		strh	r2, [sp, #8]	@ movhi
 919:Middlewares/ST/BlueNRG-2/hci/controller/bluenrg1_gatt_aci.c ****   index_input += 2;
 3365              		.loc 1 919 3 is_stmt 1 view .LVU1195
 3366              	.LVL365:
 920:Middlewares/ST/BlueNRG-2/hci/controller/bluenrg1_gatt_aci.c ****   cp0->UUID_Type = htob(UUID_Type, 1);
 3367              		.loc 1 920 3 view .LVU1196
 3368              		.loc 1 920 18 is_stmt 0 view .LVU1197
 3369 0016 8DF80A30 		strb	r3, [sp, #10]
 921:Middlewares/ST/BlueNRG-2/hci/controller/bluenrg1_gatt_aci.c ****   index_input += 1;
 3370              		.loc 1 921 3 is_stmt 1 view .LVU1198
 3371              	.LVL366:
 3372              	.LBB21:
 922:Middlewares/ST/BlueNRG-2/hci/controller/bluenrg1_gatt_aci.c ****   /* var_len_data input */
 923:Middlewares/ST/BlueNRG-2/hci/controller/bluenrg1_gatt_aci.c ****   {
 924:Middlewares/ST/BlueNRG-2/hci/controller/bluenrg1_gatt_aci.c ****     uint8_t size;
 3373              		.loc 1 924 5 view .LVU1199
 925:Middlewares/ST/BlueNRG-2/hci/controller/bluenrg1_gatt_aci.c ****     switch (UUID_Type) {
 3374              		.loc 1 925 5 view .LVU1200
 3375 001a 012B     		cmp	r3, #1
 3376 001c 03D0     		beq	.L140
 3377 001e 022B     		cmp	r3, #2
 3378 0020 2AD1     		bne	.L141
 926:Middlewares/ST/BlueNRG-2/hci/controller/bluenrg1_gatt_aci.c ****       case 1: size = 2; break;
 927:Middlewares/ST/BlueNRG-2/hci/controller/bluenrg1_gatt_aci.c ****       case 2: size = 16; break;
 3379              		.loc 1 927 20 is_stmt 0 view .LVU1201
 3380 0022 1024     		movs	r4, #16
 3381 0024 00E0     		b	.L138
 3382              	.L140:
 925:Middlewares/ST/BlueNRG-2/hci/controller/bluenrg1_gatt_aci.c ****     switch (UUID_Type) {
 3383              		.loc 1 925 5 view .LVU1202
 3384 0026 0224     		movs	r4, #2
 3385              	.L138:
 3386              	.LVL367:
 928:Middlewares/ST/BlueNRG-2/hci/controller/bluenrg1_gatt_aci.c ****       default: return BLE_STATUS_ERROR;
 929:Middlewares/ST/BlueNRG-2/hci/controller/bluenrg1_gatt_aci.c ****     }
 930:Middlewares/ST/BlueNRG-2/hci/controller/bluenrg1_gatt_aci.c ****     BLUENRG_memcpy((void *) &cp0->UUID, (const void *) UUID, size);
ARM GAS  C:\Users\IAHERN~1\AppData\Local\Temp\ccP26j2c.s 			page 77


 3387              		.loc 1 930 5 is_stmt 1 view .LVU1203
 3388 0028 2246     		mov	r2, r4
 3389              	.LVL368:
 3390              		.loc 1 930 5 is_stmt 0 view .LVU1204
 3391 002a 4A99     		ldr	r1, [sp, #296]
 3392              	.LVL369:
 3393              		.loc 1 930 5 view .LVU1205
