ARM GAS  C:\Users\IAHERN~1\AppData\Local\Temp\ccLwhMtk.s 			page 1


   1              		.cpu cortex-m4
   2              		.arch armv7e-m
   3              		.fpu fpv4-sp-d16
   4              		.eabi_attribute 27, 1
   5              		.eabi_attribute 28, 1
   6              		.eabi_attribute 20, 1
   7              		.eabi_attribute 21, 1
   8              		.eabi_attribute 23, 3
   9              		.eabi_attribute 24, 1
  10              		.eabi_attribute 25, 1
  11              		.eabi_attribute 26, 1
  12              		.eabi_attribute 30, 1
  13              		.eabi_attribute 34, 1
  14              		.eabi_attribute 18, 4
  15              		.file	"kbd_process.c"
  16              		.text
  17              	.Ltext0:
  18              		.cfi_sections	.debug_frame
  19              		.file 1 "Core/Src/kbd_process.c"
  20              		.section	.rodata.hid_keyboard_map.str1.4,"aMS",%progbits,1
  21              		.align	2
  22              	.LC0:
  23 0000 6C6F6F6B 		.ascii	"lookup i>%d charac>%d\015\012\000"
  23      75702069 
  23      3E256420 
  23      63686172 
  23      61633E25 
  24              		.align	2
  25              	.LC1:
  26 0018 52455455 		.ascii	"RETURN\015\000"
  26      524E0D00 
  27              		.align	2
  28              	.LC2:
  29 0020 4241434B 		.ascii	"BACKSPACE\015\000"
  29      53504143 
  29      450D00
  30 002b 00       		.align	2
  31              	.LC3:
  32 002c 53504143 		.ascii	"SPACE\015\000"
  32      450D00
  33 0033 00       		.align	2
  34              	.LC4:
  35 0034 5441420D 		.ascii	"TAB\015\000"
  35      00
  36 0039 000000   		.align	2
  37              	.LC5:
  38 003c 43415053 		.ascii	"CAPS lock\015\000"
  38      206C6F63 
  38      6B0D00
  39              		.section	.text.hid_keyboard_map,"ax",%progbits
  40              		.align	1
  41              		.global	hid_keyboard_map
  42              		.syntax unified
  43              		.thumb
  44              		.thumb_func
  46              	hid_keyboard_map:
  47              	.LVL0:
ARM GAS  C:\Users\IAHERN~1\AppData\Local\Temp\ccLwhMtk.s 			page 2


  48              	.LFB138:
   1:Core/Src/kbd_process.c **** /*
   2:Core/Src/kbd_process.c ****  * keyboard.c
   3:Core/Src/kbd_process.c ****  *
   4:Core/Src/kbd_process.c ****  *  Created on: Jan 25, 2024
   5:Core/Src/kbd_process.c ****  *      Author: smoreno
   6:Core/Src/kbd_process.c ****  */
   7:Core/Src/kbd_process.c **** #include "ble_status.h"
   8:Core/Src/kbd_process.c **** #include "ble_types.h"
   9:Core/Src/kbd_process.c **** #include "kbd_process.h"
  10:Core/Src/kbd_process.c **** #include "services.h"
  11:Core/Src/kbd_process.c **** 
  12:Core/Src/kbd_process.c **** 
  13:Core/Src/kbd_process.c **** extern uint16_t hid_service_handle;
  14:Core/Src/kbd_process.c **** extern uint16_t input_report_char_handle;
  15:Core/Src/kbd_process.c **** 
  16:Core/Src/kbd_process.c **** typedef struct hidValueS {
  17:Core/Src/kbd_process.c ****   uint8_t key;
  18:Core/Src/kbd_process.c ****   uint8_t hid[2];
  19:Core/Src/kbd_process.c **** } hidValueType;
  20:Core/Src/kbd_process.c **** 
  21:Core/Src/kbd_process.c **** hidValueType lookupTable[KEY_TABLE_LEN] = {
  22:Core/Src/kbd_process.c ****   {0x21, {TRUE,  0x1E}},
  23:Core/Src/kbd_process.c ****   {0x22, {TRUE,  0x34}},
  24:Core/Src/kbd_process.c ****   {0x23, {TRUE,  0x20}},
  25:Core/Src/kbd_process.c ****   {0x24, {TRUE,  0x21}},
  26:Core/Src/kbd_process.c ****   {0x25, {TRUE,  0x22}},
  27:Core/Src/kbd_process.c ****   {0x26, {TRUE,  0x24}},
  28:Core/Src/kbd_process.c ****   {0x27, {FALSE, 0x34}},
  29:Core/Src/kbd_process.c ****   {0x28, {TRUE,  0x26}},
  30:Core/Src/kbd_process.c ****   {0x29, {TRUE,  0x27}},
  31:Core/Src/kbd_process.c ****   {0x2A, {TRUE,  0x25}},
  32:Core/Src/kbd_process.c ****   {0x2B, {TRUE,  0x2E}},
  33:Core/Src/kbd_process.c ****   {0x2C, {FALSE, 0x36}},
  34:Core/Src/kbd_process.c ****   {0x2D, {FALSE, 0x2D}},
  35:Core/Src/kbd_process.c ****   {0x2E, {FALSE, 0x37}},
  36:Core/Src/kbd_process.c ****   {0x2F, {FALSE, 0x38}},
  37:Core/Src/kbd_process.c ****   {0x3A, {TRUE,  0x33}},
  38:Core/Src/kbd_process.c ****   {0x3B, {FALSE, 0x33}},
  39:Core/Src/kbd_process.c ****   {0x3C, {TRUE,  0x36}},
  40:Core/Src/kbd_process.c ****   {0x3D, {FALSE, 0x2E}},
  41:Core/Src/kbd_process.c ****   {0x3E, {TRUE,  0x37}},
  42:Core/Src/kbd_process.c ****   {0x3F, {TRUE,  0x38}},
  43:Core/Src/kbd_process.c ****   {0x40, {TRUE,  0x1F}},
  44:Core/Src/kbd_process.c ****   {0x5B, {FALSE, 0x2F}},
  45:Core/Src/kbd_process.c ****   {0x5C, {FALSE, 0x31}},
  46:Core/Src/kbd_process.c ****   {0x5D, {FALSE, 0x30}},
  47:Core/Src/kbd_process.c ****   {0x5E, {TRUE,  0x23}},
  48:Core/Src/kbd_process.c ****   {0x5F, {TRUE,  0x2D}},
  49:Core/Src/kbd_process.c ****   {0x60, {FALSE, 0x35}},
  50:Core/Src/kbd_process.c ****   {0x7B, {TRUE,  0x2F}},
  51:Core/Src/kbd_process.c ****   {0x7C, {TRUE,  0x31}},
  52:Core/Src/kbd_process.c ****   {0x7D, {TRUE,  0x30}},
  53:Core/Src/kbd_process.c ****   {0x7E, {TRUE,  0x35}},
  54:Core/Src/kbd_process.c ****   {0x7F, {FALSE, 0x4C}},
  55:Core/Src/kbd_process.c **** };
  56:Core/Src/kbd_process.c **** 
ARM GAS  C:\Users\IAHERN~1\AppData\Local\Temp\ccLwhMtk.s 			page 3


  57:Core/Src/kbd_process.c **** 
  58:Core/Src/kbd_process.c **** void processInputData(uint8_t* data_buffer, uint8_t Nb_bytes)
  59:Core/Src/kbd_process.c **** {
  60:Core/Src/kbd_process.c ****   uint8_t ret, i, upperCase, nmbTimes, keys[8]={0,0,0,0,0,0,0,0};
  61:Core/Src/kbd_process.c ****   //Check if device is connected, bonded and paired
  62:Core/Src/kbd_process.c ****   uint8_t offset=2;
  63:Core/Src/kbd_process.c ****   if (HID_DEVICE_READY_TO_NOTIFY) {
  64:Core/Src/kbd_process.c ****     for (i=0; i<Nb_bytes; i++) {
  65:Core/Src/kbd_process.c ****       keys[offset] = hid_keyboard_map(data_buffer[i], &upperCase);
  66:Core/Src/kbd_process.c ****       if (upperCase)
  67:Core/Src/kbd_process.c ****     keys[0] = 0x02;
  68:Core/Src/kbd_process.c ****       else
  69:Core/Src/kbd_process.c ****     keys[0] = 0x00;
  70:Core/Src/kbd_process.c ****       ret = hidSendReport(0, INPUT_REPORT, sizeof(keys), keys);
  71:Core/Src/kbd_process.c ****       if (ret != BLE_STATUS_SUCCESS)
  72:Core/Src/kbd_process.c ****         BLUENRG_PRINTF("Error during send the report %02x\n", ret);
  73:Core/Src/kbd_process.c ****       keys[0] = 0;
  74:Core/Src/kbd_process.c ****       keys[offset] = 0;
  75:Core/Src/kbd_process.c ****       nmbTimes = 0;
  76:Core/Src/kbd_process.c ****       do {
  77:Core/Src/kbd_process.c ****     ret = hidSendReport(0, INPUT_REPORT, sizeof(keys), keys);
  78:Core/Src/kbd_process.c ****         nmbTimes++;
  79:Core/Src/kbd_process.c ****       } while ((ret != BLE_STATUS_SUCCESS) && (nmbTimes < 200));
  80:Core/Src/kbd_process.c ****     }
  81:Core/Src/kbd_process.c ****   }
  82:Core/Src/kbd_process.c **** }
  83:Core/Src/kbd_process.c **** 
  84:Core/Src/kbd_process.c **** 
  85:Core/Src/kbd_process.c **** 
  86:Core/Src/kbd_process.c **** uint8_t hid_keyboard_map(uint8_t charac, uint8_t *upperCase)
  87:Core/Src/kbd_process.c **** {
  49              		.loc 1 87 1 view -0
  50              		.cfi_startproc
  51              		@ args = 0, pretend = 0, frame = 0
  52              		@ frame_needed = 0, uses_anonymous_args = 0
  53              		.loc 1 87 1 is_stmt 0 view .LVU1
  54 0000 70B5     		push	{r4, r5, r6, lr}
  55              		.cfi_def_cfa_offset 16
  56              		.cfi_offset 4, -16
  57              		.cfi_offset 5, -12
  58              		.cfi_offset 6, -8
  59              		.cfi_offset 14, -4
  60 0002 0446     		mov	r4, r0
  61 0004 0E46     		mov	r6, r1
  88:Core/Src/kbd_process.c **** 	printf("*");
  62              		.loc 1 88 2 is_stmt 1 view .LVU2
  63 0006 2A20     		movs	r0, #42
  64              	.LVL1:
  65              		.loc 1 88 2 is_stmt 0 view .LVU3
  66 0008 FFF7FEFF 		bl	putchar
  67              	.LVL2:
  89:Core/Src/kbd_process.c ****   uint8_t hidValue, i;
  68              		.loc 1 89 3 is_stmt 1 view .LVU4
  90:Core/Src/kbd_process.c **** 
  91:Core/Src/kbd_process.c ****   hidValue = 0;
  69              		.loc 1 91 3 view .LVU5
  92:Core/Src/kbd_process.c ****   *upperCase = FALSE;
ARM GAS  C:\Users\IAHERN~1\AppData\Local\Temp\ccLwhMtk.s 			page 4


  70              		.loc 1 92 3 view .LVU6
  71              		.loc 1 92 14 is_stmt 0 view .LVU7
  72 000c 0023     		movs	r3, #0
  73 000e 3370     		strb	r3, [r6]
  93:Core/Src/kbd_process.c **** 
  94:Core/Src/kbd_process.c **** 
  95:Core/Src/kbd_process.c ****   //Handles numbers (0-9)
  96:Core/Src/kbd_process.c ****   if ((charac >= NUM_0) && (charac <= NUM_9)) {
  74              		.loc 1 96 3 is_stmt 1 view .LVU8
  75              		.loc 1 96 25 is_stmt 0 view .LVU9
  76 0010 A4F13003 		sub	r3, r4, #48
  77 0014 DBB2     		uxtb	r3, r3
  78              		.loc 1 96 6 view .LVU10
  79 0016 092B     		cmp	r3, #9
  80 0018 04D8     		bhi	.L15
  97:Core/Src/kbd_process.c ****     hidValue = charac - 0x30; //0x30 = 48 dec = 0 ASCII
  81              		.loc 1 97 5 is_stmt 1 view .LVU11
  82              	.LVL3:
  98:Core/Src/kbd_process.c ****     if (hidValue == 0)
  83              		.loc 1 98 5 view .LVU12
  84              		.loc 1 98 8 is_stmt 0 view .LVU13
  85 001a 43B3     		cbz	r3, .L16
  99:Core/Src/kbd_process.c ****       hidValue = 0x27; //0x27 = 39 dec = ' ASCII
 100:Core/Src/kbd_process.c ****     else
 101:Core/Src/kbd_process.c ****       hidValue += 0x1D; //0x1D = 29 dec = [GROUP SEPARATOR] ASCII
  86              		.loc 1 101 7 is_stmt 1 view .LVU14
  87              		.loc 1 101 16 is_stmt 0 view .LVU15
  88 001c A4F11305 		sub	r5, r4, #19
  89 0020 EDB2     		uxtb	r5, r5
  90              	.LVL4:
  91              		.loc 1 101 16 view .LVU16
  92 0022 00E0     		b	.L2
  93              	.LVL5:
  94              	.L15:
  91:Core/Src/kbd_process.c ****   *upperCase = FALSE;
  95              		.loc 1 91 12 view .LVU17
  96 0024 0025     		movs	r5, #0
  97              	.LVL6:
  98              	.L2:
 102:Core/Src/kbd_process.c ****   }
 103:Core/Src/kbd_process.c **** 
 104:Core/Src/kbd_process.c **** 
 105:Core/Src/kbd_process.c ****   //Handles upper cases (A-Z, 0x41-0x5A)
 106:Core/Src/kbd_process.c ****   if ((charac >= CHAR_A)  && (charac <= CHAR_Z)) {
  99              		.loc 1 106 3 is_stmt 1 view .LVU18
 100              		.loc 1 106 27 is_stmt 0 view .LVU19
 101 0026 A4F14103 		sub	r3, r4, #65
 102 002a DBB2     		uxtb	r3, r3
 103              		.loc 1 106 6 view .LVU20
 104 002c 192B     		cmp	r3, #25
 105 002e 04D8     		bhi	.L3
 107:Core/Src/kbd_process.c ****     hidValue = charac - 0x41 + 0x04;
 106              		.loc 1 107 5 is_stmt 1 view .LVU21
 107              		.loc 1 107 14 is_stmt 0 view .LVU22
 108 0030 A4F13D05 		sub	r5, r4, #61
 109              	.LVL7:
 110              		.loc 1 107 14 view .LVU23
ARM GAS  C:\Users\IAHERN~1\AppData\Local\Temp\ccLwhMtk.s 			page 5


 111 0034 EDB2     		uxtb	r5, r5
 112              	.LVL8:
 108:Core/Src/kbd_process.c ****     *upperCase = TRUE;
 113              		.loc 1 108 5 is_stmt 1 view .LVU24
 114              		.loc 1 108 16 is_stmt 0 view .LVU25
 115 0036 0123     		movs	r3, #1
 116 0038 3370     		strb	r3, [r6]
 117              	.L3:
 109:Core/Src/kbd_process.c ****   }
 110:Core/Src/kbd_process.c **** 
 111:Core/Src/kbd_process.c ****   //Handles down cases (a-z, 0x61-0x7A)
 112:Core/Src/kbd_process.c ****   if ((charac >= CHAR_a)  && (charac <= CHAR_z)) {
 118              		.loc 1 112 3 is_stmt 1 view .LVU26
 119              		.loc 1 112 27 is_stmt 0 view .LVU27
 120 003a A4F16103 		sub	r3, r4, #97
 121 003e DBB2     		uxtb	r3, r3
 122              		.loc 1 112 6 view .LVU28
 123 0040 192B     		cmp	r3, #25
 124 0042 22D8     		bhi	.L17
 113:Core/Src/kbd_process.c ****     hidValue = charac - 0x61 + 0x04;
 125              		.loc 1 113 5 is_stmt 1 view .LVU29
 126              		.loc 1 113 14 is_stmt 0 view .LVU30
 127 0044 A4F15D05 		sub	r5, r4, #93
 128              	.LVL9:
 129              		.loc 1 113 14 view .LVU31
 130 0048 EDB2     		uxtb	r5, r5
 131              	.LVL10:
 132              	.L5:
 114:Core/Src/kbd_process.c ****   }
 115:Core/Src/kbd_process.c ****   //
 116:Core/Src/kbd_process.c ****   else
 117:Core/Src/kbd_process.c ****   {
 118:Core/Src/kbd_process.c ****     for (i=0; i<KEY_TABLE_LEN; i++) {
 119:Core/Src/kbd_process.c ****       if (lookupTable[i].key == charac) {
 120:Core/Src/kbd_process.c ****         *upperCase = lookupTable[i].hid[0];
 121:Core/Src/kbd_process.c ****         hidValue = lookupTable[i].hid[1];
 122:Core/Src/kbd_process.c ****         printf("lookup i>%d charac>%d\r\n",i,charac);
 123:Core/Src/kbd_process.c ****         break;
 124:Core/Src/kbd_process.c ****       }
 125:Core/Src/kbd_process.c ****     }
 126:Core/Src/kbd_process.c ****   }
 127:Core/Src/kbd_process.c **** 
 128:Core/Src/kbd_process.c ****   switch(charac) {
 133              		.loc 1 128 3 is_stmt 1 view .LVU32
 134 004a 083C     		subs	r4, r4, #8
 135              	.LVL11:
 136              		.loc 1 128 3 is_stmt 0 view .LVU33
 137 004c 182C     		cmp	r4, #24
 138 004e 2CD8     		bhi	.L8
 139 0050 DFE804F0 		tbb	[pc, r4]
 140              	.L10:
 141 0054 2D       		.byte	(.L14-.L10)/2
 142 0055 37       		.byte	(.L13-.L10)/2
 143 0056 2B       		.byte	(.L8-.L10)/2
 144 0057 2B       		.byte	(.L8-.L10)/2
 145 0058 2B       		.byte	(.L8-.L10)/2
 146 0059 27       		.byte	(.L12-.L10)/2
ARM GAS  C:\Users\IAHERN~1\AppData\Local\Temp\ccLwhMtk.s 			page 6


 147 005a 2B       		.byte	(.L8-.L10)/2
 148 005b 2B       		.byte	(.L8-.L10)/2
 149 005c 3C       		.byte	(.L11-.L10)/2
 150 005d 2B       		.byte	(.L8-.L10)/2
 151 005e 2B       		.byte	(.L8-.L10)/2
 152 005f 2B       		.byte	(.L8-.L10)/2
 153 0060 2B       		.byte	(.L8-.L10)/2
 154 0061 2B       		.byte	(.L8-.L10)/2
 155 0062 2B       		.byte	(.L8-.L10)/2
 156 0063 2B       		.byte	(.L8-.L10)/2
 157 0064 2B       		.byte	(.L8-.L10)/2
 158 0065 2B       		.byte	(.L8-.L10)/2
 159 0066 2B       		.byte	(.L8-.L10)/2
 160 0067 2B       		.byte	(.L8-.L10)/2
 161 0068 2B       		.byte	(.L8-.L10)/2
 162 0069 2B       		.byte	(.L8-.L10)/2
 163 006a 2B       		.byte	(.L8-.L10)/2
 164 006b 2B       		.byte	(.L8-.L10)/2
 165 006c 32       		.byte	(.L9-.L10)/2
 166              	.LVL12:
 167 006d 00       		.p2align 1
 168              	.L16:
  99:Core/Src/kbd_process.c ****     else
 169              		.loc 1 99 16 view .LVU34
 170 006e 2725     		movs	r5, #39
 171 0070 D9E7     		b	.L2
 172              	.LVL13:
 173              	.L20:
 120:Core/Src/kbd_process.c ****         hidValue = lookupTable[i].hid[1];
 174              		.loc 1 120 9 is_stmt 1 view .LVU35
 120:Core/Src/kbd_process.c ****         hidValue = lookupTable[i].hid[1];
 175              		.loc 1 120 40 is_stmt 0 view .LVU36
 176 0072 01EB4102 		add	r2, r1, r1, lsl #1
 177 0076 184B     		ldr	r3, .L21
 178 0078 1344     		add	r3, r3, r2
 179 007a 5A78     		ldrb	r2, [r3, #1]	@ zero_extendqisi2
 120:Core/Src/kbd_process.c ****         hidValue = lookupTable[i].hid[1];
 180              		.loc 1 120 20 view .LVU37
 181 007c 3270     		strb	r2, [r6]
 121:Core/Src/kbd_process.c ****         printf("lookup i>%d charac>%d\r\n",i,charac);
 182              		.loc 1 121 9 is_stmt 1 view .LVU38
 121:Core/Src/kbd_process.c ****         printf("lookup i>%d charac>%d\r\n",i,charac);
 183              		.loc 1 121 18 is_stmt 0 view .LVU39
 184 007e 9D78     		ldrb	r5, [r3, #2]	@ zero_extendqisi2
 185              	.LVL14:
 122:Core/Src/kbd_process.c ****         break;
 186              		.loc 1 122 9 is_stmt 1 view .LVU40
 187 0080 2246     		mov	r2, r4
 188 0082 1648     		ldr	r0, .L21+4
 189 0084 FFF7FEFF 		bl	printf
 190              	.LVL15:
 123:Core/Src/kbd_process.c ****       }
 191              		.loc 1 123 9 view .LVU41
 192 0088 DFE7     		b	.L5
 193              	.LVL16:
 194              	.L17:
 118:Core/Src/kbd_process.c ****       if (lookupTable[i].key == charac) {
ARM GAS  C:\Users\IAHERN~1\AppData\Local\Temp\ccLwhMtk.s 			page 7


 195              		.loc 1 118 11 is_stmt 0 view .LVU42
 196 008a 0021     		movs	r1, #0
 197              	.L4:
 198              	.LVL17:
 118:Core/Src/kbd_process.c ****       if (lookupTable[i].key == charac) {
 199              		.loc 1 118 16 is_stmt 1 discriminator 1 view .LVU43
 200 008c 2029     		cmp	r1, #32
 201 008e DCD8     		bhi	.L5
 119:Core/Src/kbd_process.c ****         *upperCase = lookupTable[i].hid[0];
 202              		.loc 1 119 7 view .LVU44
 119:Core/Src/kbd_process.c ****         *upperCase = lookupTable[i].hid[0];
 203              		.loc 1 119 25 is_stmt 0 view .LVU45
 204 0090 01EB4103 		add	r3, r1, r1, lsl #1
 205 0094 104A     		ldr	r2, .L21
 206 0096 D35C     		ldrb	r3, [r2, r3]	@ zero_extendqisi2
 119:Core/Src/kbd_process.c ****         *upperCase = lookupTable[i].hid[0];
 207              		.loc 1 119 10 view .LVU46
 208 0098 A342     		cmp	r3, r4
 209 009a EAD0     		beq	.L20
 118:Core/Src/kbd_process.c ****       if (lookupTable[i].key == charac) {
 210              		.loc 1 118 33 is_stmt 1 discriminator 2 view .LVU47
 211 009c 0131     		adds	r1, r1, #1
 212              	.LVL18:
 118:Core/Src/kbd_process.c ****       if (lookupTable[i].key == charac) {
 213              		.loc 1 118 33 is_stmt 0 discriminator 2 view .LVU48
 214 009e C9B2     		uxtb	r1, r1
 215              	.LVL19:
 118:Core/Src/kbd_process.c ****       if (lookupTable[i].key == charac) {
 216              		.loc 1 118 33 discriminator 2 view .LVU49
 217 00a0 F4E7     		b	.L4
 218              	.LVL20:
 219              	.L12:
 129:Core/Src/kbd_process.c ****   case RETURN:
 130:Core/Src/kbd_process.c ****     hidValue = 0x28;
 220              		.loc 1 130 5 is_stmt 1 view .LVU50
 131:Core/Src/kbd_process.c ****     printf("RETURN\r\n");
 221              		.loc 1 131 5 view .LVU51
 222 00a2 0F48     		ldr	r0, .L21+8
 223 00a4 FFF7FEFF 		bl	puts
 224              	.LVL21:
 132:Core/Src/kbd_process.c ****     break;
 225              		.loc 1 132 5 view .LVU52
 130:Core/Src/kbd_process.c ****     printf("RETURN\r\n");
 226              		.loc 1 130 14 is_stmt 0 view .LVU53
 227 00a8 2825     		movs	r5, #40
 228              	.LVL22:
 229              	.L8:
 133:Core/Src/kbd_process.c ****   case BACKSPACE:
 134:Core/Src/kbd_process.c ****     hidValue = 0x02A;
 135:Core/Src/kbd_process.c ****     printf("BACKSPACE\r\n");
 136:Core/Src/kbd_process.c ****     break;
 137:Core/Src/kbd_process.c ****   case SPACE:
 138:Core/Src/kbd_process.c ****     hidValue = 0x2C;
 139:Core/Src/kbd_process.c ****     printf("SPACE\r\n");
 140:Core/Src/kbd_process.c ****     break;
 141:Core/Src/kbd_process.c ****   case TAB:
 142:Core/Src/kbd_process.c ****     hidValue = 0x2B;
ARM GAS  C:\Users\IAHERN~1\AppData\Local\Temp\ccLwhMtk.s 			page 8


 143:Core/Src/kbd_process.c ****     printf("TAB\r\n");
 144:Core/Src/kbd_process.c ****     break;
 145:Core/Src/kbd_process.c ****   case 0x10:
 146:Core/Src/kbd_process.c ****     hidValue = 0x39;
 147:Core/Src/kbd_process.c ****     printf("CAPS lock\r\n");
 148:Core/Src/kbd_process.c ****   } 
 149:Core/Src/kbd_process.c **** 
 150:Core/Src/kbd_process.c ****   return hidValue;
 230              		.loc 1 150 3 is_stmt 1 view .LVU54
 151:Core/Src/kbd_process.c **** }
 231              		.loc 1 151 1 is_stmt 0 view .LVU55
 232 00aa 2846     		mov	r0, r5
 233 00ac 70BD     		pop	{r4, r5, r6, pc}
 234              	.LVL23:
 235              	.L14:
 134:Core/Src/kbd_process.c ****     printf("BACKSPACE\r\n");
 236              		.loc 1 134 5 is_stmt 1 view .LVU56
 135:Core/Src/kbd_process.c ****     break;
 237              		.loc 1 135 5 view .LVU57
 238 00ae 0D48     		ldr	r0, .L21+12
 239 00b0 FFF7FEFF 		bl	puts
 240              	.LVL24:
 136:Core/Src/kbd_process.c ****   case SPACE:
 241              		.loc 1 136 5 view .LVU58
 134:Core/Src/kbd_process.c ****     printf("BACKSPACE\r\n");
 242              		.loc 1 134 14 is_stmt 0 view .LVU59
 243 00b4 2A25     		movs	r5, #42
 136:Core/Src/kbd_process.c ****   case SPACE:
 244              		.loc 1 136 5 view .LVU60
 245 00b6 F8E7     		b	.L8
 246              	.LVL25:
 247              	.L9:
 138:Core/Src/kbd_process.c ****     printf("SPACE\r\n");
 248              		.loc 1 138 5 is_stmt 1 view .LVU61
 139:Core/Src/kbd_process.c ****     break;
 249              		.loc 1 139 5 view .LVU62
 250 00b8 0B48     		ldr	r0, .L21+16
 251 00ba FFF7FEFF 		bl	puts
 252              	.LVL26:
 140:Core/Src/kbd_process.c ****   case TAB:
 253              		.loc 1 140 5 view .LVU63
 138:Core/Src/kbd_process.c ****     printf("SPACE\r\n");
 254              		.loc 1 138 14 is_stmt 0 view .LVU64
 255 00be 2C25     		movs	r5, #44
 140:Core/Src/kbd_process.c ****   case TAB:
 256              		.loc 1 140 5 view .LVU65
 257 00c0 F3E7     		b	.L8
 258              	.LVL27:
 259              	.L13:
 142:Core/Src/kbd_process.c ****     printf("TAB\r\n");
 260              		.loc 1 142 5 is_stmt 1 view .LVU66
 143:Core/Src/kbd_process.c ****     break;
 261              		.loc 1 143 5 view .LVU67
 262 00c2 0A48     		ldr	r0, .L21+20
 263 00c4 FFF7FEFF 		bl	puts
 264              	.LVL28:
 144:Core/Src/kbd_process.c ****   case 0x10:
ARM GAS  C:\Users\IAHERN~1\AppData\Local\Temp\ccLwhMtk.s 			page 9


 265              		.loc 1 144 5 view .LVU68
 142:Core/Src/kbd_process.c ****     printf("TAB\r\n");
 266              		.loc 1 142 14 is_stmt 0 view .LVU69
 267 00c8 2B25     		movs	r5, #43
 144:Core/Src/kbd_process.c ****   case 0x10:
 268              		.loc 1 144 5 view .LVU70
 269 00ca EEE7     		b	.L8
 270              	.LVL29:
 271              	.L11:
 146:Core/Src/kbd_process.c ****     printf("CAPS lock\r\n");
 272              		.loc 1 146 5 is_stmt 1 view .LVU71
 147:Core/Src/kbd_process.c ****   } 
 273              		.loc 1 147 5 view .LVU72
 274 00cc 0848     		ldr	r0, .L21+24
 275 00ce FFF7FEFF 		bl	puts
 276              	.LVL30:
 146:Core/Src/kbd_process.c ****     printf("CAPS lock\r\n");
 277              		.loc 1 146 14 is_stmt 0 view .LVU73
 278 00d2 3925     		movs	r5, #57
 279 00d4 E9E7     		b	.L8
 280              	.L22:
 281 00d6 00BF     		.align	2
 282              	.L21:
 283 00d8 00000000 		.word	lookupTable
 284 00dc 00000000 		.word	.LC0
 285 00e0 18000000 		.word	.LC1
 286 00e4 20000000 		.word	.LC2
 287 00e8 2C000000 		.word	.LC3
 288 00ec 34000000 		.word	.LC4
 289 00f0 3C000000 		.word	.LC5
 290              		.cfi_endproc
 291              	.LFE138:
 293              		.section	.rodata.hidSendReport.str1.4,"aMS",%progbits,1
 294              		.align	2
 295              	.LC6:
 296 0000 53692073 		.ascii	"Si se pudo!!!!! :) \015\000"
 296      65207075 
 296      646F2121 
 296      21212120 
 296      3A29200D 
 297              		.section	.text.hidSendReport,"ax",%progbits
 298              		.align	1
 299              		.global	hidSendReport
 300              		.syntax unified
 301              		.thumb
 302              		.thumb_func
 304              	hidSendReport:
 305              	.LVL31:
 306              	.LFB139:
 152:Core/Src/kbd_process.c **** 
 153:Core/Src/kbd_process.c **** 
 154:Core/Src/kbd_process.c **** uint8_t hidSendReport(uint8_t id, uint8_t type, uint8_t reportLen, uint8_t *reportData)
 155:Core/Src/kbd_process.c **** {
 307              		.loc 1 155 1 is_stmt 1 view -0
 308              		.cfi_startproc
 309              		@ args = 0, pretend = 0, frame = 0
 310              		@ frame_needed = 0, uses_anonymous_args = 0
ARM GAS  C:\Users\IAHERN~1\AppData\Local\Temp\ccLwhMtk.s 			page 10


 311              		.loc 1 155 1 is_stmt 0 view .LVU75
 312 0000 10B5     		push	{r4, lr}
 313              		.cfi_def_cfa_offset 8
 314              		.cfi_offset 4, -8
 315              		.cfi_offset 14, -4
 316 0002 82B0     		sub	sp, sp, #8
 317              		.cfi_def_cfa_offset 16
 156:Core/Src/kbd_process.c **** 	uint8_t ret = aci_gatt_update_char_value(hid_service_handle,input_report_char_handle,0,reportLen,r
 318              		.loc 1 156 2 is_stmt 1 view .LVU76
 319              		.loc 1 156 16 is_stmt 0 view .LVU77
 320 0004 0093     		str	r3, [sp]
 321 0006 1346     		mov	r3, r2
 322              	.LVL32:
 323              		.loc 1 156 16 view .LVU78
 324 0008 0022     		movs	r2, #0
 325              	.LVL33:
 326              		.loc 1 156 16 view .LVU79
 327 000a 0749     		ldr	r1, .L27
 328              	.LVL34:
 329              		.loc 1 156 16 view .LVU80
 330 000c 0988     		ldrh	r1, [r1]
 331 000e 0748     		ldr	r0, .L27+4
 332              	.LVL35:
 333              		.loc 1 156 16 view .LVU81
 334 0010 0088     		ldrh	r0, [r0]
 335 0012 FFF7FEFF 		bl	aci_gatt_update_char_value
 336              	.LVL36:
 157:Core/Src/kbd_process.c **** 	if (ret==BLE_STATUS_SUCCESS)
 337              		.loc 1 157 2 is_stmt 1 view .LVU82
 338              		.loc 1 157 5 is_stmt 0 view .LVU83
 339 0016 0446     		mov	r4, r0
 340 0018 10B1     		cbz	r0, .L26
 341              	.LVL37:
 342              	.L24:
 158:Core/Src/kbd_process.c **** 	{
 159:Core/Src/kbd_process.c **** 		BLUENRG_PRINTF("Si se pudo!!!!! :) \r\n");
 160:Core/Src/kbd_process.c **** 	}
 161:Core/Src/kbd_process.c ****     return ret;
 343              		.loc 1 161 5 is_stmt 1 view .LVU84
 162:Core/Src/kbd_process.c **** }
 344              		.loc 1 162 1 is_stmt 0 view .LVU85
 345 001a 2046     		mov	r0, r4
 346 001c 02B0     		add	sp, sp, #8
 347              		.cfi_remember_state
 348              		.cfi_def_cfa_offset 8
 349              		@ sp needed
 350 001e 10BD     		pop	{r4, pc}
 351              	.LVL38:
 352              	.L26:
 353              		.cfi_restore_state
 159:Core/Src/kbd_process.c **** 	}
 354              		.loc 1 159 3 is_stmt 1 view .LVU86
 355 0020 0348     		ldr	r0, .L27+8
 356              	.LVL39:
 159:Core/Src/kbd_process.c **** 	}
 357              		.loc 1 159 3 is_stmt 0 view .LVU87
 358 0022 FFF7FEFF 		bl	puts
ARM GAS  C:\Users\IAHERN~1\AppData\Local\Temp\ccLwhMtk.s 			page 11


 359              	.LVL40:
 360 0026 F8E7     		b	.L24
 361              	.L28:
 362              		.align	2
 363              	.L27:
 364 0028 00000000 		.word	input_report_char_handle
 365 002c 00000000 		.word	hid_service_handle
 366 0030 00000000 		.word	.LC6
 367              		.cfi_endproc
 368              	.LFE139:
 370              		.section	.rodata.processInputData.str1.4,"aMS",%progbits,1
 371              		.align	2
 372              	.LC7:
 373 0000 4572726F 		.ascii	"Error during send the report %02x\012\000"
 373      72206475 
 373      72696E67 
 373      2073656E 
 373      64207468 
 374              		.section	.text.processInputData,"ax",%progbits
 375              		.align	1
 376              		.global	processInputData
 377              		.syntax unified
 378              		.thumb
 379              		.thumb_func
 381              	processInputData:
 382              	.LVL41:
 383              	.LFB137:
  59:Core/Src/kbd_process.c ****   uint8_t ret, i, upperCase, nmbTimes, keys[8]={0,0,0,0,0,0,0,0};
 384              		.loc 1 59 1 is_stmt 1 view -0
 385              		.cfi_startproc
 386              		@ args = 0, pretend = 0, frame = 16
 387              		@ frame_needed = 0, uses_anonymous_args = 0
  59:Core/Src/kbd_process.c ****   uint8_t ret, i, upperCase, nmbTimes, keys[8]={0,0,0,0,0,0,0,0};
 388              		.loc 1 59 1 is_stmt 0 view .LVU89
 389 0000 F0B5     		push	{r4, r5, r6, r7, lr}
 390              		.cfi_def_cfa_offset 20
 391              		.cfi_offset 4, -20
 392              		.cfi_offset 5, -16
 393              		.cfi_offset 6, -12
 394              		.cfi_offset 7, -8
 395              		.cfi_offset 14, -4
 396 0002 85B0     		sub	sp, sp, #20
 397              		.cfi_def_cfa_offset 40
 398 0004 0746     		mov	r7, r0
 399 0006 0E46     		mov	r6, r1
  60:Core/Src/kbd_process.c ****   //Check if device is connected, bonded and paired
 400              		.loc 1 60 3 is_stmt 1 view .LVU90
  60:Core/Src/kbd_process.c ****   //Check if device is connected, bonded and paired
 401              		.loc 1 60 40 is_stmt 0 view .LVU91
 402 0008 0025     		movs	r5, #0
 403 000a 0195     		str	r5, [sp, #4]
 404 000c 0295     		str	r5, [sp, #8]
  62:Core/Src/kbd_process.c ****   if (HID_DEVICE_READY_TO_NOTIFY) {
 405              		.loc 1 62 3 is_stmt 1 view .LVU92
 406              	.LVL42:
  63:Core/Src/kbd_process.c ****     for (i=0; i<Nb_bytes; i++) {
 407              		.loc 1 63 3 view .LVU93
ARM GAS  C:\Users\IAHERN~1\AppData\Local\Temp\ccLwhMtk.s 			page 12


  64:Core/Src/kbd_process.c ****       keys[offset] = hid_keyboard_map(data_buffer[i], &upperCase);
 408              		.loc 1 64 5 view .LVU94
  64:Core/Src/kbd_process.c ****       keys[offset] = hid_keyboard_map(data_buffer[i], &upperCase);
 409              		.loc 1 64 5 is_stmt 0 view .LVU95
 410 000e 09E0     		b	.L30
 411              	.LVL43:
 412              	.L31:
  69:Core/Src/kbd_process.c ****       ret = hidSendReport(0, INPUT_REPORT, sizeof(keys), keys);
 413              		.loc 1 69 5 is_stmt 1 view .LVU96
  69:Core/Src/kbd_process.c ****       ret = hidSendReport(0, INPUT_REPORT, sizeof(keys), keys);
 414              		.loc 1 69 13 is_stmt 0 view .LVU97
 415 0010 0023     		movs	r3, #0
 416 0012 8DF80430 		strb	r3, [sp, #4]
 417 0016 15E0     		b	.L32
 418              	.LVL44:
 419              	.L39:
  72:Core/Src/kbd_process.c ****       keys[0] = 0;
 420              		.loc 1 72 9 is_stmt 1 view .LVU98
 421 0018 1948     		ldr	r0, .L40
 422              	.LVL45:
  72:Core/Src/kbd_process.c ****       keys[0] = 0;
 423              		.loc 1 72 9 is_stmt 0 view .LVU99
 424 001a FFF7FEFF 		bl	printf
 425              	.LVL46:
  72:Core/Src/kbd_process.c ****       keys[0] = 0;
 426              		.loc 1 72 9 view .LVU100
 427 001e 1AE0     		b	.L33
 428              	.LVL47:
 429              	.L34:
  64:Core/Src/kbd_process.c ****       keys[offset] = hid_keyboard_map(data_buffer[i], &upperCase);
 430              		.loc 1 64 28 is_stmt 1 discriminator 2 view .LVU101
 431 0020 0135     		adds	r5, r5, #1
 432              	.LVL48:
  64:Core/Src/kbd_process.c ****       keys[offset] = hid_keyboard_map(data_buffer[i], &upperCase);
 433              		.loc 1 64 28 is_stmt 0 discriminator 2 view .LVU102
 434 0022 EDB2     		uxtb	r5, r5
 435              	.LVL49:
 436              	.L30:
  64:Core/Src/kbd_process.c ****       keys[offset] = hid_keyboard_map(data_buffer[i], &upperCase);
 437              		.loc 1 64 16 is_stmt 1 discriminator 1 view .LVU103
 438 0024 B542     		cmp	r5, r6
 439 0026 28D2     		bcs	.L38
  65:Core/Src/kbd_process.c ****       if (upperCase)
 440              		.loc 1 65 7 view .LVU104
  65:Core/Src/kbd_process.c ****       if (upperCase)
 441              		.loc 1 65 22 is_stmt 0 view .LVU105
 442 0028 0DF10F01 		add	r1, sp, #15
 443 002c 785D     		ldrb	r0, [r7, r5]	@ zero_extendqisi2
 444 002e FFF7FEFF 		bl	hid_keyboard_map
 445              	.LVL50:
  65:Core/Src/kbd_process.c ****       if (upperCase)
 446              		.loc 1 65 20 discriminator 1 view .LVU106
 447 0032 8DF80600 		strb	r0, [sp, #6]
  66:Core/Src/kbd_process.c ****     keys[0] = 0x02;
 448              		.loc 1 66 7 is_stmt 1 view .LVU107
  66:Core/Src/kbd_process.c ****     keys[0] = 0x02;
 449              		.loc 1 66 11 is_stmt 0 view .LVU108
ARM GAS  C:\Users\IAHERN~1\AppData\Local\Temp\ccLwhMtk.s 			page 13


 450 0036 9DF80F30 		ldrb	r3, [sp, #15]	@ zero_extendqisi2
  66:Core/Src/kbd_process.c ****     keys[0] = 0x02;
 451              		.loc 1 66 10 view .LVU109
 452 003a 002B     		cmp	r3, #0
 453 003c E8D0     		beq	.L31
  67:Core/Src/kbd_process.c ****       else
 454              		.loc 1 67 5 is_stmt 1 view .LVU110
  67:Core/Src/kbd_process.c ****       else
 455              		.loc 1 67 13 is_stmt 0 view .LVU111
 456 003e 0223     		movs	r3, #2
 457 0040 8DF80430 		strb	r3, [sp, #4]
 458              	.L32:
  70:Core/Src/kbd_process.c ****       if (ret != BLE_STATUS_SUCCESS)
 459              		.loc 1 70 7 is_stmt 1 view .LVU112
  70:Core/Src/kbd_process.c ****       if (ret != BLE_STATUS_SUCCESS)
 460              		.loc 1 70 13 is_stmt 0 view .LVU113
 461 0044 01AB     		add	r3, sp, #4
 462 0046 0822     		movs	r2, #8
 463 0048 0121     		movs	r1, #1
 464 004a 0020     		movs	r0, #0
 465 004c FFF7FEFF 		bl	hidSendReport
 466              	.LVL51:
  71:Core/Src/kbd_process.c ****         BLUENRG_PRINTF("Error during send the report %02x\n", ret);
 467              		.loc 1 71 7 is_stmt 1 view .LVU114
  71:Core/Src/kbd_process.c ****         BLUENRG_PRINTF("Error during send the report %02x\n", ret);
 468              		.loc 1 71 10 is_stmt 0 view .LVU115
 469 0050 0146     		mov	r1, r0
 470 0052 0028     		cmp	r0, #0
 471 0054 E0D1     		bne	.L39
 472              	.LVL52:
 473              	.L33:
  73:Core/Src/kbd_process.c ****       keys[offset] = 0;
 474              		.loc 1 73 7 is_stmt 1 view .LVU116
  73:Core/Src/kbd_process.c ****       keys[offset] = 0;
 475              		.loc 1 73 15 is_stmt 0 view .LVU117
 476 0056 0024     		movs	r4, #0
 477 0058 8DF80440 		strb	r4, [sp, #4]
  74:Core/Src/kbd_process.c ****       nmbTimes = 0;
 478              		.loc 1 74 7 is_stmt 1 view .LVU118
  74:Core/Src/kbd_process.c ****       nmbTimes = 0;
 479              		.loc 1 74 20 is_stmt 0 view .LVU119
 480 005c 8DF80640 		strb	r4, [sp, #6]
  75:Core/Src/kbd_process.c ****       do {
 481              		.loc 1 75 7 is_stmt 1 view .LVU120
 482              	.LVL53:
 483              	.L35:
  76:Core/Src/kbd_process.c ****     ret = hidSendReport(0, INPUT_REPORT, sizeof(keys), keys);
 484              		.loc 1 76 7 view .LVU121
  77:Core/Src/kbd_process.c ****         nmbTimes++;
 485              		.loc 1 77 5 view .LVU122
  77:Core/Src/kbd_process.c ****         nmbTimes++;
 486              		.loc 1 77 11 is_stmt 0 view .LVU123
 487 0060 01AB     		add	r3, sp, #4
 488 0062 0822     		movs	r2, #8
 489 0064 0121     		movs	r1, #1
 490 0066 0020     		movs	r0, #0
 491 0068 FFF7FEFF 		bl	hidSendReport
ARM GAS  C:\Users\IAHERN~1\AppData\Local\Temp\ccLwhMtk.s 			page 14


 492              	.LVL54:
  78:Core/Src/kbd_process.c ****       } while ((ret != BLE_STATUS_SUCCESS) && (nmbTimes < 200));
 493              		.loc 1 78 9 is_stmt 1 view .LVU124
  78:Core/Src/kbd_process.c ****       } while ((ret != BLE_STATUS_SUCCESS) && (nmbTimes < 200));
 494              		.loc 1 78 17 is_stmt 0 view .LVU125
 495 006c 0134     		adds	r4, r4, #1
 496              	.LVL55:
  78:Core/Src/kbd_process.c ****       } while ((ret != BLE_STATUS_SUCCESS) && (nmbTimes < 200));
 497              		.loc 1 78 17 view .LVU126
 498 006e E4B2     		uxtb	r4, r4
 499              	.LVL56:
  79:Core/Src/kbd_process.c ****     }
 500              		.loc 1 79 44 is_stmt 1 discriminator 2 view .LVU127
 501 0070 0028     		cmp	r0, #0
 502 0072 D5D0     		beq	.L34
  79:Core/Src/kbd_process.c ****     }
 503              		.loc 1 79 44 is_stmt 0 discriminator 1 view .LVU128
 504 0074 C72C     		cmp	r4, #199
 505 0076 F3D9     		bls	.L35
 506 0078 D2E7     		b	.L34
 507              	.LVL57:
 508              	.L38:
  82:Core/Src/kbd_process.c **** 
 509              		.loc 1 82 1 view .LVU129
 510 007a 05B0     		add	sp, sp, #20
 511              		.cfi_def_cfa_offset 20
 512              		@ sp needed
 513 007c F0BD     		pop	{r4, r5, r6, r7, pc}
 514              	.LVL58:
 515              	.L41:
  82:Core/Src/kbd_process.c **** 
 516              		.loc 1 82 1 view .LVU130
 517 007e 00BF     		.align	2
 518              	.L40:
 519 0080 00000000 		.word	.LC7
 520              		.cfi_endproc
 521              	.LFE137:
 523              		.global	lookupTable
 524              		.section	.data.lookupTable,"aw"
 525              		.align	2
 528              	lookupTable:
 529 0000 21       		.byte	33
 530 0001 011E     		.ascii	"\001\036"
 531 0003 22       		.byte	34
 532 0004 0134     		.ascii	"\0014"
 533 0006 23       		.byte	35
 534 0007 0120     		.ascii	"\001 "
 535 0009 24       		.byte	36
 536 000a 0121     		.ascii	"\001!"
 537 000c 25       		.byte	37
 538 000d 0122     		.ascii	"\001\""
 539 000f 26       		.byte	38
 540 0010 0124     		.ascii	"\001$"
 541 0012 27       		.byte	39
 542 0013 0034     		.ascii	"\0004"
 543 0015 28       		.byte	40
 544 0016 0126     		.ascii	"\001&"
ARM GAS  C:\Users\IAHERN~1\AppData\Local\Temp\ccLwhMtk.s 			page 15


 545 0018 29       		.byte	41
 546 0019 0127     		.ascii	"\001'"
 547 001b 2A       		.byte	42
 548 001c 0125     		.ascii	"\001%"
 549 001e 2B       		.byte	43
 550 001f 012E     		.ascii	"\001."
 551 0021 2C       		.byte	44
 552 0022 0036     		.ascii	"\0006"
 553 0024 2D       		.byte	45
 554 0025 002D     		.ascii	"\000-"
 555 0027 2E       		.byte	46
 556 0028 0037     		.ascii	"\0007"
 557 002a 2F       		.byte	47
 558 002b 0038     		.ascii	"\0008"
 559 002d 3A       		.byte	58
 560 002e 0133     		.ascii	"\0013"
 561 0030 3B       		.byte	59
 562 0031 0033     		.ascii	"\0003"
 563 0033 3C       		.byte	60
 564 0034 0136     		.ascii	"\0016"
 565 0036 3D       		.byte	61
 566 0037 002E     		.ascii	"\000."
 567 0039 3E       		.byte	62
 568 003a 0137     		.ascii	"\0017"
 569 003c 3F       		.byte	63
 570 003d 0138     		.ascii	"\0018"
 571 003f 40       		.byte	64
 572 0040 011F     		.ascii	"\001\037"
 573 0042 5B       		.byte	91
 574 0043 002F     		.ascii	"\000/"
 575 0045 5C       		.byte	92
 576 0046 0031     		.ascii	"\0001"
 577 0048 5D       		.byte	93
 578 0049 0030     		.ascii	"\0000"
 579 004b 5E       		.byte	94
 580 004c 0123     		.ascii	"\001#"
 581 004e 5F       		.byte	95
 582 004f 012D     		.ascii	"\001-"
 583 0051 60       		.byte	96
 584 0052 0035     		.ascii	"\0005"
 585 0054 7B       		.byte	123
 586 0055 012F     		.ascii	"\001/"
 587 0057 7C       		.byte	124
 588 0058 0131     		.ascii	"\0011"
 589 005a 7D       		.byte	125
 590 005b 0130     		.ascii	"\0010"
 591 005d 7E       		.byte	126
 592 005e 0135     		.ascii	"\0015"
 593 0060 7F       		.byte	127
 594 0061 004C     		.ascii	"\000L"
 595              		.text
 596              	.Letext0:
 597              		.file 2 "C:/Users/iahernandez/AppData/Roaming/Code/User/globalStorage/bmd.stm32-for-vscode/@xpack-
 598              		.file 3 "C:/Users/iahernandez/AppData/Roaming/Code/User/globalStorage/bmd.stm32-for-vscode/@xpack-
 599              		.file 4 "Middlewares/ST/BlueNRG-2/includes/bluenrg1_types.h"
 600              		.file 5 "Middlewares/ST/BlueNRG-2/includes/bluenrg1_gatt_aci.h"
 601              		.file 6 "C:/Users/iahernandez/AppData/Roaming/Code/User/globalStorage/bmd.stm32-for-vscode/@xpack-
ARM GAS  C:\Users\IAHERN~1\AppData\Local\Temp\ccLwhMtk.s 			page 16


 602              		.file 7 "<built-in>"
ARM GAS  C:\Users\IAHERN~1\AppData\Local\Temp\ccLwhMtk.s 			page 17

