ARM GAS  C:\Users\IAHERN~1\AppData\Local\Temp\ccXgJWoo.s 			page 1


   1              		.cpu cortex-m4
   2              		.arch armv7e-m
   3              		.fpu fpv4-sp-d16
   4              		.eabi_attribute 27, 1
   5              		.eabi_attribute 28, 1
   6              		.eabi_attribute 20, 1
   7              		.eabi_attribute 21, 1
   8              		.eabi_attribute 23, 3
   9              		.eabi_attribute 24, 1
  10              		.eabi_attribute 25, 1
  11              		.eabi_attribute 26, 1
  12              		.eabi_attribute 30, 1
  13              		.eabi_attribute 34, 1
  14              		.eabi_attribute 18, 4
  15              		.file	"services.c"
  16              		.text
  17              	.Ltext0:
  18              		.cfi_sections	.debug_frame
  19              		.file 1 "Core/Src/services.c"
  20              		.section	.rodata.addBatteryService.str1.4,"aMS",%progbits,1
  21              		.align	2
  22              	.LC0:
  23 0000 4572726F 		.ascii	"Error in Adding BATTERY SERVICE 0x%02x\012\000"
  23      7220696E 
  23      20416464 
  23      696E6720 
  23      42415454 
  24              		.align	2
  25              	.LC1:
  26 0028 4572726F 		.ascii	"Error in Adding Char for BATTERY SERVICE 0x%02x\012"
  26      7220696E 
  26      20416464 
  26      696E6720 
  26      43686172 
  27 0058 00       		.ascii	"\000"
  28 0059 000000   		.align	2
  29              	.LC2:
  30 005c 55706461 		.ascii	"Updating BATERRY level failed failed: 0x%02x\015\012"
  30      74696E67 
  30      20424154 
  30      45525259 
  30      206C6576 
  31 008a 00       		.ascii	"\000"
  32 008b 00       		.align	2
  33              	.LC3:
  34 008c 42415454 		.ascii	"BATTERY SERVICE COMPLETED!!!\015\000"
  34      45525920 
  34      53455256 
  34      49434520 
  34      434F4D50 
  35              		.section	.text.addBatteryService,"ax",%progbits
  36              		.align	1
  37              		.global	addBatteryService
  38              		.syntax unified
  39              		.thumb
  40              		.thumb_func
  42              	addBatteryService:
ARM GAS  C:\Users\IAHERN~1\AppData\Local\Temp\ccXgJWoo.s 			page 2


  43              	.LFB138:
   1:Core/Src/services.c **** #include "services.h"
   2:Core/Src/services.c **** #include "bluenrg_conf.h"
   3:Core/Src/services.c **** #include "bluenrg1_types.h"
   4:Core/Src/services.c **** #include "bluenrg1_gap.h"
   5:Core/Src/services.c **** #include "bluenrg1_aci.h"
   6:Core/Src/services.c **** #include "bluenrg1_hci_le.h"
   7:Core/Src/services.c **** #include "stdio.h"
   8:Core/Src/services.c **** #include "stdlib.h"
   9:Core/Src/services.c **** #include "main.h"
  10:Core/Src/services.c **** 
  11:Core/Src/services.c **** 
  12:Core/Src/services.c **** // Un-comment the following macro if you want to use the Android/iOS User App
  13:Core/Src/services.c **** //#define USER_APP
  14:Core/Src/services.c **** #ifdef USER_APP
  15:Core/Src/services.c **** # define ATTR_PERMISSION ATTR_PERMISSION_NONE
  16:Core/Src/services.c **** #else
  17:Core/Src/services.c **** # define ATTR_PERMISSION (ATTR_PERMISSION_ENCRY_READ|ATTR_PERMISSION_ENCRY_WRITE)
  18:Core/Src/services.c **** #endif
  19:Core/Src/services.c **** 
  20:Core/Src/services.c **** 
  21:Core/Src/services.c **** /*Global Variables*/
  22:Core/Src/services.c **** uint16_t battery_service_handle;
  23:Core/Src/services.c **** uint16_t battery_level_char_handle;
  24:Core/Src/services.c **** uint16_t BATTERY_client_char_config_desc;
  25:Core/Src/services.c **** 
  26:Core/Src/services.c **** uint16_t dif_service_handle;
  27:Core/Src/services.c **** uint16_t system_id_char_handle,
  28:Core/Src/services.c **** model_number_char_handle,
  29:Core/Src/services.c **** serial_number_char_handle,
  30:Core/Src/services.c **** firmware_number_char_handle,
  31:Core/Src/services.c **** hardware_number_char_handle,
  32:Core/Src/services.c **** software_number_char_handle,
  33:Core/Src/services.c **** manufacturer_name_char_handle,
  34:Core/Src/services.c **** ieee_certification_char_handle,
  35:Core/Src/services.c **** pnp_id_char_handle;
  36:Core/Src/services.c **** 
  37:Core/Src/services.c **** 
  38:Core/Src/services.c **** uint16_t hid_service_handle;
  39:Core/Src/services.c **** uint16_t protocol_mode_char_handle,
  40:Core/Src/services.c **** input_report_char_handle, output_report_char_handle, feature_report_char_handle,
  41:Core/Src/services.c **** report_map_char_handle, boot_keyboard_input_char_handle,
  42:Core/Src/services.c **** boot_keyboard_output_char_handle,hid_info_char_handle, hid_control_point_char_handle;
  43:Core/Src/services.c **** 
  44:Core/Src/services.c **** uint16_t client_char_config_descriptor_handle,
  45:Core/Src/services.c **** report_reference_char_descriptor_handle_input,
  46:Core/Src/services.c **** report_reference_char_descriptor_handle_output,
  47:Core/Src/services.c **** report_reference_char_descriptor_handle_feature,
  48:Core/Src/services.c **** external_Report_Descriptor_handle;
  49:Core/Src/services.c **** 
  50:Core/Src/services.c **** 
  51:Core/Src/services.c **** uint8_t serviceMaxAttributeRecords, encrypKeySize;
  52:Core/Src/services.c **** uint16_t charValueLength;
  53:Core/Src/services.c **** 
  54:Core/Src/services.c **** 
  55:Core/Src/services.c **** extern uint8_t local_name[];
  56:Core/Src/services.c **** 
ARM GAS  C:\Users\IAHERN~1\AppData\Local\Temp\ccXgJWoo.s 			page 3


  57:Core/Src/services.c **** // Keyboard report descriptor
  58:Core/Src/services.c **** uint8_t reportDesc[] = {
  59:Core/Src/services.c **** 	    0x05, 0x01, // USAGE_PAGE (Generic Desktop)
  60:Core/Src/services.c **** 	    0x09, 0x06, // USAGE (Keyboard)
  61:Core/Src/services.c **** 	    0xA1, 0x01, // COLLECTION (Application)
  62:Core/Src/services.c **** 	    0x05, 0x07, // USAGE_PAGE (Keyboard)
  63:Core/Src/services.c **** 	    //0x85, 0x01,   // REPORT_ID (1)
  64:Core/Src/services.c **** 	    // 1 byte Modifier: Ctrl, Shift and other modifier keys, 8 in total
  65:Core/Src/services.c **** 	    0x19, 0xE0, // USAGE_MINIMUM (kbd LeftControl)
  66:Core/Src/services.c **** 	    0x29, 0xE7, // USAGE_MAXIMUM (kbd Right GUI)
  67:Core/Src/services.c **** 	    0x15, 0x00, // LOGICAL_MINIMUM (0)
  68:Core/Src/services.c **** 	    0x25, 0x01, // LOGICAL_MAXIMUM (1)
  69:Core/Src/services.c **** 	    0x75, 0x01, // REPORT_SIZE (1)
  70:Core/Src/services.c **** 	    0x95, 0x08, // REPORT_COUNT (8)
  71:Core/Src/services.c **** 	    0x81, 0x02, // INPUT (Data,Var,Abs)
  72:Core/Src/services.c **** 	    // 1 Reserved byte
  73:Core/Src/services.c **** 	    0x95, 0x01,  // REPORT_COUNT (1)
  74:Core/Src/services.c **** 	    0x75, 0x08, // REPORT_SIZE (8)
  75:Core/Src/services.c **** 	    0x81, 0x01, // INPUT (Cnst,Ary,Abs)
  76:Core/Src/services.c **** 	    // LEDs for num lock etc
  77:Core/Src/services.c **** 	    0x95, 0x05, // REPORT_COUNT (5)
  78:Core/Src/services.c **** 	    0x75, 0x01, // REPORT_SIZE (1)
  79:Core/Src/services.c **** 	    0x05, 0x08, // USAGE_PAGE (LEDs)
  80:Core/Src/services.c **** 	    // 0x85, 0x01, // REPORT_ID (1)
  81:Core/Src/services.c **** 	    0x19, 0x01, // USAGE_MINIMUM (Num Lock)
  82:Core/Src/services.c **** 	    0x29, 0x05, // USAGE_MAXIMUM (Kana)
  83:Core/Src/services.c **** 	    0x91, 0x02, // OUTPUT (Data,Var,Abs)
  84:Core/Src/services.c **** 	    // Reserved 3 bits
  85:Core/Src/services.c **** 	    0x95, 0x01, // REPORT_COUNT (1)
  86:Core/Src/services.c **** 	    0x75, 0x03, // REPORT_SIZE (3)
  87:Core/Src/services.c **** 	    0x91, 0x03, // OUTPUT (Cnst,Var,Abs)
  88:Core/Src/services.c **** 	    /* Slots for 6 keys that can be pressed down at the same time */
  89:Core/Src/services.c **** 	    0x95, 0x06, // REPORT_COUNT (6)
  90:Core/Src/services.c **** 	    0x75, 0x08, // REPORT_SIZE (8)
  91:Core/Src/services.c **** 	    0x15, 0x00, // LOGICAL_MINIMUM (0)
  92:Core/Src/services.c **** 	    0x25, 0x65, // LOGICAL_MAXIMUM (101)
  93:Core/Src/services.c **** 	    0x05, 0x07, // USAGE_PAGE (Keyboard)
  94:Core/Src/services.c **** 	    0x19, 0x00, // USAGE_MINIMUM (Reserved (no event indicated))
  95:Core/Src/services.c **** 	    0x29, 0x65, // USAGE_MAXIMUM (Keyboard Application)
  96:Core/Src/services.c **** 	    0x81, 0x00, // INPUT (Data,Ary,Abs)
  97:Core/Src/services.c **** 	    0xC0, // END_COLLECTION
  98:Core/Src/services.c **** };
  99:Core/Src/services.c **** 
 100:Core/Src/services.c **** 
 101:Core/Src/services.c **** /**
 102:Core/Src/services.c ****  * @brief Adds the Primary service and the characteristics associated
 103:Core/Src/services.c ****  * for the battery, device information and hid services.
 104:Core/Src/services.c ****  * @param battery Battery Service characteristics to add.
 105:Core/Src/services.c ****  * See the tpyedef batteryService_Type for more details.
 106:Core/Src/services.c ****  * @param devInf Device Information Service characteristics to add.
 107:Core/Src/services.c ****  * See the typedef devInfService_Type for more details.
 108:Core/Src/services.c ****  * @param hid HID Service characteristics to add.
 109:Core/Src/services.c ****  * See the typedef HID Service for more details.
 110:Core/Src/services.c ****  * @retval Status of the call
 111:Core/Src/services.c ****  */
 112:Core/Src/services.c **** uint8_t hidAddServices(devInfService_Type* devInf){
 113:Core/Src/services.c **** 
ARM GAS  C:\Users\IAHERN~1\AppData\Local\Temp\ccXgJWoo.s 			page 4


 114:Core/Src/services.c **** 	uint8_t ret;
 115:Core/Src/services.c **** 
 116:Core/Src/services.c ****     ret = addBatteryService();
 117:Core/Src/services.c ****     if(ret != BLE_STATUS_SUCCESS){
 118:Core/Src/services.c ****     	BLUENRG_PRINTF("ERROR IN ADDING BATTERY SERVICE\r\n");
 119:Core/Src/services.c ****     	return ret;
 120:Core/Src/services.c ****     }
 121:Core/Src/services.c **** 
 122:Core/Src/services.c ****     ret = addDeviceInformationService(devInf);
 123:Core/Src/services.c ****     if(ret != BLE_STATUS_SUCCESS){
 124:Core/Src/services.c ****         	BLUENRG_PRINTF("ERROR IN ADDING DEVICE INFORMATION SERVICE\r\n");
 125:Core/Src/services.c ****         	return ret;
 126:Core/Src/services.c ****         }
 127:Core/Src/services.c **** 
 128:Core/Src/services.c ****     ret = addHumanInterfaceService();
 129:Core/Src/services.c ****     if(ret != BLE_STATUS_SUCCESS){
 130:Core/Src/services.c ****         	BLUENRG_PRINTF("ERROR IN ADDING HUMAN INTERFACE SERVICE\r\n");
 131:Core/Src/services.c ****         	return ret;
 132:Core/Src/services.c ****         }
 133:Core/Src/services.c **** 
 134:Core/Src/services.c ****     return BLE_STATUS_SUCCESS;
 135:Core/Src/services.c **** }
 136:Core/Src/services.c **** 
 137:Core/Src/services.c **** 
 138:Core/Src/services.c **** 
 139:Core/Src/services.c **** /**
 140:Core/Src/services.c ****  * @brief Adds BATTERY SERVICE (UUID 0x180F) with:
 141:Core/Src/services.c ****  * 1 characteristic (BATTERY LEVEL UUID 0x2A19)
 142:Core/Src/services.c ****  * Updates the value for BATTERY LEVEL to 50
 143:Core/Src/services.c ****  */
 144:Core/Src/services.c **** tBleStatus addBatteryService(){
  44              		.loc 1 144 31 view -0
  45              		.cfi_startproc
  46              		@ args = 0, pretend = 0, frame = 40
  47              		@ frame_needed = 0, uses_anonymous_args = 0
  48 0000 10B5     		push	{r4, lr}
  49              		.cfi_def_cfa_offset 8
  50              		.cfi_offset 4, -8
  51              		.cfi_offset 14, -4
  52 0002 90B0     		sub	sp, sp, #64
  53              		.cfi_def_cfa_offset 72
 145:Core/Src/services.c **** 
 146:Core/Src/services.c **** 	uint8_t ret;
  54              		.loc 1 146 2 view .LVU1
 147:Core/Src/services.c ****     Service_UUID_t battery_service_uuid;
  55              		.loc 1 147 5 view .LVU2
 148:Core/Src/services.c ****     Char_UUID_t battery_level_char_uuid;
  56              		.loc 1 148 5 view .LVU3
 149:Core/Src/services.c ****     //Char_Desc_Uuid_t char_presentation_format_descriptor;
 150:Core/Src/services.c **** 
 151:Core/Src/services.c ****     battery_service_uuid.Service_UUID_16=BATTERY_SERVICE_SERVICE_UUID;
  57              		.loc 1 151 5 view .LVU4
  58              		.loc 1 151 41 is_stmt 0 view .LVU5
  59 0004 41F60F03 		movw	r3, #6159
  60 0008 ADF83030 		strh	r3, [sp, #48]	@ movhi
 152:Core/Src/services.c ****     battery_level_char_uuid.Char_UUID_16=BATTERY_LEVEL_CHAR_UUID ;
  61              		.loc 1 152 5 is_stmt 1 view .LVU6
ARM GAS  C:\Users\IAHERN~1\AppData\Local\Temp\ccXgJWoo.s 			page 5


  62              		.loc 1 152 41 is_stmt 0 view .LVU7
  63 000c 42F61923 		movw	r3, #10777
  64 0010 ADF82030 		strh	r3, [sp, #32]	@ movhi
 153:Core/Src/services.c **** 
 154:Core/Src/services.c **** 
 155:Core/Src/services.c ****     serviceMaxAttributeRecords = 4;
  65              		.loc 1 155 5 is_stmt 1 view .LVU8
  66              		.loc 1 155 32 is_stmt 0 view .LVU9
  67 0014 0423     		movs	r3, #4
  68 0016 264A     		ldr	r2, .L10
  69 0018 1370     		strb	r3, [r2]
 156:Core/Src/services.c **** 
 157:Core/Src/services.c **** 
 158:Core/Src/services.c ****     ret = aci_gatt_add_service(UUID_TYPE_16,
  70              		.loc 1 158 5 is_stmt 1 view .LVU10
  71              		.loc 1 158 11 is_stmt 0 view .LVU11
  72 001a 264A     		ldr	r2, .L10+4
  73 001c 0092     		str	r2, [sp]
  74 001e 0122     		movs	r2, #1
  75 0020 0CA9     		add	r1, sp, #48
  76 0022 1046     		mov	r0, r2
  77 0024 FFF7FEFF 		bl	aci_gatt_add_service
  78              	.LVL0:
 159:Core/Src/services.c ****             &battery_service_uuid,
 160:Core/Src/services.c ****             PRIMARY_SERVICE,
 161:Core/Src/services.c ****             serviceMaxAttributeRecords,
 162:Core/Src/services.c ****             &battery_service_handle);
 163:Core/Src/services.c ****     if (ret != BLE_STATUS_SUCCESS)
  79              		.loc 1 163 5 is_stmt 1 view .LVU12
  80              		.loc 1 163 8 is_stmt 0 view .LVU13
  81 0028 0028     		cmp	r0, #0
  82 002a 2FD1     		bne	.L7
 164:Core/Src/services.c ****     {
 165:Core/Src/services.c ****            BLUENRG_PRINTF("Error in Adding BATTERY SERVICE 0x%02x\n", ret);
 166:Core/Src/services.c ****            return ret;
 167:Core/Src/services.c ****     }
 168:Core/Src/services.c **** 
 169:Core/Src/services.c ****     charValueLength = 20;
  83              		.loc 1 169 5 is_stmt 1 view .LVU14
  84              		.loc 1 169 21 is_stmt 0 view .LVU15
  85 002c 1423     		movs	r3, #20
  86 002e 224A     		ldr	r2, .L10+8
  87 0030 1380     		strh	r3, [r2]	@ movhi
 170:Core/Src/services.c ****     encrypKeySize = 10;
  88              		.loc 1 170 5 is_stmt 1 view .LVU16
  89              		.loc 1 170 19 is_stmt 0 view .LVU17
  90 0032 0A22     		movs	r2, #10
  91 0034 2149     		ldr	r1, .L10+12
  92 0036 0A70     		strb	r2, [r1]
 171:Core/Src/services.c ****     ret = aci_gatt_add_char(battery_service_handle,
  93              		.loc 1 171 5 is_stmt 1 view .LVU18
  94              		.loc 1 171 11 is_stmt 0 view .LVU19
  95 0038 2149     		ldr	r1, .L10+16
  96 003a 0591     		str	r1, [sp, #20]
  97 003c 0021     		movs	r1, #0
  98 003e 0491     		str	r1, [sp, #16]
  99 0040 0392     		str	r2, [sp, #12]
ARM GAS  C:\Users\IAHERN~1\AppData\Local\Temp\ccXgJWoo.s 			page 6


 100 0042 0121     		movs	r1, #1
 101 0044 0291     		str	r1, [sp, #8]
 102 0046 2422     		movs	r2, #36
 103 0048 0192     		str	r2, [sp, #4]
 104 004a 0222     		movs	r2, #2
 105 004c 0092     		str	r2, [sp]
 106 004e 08AA     		add	r2, sp, #32
 107 0050 1848     		ldr	r0, .L10+4
 108              	.LVL1:
 109              		.loc 1 171 11 view .LVU20
 110 0052 0088     		ldrh	r0, [r0]
 111 0054 FFF7FEFF 		bl	aci_gatt_add_char
 112              	.LVL2:
 172:Core/Src/services.c ****             UUID_TYPE_16,
 173:Core/Src/services.c ****             &battery_level_char_uuid,
 174:Core/Src/services.c ****             charValueLength,
 175:Core/Src/services.c ****             CHAR_PROP_READ,
 176:Core/Src/services.c ****             ATTR_PERMISSION,
 177:Core/Src/services.c ****             GATT_NOTIFY_ATTRIBUTE_WRITE,
 178:Core/Src/services.c ****             encrypKeySize,
 179:Core/Src/services.c ****             CHAR_VALUE_LEN_CONSTANT,
 180:Core/Src/services.c ****             &battery_level_char_handle);
 181:Core/Src/services.c ****     if (ret != BLE_STATUS_SUCCESS)
 113              		.loc 1 181 5 is_stmt 1 view .LVU21
 114              		.loc 1 181 8 is_stmt 0 view .LVU22
 115 0058 0446     		mov	r4, r0
 116 005a F8B9     		cbnz	r0, .L8
 182:Core/Src/services.c ****     {
 183:Core/Src/services.c ****         BLUENRG_PRINTF("Error in Adding Char for BATTERY SERVICE 0x%02x\n", ret);
 184:Core/Src/services.c ****         return ret;
 185:Core/Src/services.c ****     }
 186:Core/Src/services.c ****     uint8_t batteryLevel=75;
 117              		.loc 1 186 5 is_stmt 1 view .LVU23
 118              		.loc 1 186 13 is_stmt 0 view .LVU24
 119 005c 4B23     		movs	r3, #75
 120 005e 8DF81F30 		strb	r3, [sp, #31]
 187:Core/Src/services.c ****     ret = aci_gatt_update_char_value_ext(0,
 121              		.loc 1 187 5 is_stmt 1 view .LVU25
 122              		.loc 1 187 11 is_stmt 0 view .LVU26
 123 0062 0DF11F03 		add	r3, sp, #31
 124 0066 0393     		str	r3, [sp, #12]
 125 0068 0123     		movs	r3, #1
 126 006a 0293     		str	r3, [sp, #8]
 127 006c 0020     		movs	r0, #0
 128              	.LVL3:
 129              		.loc 1 187 11 view .LVU27
 130 006e 0190     		str	r0, [sp, #4]
 131 0070 0093     		str	r3, [sp]
 132 0072 0346     		mov	r3, r0
 133 0074 124A     		ldr	r2, .L10+16
 134 0076 1288     		ldrh	r2, [r2]
 135 0078 0E49     		ldr	r1, .L10+4
 136 007a 0988     		ldrh	r1, [r1]
 137 007c FFF7FEFF 		bl	aci_gatt_update_char_value_ext
 138              	.LVL4:
 188:Core/Src/services.c ****             battery_service_handle,
 189:Core/Src/services.c ****             battery_level_char_handle,
ARM GAS  C:\Users\IAHERN~1\AppData\Local\Temp\ccXgJWoo.s 			page 7


 190:Core/Src/services.c ****             0,
 191:Core/Src/services.c ****             sizeof(batteryLevel),
 192:Core/Src/services.c ****             0,
 193:Core/Src/services.c ****             sizeof(batteryLevel),
 194:Core/Src/services.c ****             (uint8_t *)&batteryLevel);
 195:Core/Src/services.c ****     if(ret != BLE_STATUS_SUCCESS)
 139              		.loc 1 195 5 is_stmt 1 view .LVU28
 140              		.loc 1 195 7 is_stmt 0 view .LVU29
 141 0080 0446     		mov	r4, r0
 142 0082 80B9     		cbnz	r0, .L9
 196:Core/Src/services.c ****       {
 197:Core/Src/services.c ****         BLUENRG_PRINTF("Updating BATERRY level failed failed: 0x%02x\r\n", ret);
 198:Core/Src/services.c ****         return ret;
 199:Core/Src/services.c ****       }
 200:Core/Src/services.c **** 
 201:Core/Src/services.c ****     BLUENRG_PRINTF("BATTERY SERVICE COMPLETED!!!\r\n");
 143              		.loc 1 201 5 is_stmt 1 view .LVU30
 144 0084 0F48     		ldr	r0, .L10+20
 145              	.LVL5:
 146              		.loc 1 201 5 is_stmt 0 view .LVU31
 147 0086 FFF7FEFF 		bl	puts
 148              	.LVL6:
 202:Core/Src/services.c ****     return BLE_STATUS_SUCCESS;
 149              		.loc 1 202 5 is_stmt 1 view .LVU32
 150              		.loc 1 202 12 is_stmt 0 view .LVU33
 151 008a 04E0     		b	.L3
 152              	.LVL7:
 153              	.L7:
 154              		.loc 1 202 12 view .LVU34
 155 008c 0446     		mov	r4, r0
 165:Core/Src/services.c ****            return ret;
 156              		.loc 1 165 12 is_stmt 1 view .LVU35
 157 008e 0146     		mov	r1, r0
 158 0090 0D48     		ldr	r0, .L10+24
 159              	.LVL8:
 165:Core/Src/services.c ****            return ret;
 160              		.loc 1 165 12 is_stmt 0 view .LVU36
 161 0092 FFF7FEFF 		bl	printf
 162              	.LVL9:
 166:Core/Src/services.c ****     }
 163              		.loc 1 166 12 is_stmt 1 view .LVU37
 164              	.L3:
 203:Core/Src/services.c **** }
 165              		.loc 1 203 1 is_stmt 0 view .LVU38
 166 0096 2046     		mov	r0, r4
 167 0098 10B0     		add	sp, sp, #64
 168              		.cfi_remember_state
 169              		.cfi_def_cfa_offset 8
 170              		@ sp needed
 171 009a 10BD     		pop	{r4, pc}
 172              	.LVL10:
 173              	.L8:
 174              		.cfi_restore_state
 183:Core/Src/services.c ****         return ret;
 175              		.loc 1 183 9 is_stmt 1 view .LVU39
 176 009c 0146     		mov	r1, r0
 177 009e 0B48     		ldr	r0, .L10+28
ARM GAS  C:\Users\IAHERN~1\AppData\Local\Temp\ccXgJWoo.s 			page 8


 178              	.LVL11:
 183:Core/Src/services.c ****         return ret;
 179              		.loc 1 183 9 is_stmt 0 view .LVU40
 180 00a0 FFF7FEFF 		bl	printf
 181              	.LVL12:
 184:Core/Src/services.c ****     }
 182              		.loc 1 184 9 is_stmt 1 view .LVU41
 184:Core/Src/services.c ****     }
 183              		.loc 1 184 16 is_stmt 0 view .LVU42
 184 00a4 F7E7     		b	.L3
 185              	.LVL13:
 186              	.L9:
 197:Core/Src/services.c ****         return ret;
 187              		.loc 1 197 9 is_stmt 1 view .LVU43
 188 00a6 0146     		mov	r1, r0
 189 00a8 0948     		ldr	r0, .L10+32
 190              	.LVL14:
 197:Core/Src/services.c ****         return ret;
 191              		.loc 1 197 9 is_stmt 0 view .LVU44
 192 00aa FFF7FEFF 		bl	printf
 193              	.LVL15:
 198:Core/Src/services.c ****       }
 194              		.loc 1 198 9 is_stmt 1 view .LVU45
 198:Core/Src/services.c ****       }
 195              		.loc 1 198 16 is_stmt 0 view .LVU46
 196 00ae F2E7     		b	.L3
 197              	.L11:
 198              		.align	2
 199              	.L10:
 200 00b0 00000000 		.word	serviceMaxAttributeRecords
 201 00b4 00000000 		.word	battery_service_handle
 202 00b8 00000000 		.word	charValueLength
 203 00bc 00000000 		.word	encrypKeySize
 204 00c0 00000000 		.word	battery_level_char_handle
 205 00c4 8C000000 		.word	.LC3
 206 00c8 00000000 		.word	.LC0
 207 00cc 28000000 		.word	.LC1
 208 00d0 5C000000 		.word	.LC2
 209              		.cfi_endproc
 210              	.LFE138:
 212              		.section	.rodata.addHumanInterfaceService.str1.4,"aMS",%progbits,1
 213              		.align	2
 214              	.LC4:
 215 0000 4572726F 		.ascii	"Error in Adding Human Interface SERVICE 0x%02x\012\000"
 215      7220696E 
 215      20416464 
 215      696E6720 
 215      48756D61 
 216              		.align	2
 217              	.LC5:
 218 0030 4572726F 		.ascii	"Error in Adding Char (INPUT REPORT) for HID SERVICE"
 218      7220696E 
 218      20416464 
 218      696E6720 
 218      43686172 
 219 0063 20307825 		.ascii	" 0x%02x\012\000"
 219      3032780A 
ARM GAS  C:\Users\IAHERN~1\AppData\Local\Temp\ccXgJWoo.s 			page 9


 219      00
 220              		.align	2
 221              	.LC6:
 222 006c 4572726F 		.ascii	"Error in Adding Char (OUTPUT REPORT) for HID SERVIC"
 222      7220696E 
 222      20416464 
 222      696E6720 
 222      43686172 
 223 009f 45203078 		.ascii	"E 0x%02x\012\000"
 223      25303278 
 223      0A00
 224 00a9 000000   		.align	2
 225              	.LC7:
 226 00ac 4572726F 		.ascii	"Error in Adding Char (FEATURE REPORT) for HID SERVI"
 226      7220696E 
 226      20416464 
 226      696E6720 
 226      43686172 
 227 00df 43452030 		.ascii	"CE 0x%02x\012\000"
 227      78253032 
 227      780A00
 228 00ea 0000     		.align	2
 229              	.LC8:
 230 00ec 4572726F 		.ascii	"Error in Adding Char (PROTOCOL MODE) for HID SERVIC"
 230      7220696E 
 230      20416464 
 230      696E6720 
 230      43686172 
 231 011f 45203078 		.ascii	"E 0x%02x\012\000"
 231      25303278 
 231      0A00
 232 0129 000000   		.align	2
 233              	.LC9:
 234 012c 4572726F 		.ascii	"Error in Adding Char (REPORT MAP) for HID SERVICE 0"
 234      7220696E 
 234      20416464 
 234      696E6720 
 234      43686172 
 235 015f 78253032 		.ascii	"x%02x\012\000"
 235      780A00
 236 0166 0000     		.align	2
 237              	.LC10:
 238 0168 4552524F 		.ascii	"ERROR  at updating report map: 0x%02x\012\000"
 238      52202061 
 238      74207570 
 238      64617469 
 238      6E672072 
 239 018f 00       		.align	2
 240              	.LC11:
 241 0190 4572726F 		.ascii	"Error in Adding Char (BOOT KEYBOARD INPUT) for HID "
 241      7220696E 
 241      20416464 
 241      696E6720 
 241      43686172 
 242 01c3 53455256 		.ascii	"SERVICE 0x%02x\012\000"
 242      49434520 
 242      30782530 
ARM GAS  C:\Users\IAHERN~1\AppData\Local\Temp\ccXgJWoo.s 			page 10


 242      32780A00 
 243 01d3 00       		.align	2
 244              	.LC12:
 245 01d4 4572726F 		.ascii	"Error in Adding Char (BOOT KEYBOARD OUTPUT) for HID"
 245      7220696E 
 245      20416464 
 245      696E6720 
 245      43686172 
 246 0207 20534552 		.ascii	" SERVICE 0x%02x\012\000"
 246      56494345 
 246      20307825 
 246      3032780A 
 246      00
 247              		.align	2
 248              	.LC13:
 249 0218 4572726F 		.ascii	"Error in Adding Char (HID INFORMATION) for HID SERV"
 249      7220696E 
 249      20416464 
 249      696E6720 
 249      43686172 
 250 024b 49434520 		.ascii	"ICE 0x%02x\012\000"
 250      30782530 
 250      32780A00 
 251 0257 00       		.align	2
 252              	.LC14:
 253 0258 4572726F 		.ascii	"Error in Adding VALUE for Char (HID INFORMATION) fo"
 253      7220696E 
 253      20416464 
 253      696E6720 
 253      56414C55 
 254 028b 72204849 		.ascii	"r HID SERVICE 0x%02x\012\000"
 254      44205345 
 254      52564943 
 254      45203078 
 254      25303278 
 255 02a1 000000   		.align	2
 256              	.LC15:
 257 02a4 4572726F 		.ascii	"Error in Adding Char (HID CONTROL POINT) for HID SE"
 257      7220696E 
 257      20416464 
 257      696E6720 
 257      43686172 
 258 02d7 52564943 		.ascii	"RVICE 0x%02x\012\000"
 258      45203078 
 258      25303278 
 258      0A00
 259              		.section	.text.addHumanInterfaceService,"ax",%progbits
 260              		.align	1
 261              		.global	addHumanInterfaceService
 262              		.syntax unified
 263              		.thumb
 264              		.thumb_func
 266              	addHumanInterfaceService:
 267              	.LFB140:
 204:Core/Src/services.c **** 
 205:Core/Src/services.c **** 
 206:Core/Src/services.c **** 
ARM GAS  C:\Users\IAHERN~1\AppData\Local\Temp\ccXgJWoo.s 			page 11


 207:Core/Src/services.c **** 
 208:Core/Src/services.c **** /**
 209:Core/Src/services.c ****  * @brief Adds DEVICE INFORMATION SERVICE (UUID 0x180A) with:
 210:Core/Src/services.c ****  * Characteristic (0x2A23) SYSTEM ID UUID
 211:Core/Src/services.c ****  * Characteristic (0x2A24) MODEL NUMBER UUID x
 212:Core/Src/services.c ****  * Characteristic (0x2A25) SERIAL NUMBER x
 213:Core/Src/services.c ****  * Characteristic (0x2A26) FIRMWARE REVISION x
 214:Core/Src/services.c ****  * Characteristic (0x2A27) HARDWARE REVISION x
 215:Core/Src/services.c ****  * Characteristic (0x2A28) SOFTWARE REVISION x
 216:Core/Src/services.c ****  * Characteristic (0x2A29) MANUFACTURER NAME x
 217:Core/Src/services.c ****  * Characteristic (0x2A2A) IEEE CERTIFICATION
 218:Core/Src/services.c ****  * Characteristic (0x2A50) PNP ID x
 219:Core/Src/services.c ****  *
 220:Core/Src/services.c ****  * calls updateDIService() to update some characteristics
 221:Core/Src/services.c ****  */
 222:Core/Src/services.c **** tBleStatus addDeviceInformationService(devInfService_Type* devInf){
 223:Core/Src/services.c **** 
 224:Core/Src/services.c **** 	uint8_t ret;
 225:Core/Src/services.c **** 
 226:Core/Src/services.c ****     Service_UUID_t device_info_service_uuid;
 227:Core/Src/services.c ****     Char_UUID_t system_id_char_uuid,
 228:Core/Src/services.c ****     model_no_char_uuid,
 229:Core/Src/services.c ****     serial_no_char_uuid,
 230:Core/Src/services.c ****     firmware_no_char_uuid,
 231:Core/Src/services.c ****     hardware_no_char_uuid,
 232:Core/Src/services.c ****     software_no_char_uuid,
 233:Core/Src/services.c ****     manufacturer_name_char_uuid,
 234:Core/Src/services.c ****     ieee_cert_char_uuid, pnp_id_char_uuid;
 235:Core/Src/services.c **** 
 236:Core/Src/services.c ****     device_info_service_uuid.Service_UUID_16=DEVICE_INFORMATION_SERVICE_UUID;
 237:Core/Src/services.c **** 
 238:Core/Src/services.c ****     system_id_char_uuid.Char_UUID_16=SYSTEM_ID_UUID;
 239:Core/Src/services.c ****     model_no_char_uuid.Char_UUID_16=MODEL_NUMBER_UUID;
 240:Core/Src/services.c ****     serial_no_char_uuid.Char_UUID_16=SERIAL_NUMBER_UUID;
 241:Core/Src/services.c ****     firmware_no_char_uuid.Char_UUID_16=FIRMWARE_REVISION_UUID;
 242:Core/Src/services.c ****     hardware_no_char_uuid.Char_UUID_16=HARDWARE_REVISION_UUID;
 243:Core/Src/services.c ****     software_no_char_uuid.Char_UUID_16=SOFTWARE_REVISION_UUID;
 244:Core/Src/services.c ****     manufacturer_name_char_uuid.Char_UUID_16=MANUFACTURER_NAME_UUID;
 245:Core/Src/services.c ****     ieee_cert_char_uuid.Char_UUID_16=IEEE_CERTIFICATION_UUID;
 246:Core/Src/services.c ****     pnp_id_char_uuid.Char_UUID_16=PNP_ID_UUID;
 247:Core/Src/services.c **** 
 248:Core/Src/services.c **** 
 249:Core/Src/services.c ****     serviceMaxAttributeRecords = 26;
 250:Core/Src/services.c ****     ret = aci_gatt_add_service(UUID_TYPE_16,
 251:Core/Src/services.c ****                 &device_info_service_uuid,
 252:Core/Src/services.c ****                 PRIMARY_SERVICE,
 253:Core/Src/services.c ****                 serviceMaxAttributeRecords,
 254:Core/Src/services.c ****                 &dif_service_handle);
 255:Core/Src/services.c ****     if (ret != BLE_STATUS_SUCCESS)
 256:Core/Src/services.c ****     {
 257:Core/Src/services.c ****        BLUENRG_PRINTF("Error in Adding Device Information SERVICE 0x%02x\n", ret);
 258:Core/Src/services.c ****        return ret;
 259:Core/Src/services.c ****     }
 260:Core/Src/services.c **** 
 261:Core/Src/services.c ****     charValueLength = 20;
 262:Core/Src/services.c ****     encrypKeySize = 10;
 263:Core/Src/services.c ****     ret = aci_gatt_add_char(dif_service_handle,
ARM GAS  C:\Users\IAHERN~1\AppData\Local\Temp\ccXgJWoo.s 			page 12


 264:Core/Src/services.c ****                 UUID_TYPE_16,
 265:Core/Src/services.c ****                 &manufacturer_name_char_uuid,
 266:Core/Src/services.c ****                 charValueLength,
 267:Core/Src/services.c ****                 CHAR_PROP_READ,
 268:Core/Src/services.c ****                 ATTR_PERMISSION_NONE,
 269:Core/Src/services.c ****                 GATT_DONT_NOTIFY_EVENTS,
 270:Core/Src/services.c ****                 encrypKeySize,
 271:Core/Src/services.c ****                 CHAR_VALUE_LEN_CONSTANT,
 272:Core/Src/services.c ****                 &manufacturer_name_char_handle);
 273:Core/Src/services.c ****     if (ret != BLE_STATUS_SUCCESS)
 274:Core/Src/services.c ****     {
 275:Core/Src/services.c ****         BLUENRG_PRINTF("Error in Adding Char (MANUFACTURER) for DEVICE INFORMATION SERVICE 0x%02x\n
 276:Core/Src/services.c ****         return ret;
 277:Core/Src/services.c ****     }
 278:Core/Src/services.c **** 
 279:Core/Src/services.c **** 
 280:Core/Src/services.c **** 
 281:Core/Src/services.c ****     charValueLength = 20;
 282:Core/Src/services.c ****     encrypKeySize = 10;
 283:Core/Src/services.c ****     ret = aci_gatt_add_char(dif_service_handle,
 284:Core/Src/services.c ****                 UUID_TYPE_16,
 285:Core/Src/services.c ****                 &system_id_char_uuid,
 286:Core/Src/services.c ****                 charValueLength,
 287:Core/Src/services.c ****                 CHAR_PROP_READ,
 288:Core/Src/services.c ****                 ATTR_PERMISSION_NONE,
 289:Core/Src/services.c ****                 GATT_DONT_NOTIFY_EVENTS,
 290:Core/Src/services.c ****                 encrypKeySize,
 291:Core/Src/services.c ****                 CHAR_VALUE_LEN_CONSTANT,
 292:Core/Src/services.c ****                 &system_id_char_handle);
 293:Core/Src/services.c ****     if (ret != BLE_STATUS_SUCCESS)
 294:Core/Src/services.c ****     {
 295:Core/Src/services.c ****         BLUENRG_PRINTF("Error in Adding Char (SYSTEM ID) for DEVICE INFORMATION SERVICE 0x%02x\n", 
 296:Core/Src/services.c ****         return ret;
 297:Core/Src/services.c ****     }
 298:Core/Src/services.c **** 
 299:Core/Src/services.c **** 
 300:Core/Src/services.c ****     charValueLength = 20;
 301:Core/Src/services.c ****     encrypKeySize = 10;
 302:Core/Src/services.c ****     ret = aci_gatt_add_char(dif_service_handle,
 303:Core/Src/services.c ****                 UUID_TYPE_16,
 304:Core/Src/services.c ****                 &model_no_char_uuid,
 305:Core/Src/services.c ****                 charValueLength,
 306:Core/Src/services.c ****                 CHAR_PROP_READ,
 307:Core/Src/services.c ****                 ATTR_PERMISSION_NONE,
 308:Core/Src/services.c ****                 GATT_DONT_NOTIFY_EVENTS,
 309:Core/Src/services.c ****                 encrypKeySize,
 310:Core/Src/services.c ****                 CHAR_VALUE_LEN_CONSTANT,
 311:Core/Src/services.c ****                 &model_number_char_handle);
 312:Core/Src/services.c ****     if (ret != BLE_STATUS_SUCCESS)
 313:Core/Src/services.c ****     {
 314:Core/Src/services.c ****         BLUENRG_PRINTF("Error in Adding Char (MODEL NO) for DEVICE INFORMATION SERVICE 0x%02x\n", r
 315:Core/Src/services.c ****         return ret;
 316:Core/Src/services.c ****     }
 317:Core/Src/services.c **** 
 318:Core/Src/services.c ****     charValueLength = 20;
 319:Core/Src/services.c ****     encrypKeySize = 10;
 320:Core/Src/services.c ****     ret = aci_gatt_add_char(dif_service_handle,
ARM GAS  C:\Users\IAHERN~1\AppData\Local\Temp\ccXgJWoo.s 			page 13


 321:Core/Src/services.c ****                 UUID_TYPE_16,
 322:Core/Src/services.c ****                 &serial_no_char_uuid,
 323:Core/Src/services.c ****                 charValueLength,
 324:Core/Src/services.c ****                 CHAR_PROP_READ,
 325:Core/Src/services.c ****                 ATTR_PERMISSION_NONE,
 326:Core/Src/services.c ****                 GATT_DONT_NOTIFY_EVENTS,
 327:Core/Src/services.c ****                 encrypKeySize,
 328:Core/Src/services.c ****                 CHAR_VALUE_LEN_CONSTANT,
 329:Core/Src/services.c ****                 &serial_number_char_handle);
 330:Core/Src/services.c ****     if (ret != BLE_STATUS_SUCCESS)
 331:Core/Src/services.c ****     {
 332:Core/Src/services.c ****         BLUENRG_PRINTF("Error in Adding Char (SERIAL NO) for DEVICE INFORMATION SERVICE 0x%02x\n", 
 333:Core/Src/services.c ****         return ret;
 334:Core/Src/services.c ****     }
 335:Core/Src/services.c **** 
 336:Core/Src/services.c ****     charValueLength = 20;
 337:Core/Src/services.c ****     encrypKeySize = 10;
 338:Core/Src/services.c ****     ret = aci_gatt_add_char(dif_service_handle,
 339:Core/Src/services.c ****                 UUID_TYPE_16,
 340:Core/Src/services.c ****                 &firmware_no_char_uuid,
 341:Core/Src/services.c ****                 charValueLength,
 342:Core/Src/services.c ****                 CHAR_PROP_READ,
 343:Core/Src/services.c ****                 ATTR_PERMISSION_NONE,
 344:Core/Src/services.c ****                 GATT_DONT_NOTIFY_EVENTS,
 345:Core/Src/services.c ****                 encrypKeySize,
 346:Core/Src/services.c ****                 CHAR_VALUE_LEN_CONSTANT,
 347:Core/Src/services.c ****                 &firmware_number_char_handle);
 348:Core/Src/services.c ****     if (ret != BLE_STATUS_SUCCESS)
 349:Core/Src/services.c ****     {
 350:Core/Src/services.c ****         BLUENRG_PRINTF("Error in Adding Char (FIRMWARE NO) for DEVICE INFORMATION SERVICE 0x%02x\n"
 351:Core/Src/services.c ****         return ret;
 352:Core/Src/services.c ****     }
 353:Core/Src/services.c **** 
 354:Core/Src/services.c ****     charValueLength = 20;
 355:Core/Src/services.c ****     encrypKeySize = 10;
 356:Core/Src/services.c ****     ret = aci_gatt_add_char(dif_service_handle,
 357:Core/Src/services.c ****                 UUID_TYPE_16,
 358:Core/Src/services.c ****                 &hardware_no_char_uuid,
 359:Core/Src/services.c ****                 charValueLength,
 360:Core/Src/services.c ****                 CHAR_PROP_READ,
 361:Core/Src/services.c ****                 ATTR_PERMISSION_NONE,
 362:Core/Src/services.c ****                 GATT_DONT_NOTIFY_EVENTS,
 363:Core/Src/services.c ****                 encrypKeySize,
 364:Core/Src/services.c ****                 CHAR_VALUE_LEN_CONSTANT,
 365:Core/Src/services.c ****                 &hardware_number_char_handle);
 366:Core/Src/services.c ****     if (ret != BLE_STATUS_SUCCESS)
 367:Core/Src/services.c ****     {
 368:Core/Src/services.c ****         BLUENRG_PRINTF("Error in Adding Char (HARDWARE NO) for DEVICE INFORMATION SERVICE 0x%02x\n"
 369:Core/Src/services.c ****         return ret;
 370:Core/Src/services.c ****     }
 371:Core/Src/services.c **** 
 372:Core/Src/services.c **** 
 373:Core/Src/services.c **** 
 374:Core/Src/services.c ****     charValueLength = 20;
 375:Core/Src/services.c ****     encrypKeySize = 10;
 376:Core/Src/services.c ****     ret = aci_gatt_add_char(dif_service_handle,
 377:Core/Src/services.c ****                 UUID_TYPE_16,
ARM GAS  C:\Users\IAHERN~1\AppData\Local\Temp\ccXgJWoo.s 			page 14


 378:Core/Src/services.c ****                 &software_no_char_uuid,
 379:Core/Src/services.c ****                 charValueLength,
 380:Core/Src/services.c ****                 CHAR_PROP_READ,
 381:Core/Src/services.c ****                 ATTR_PERMISSION_NONE,
 382:Core/Src/services.c ****                 GATT_DONT_NOTIFY_EVENTS,
 383:Core/Src/services.c ****                 encrypKeySize,
 384:Core/Src/services.c ****                 CHAR_VALUE_LEN_CONSTANT,
 385:Core/Src/services.c ****                 &software_number_char_handle);
 386:Core/Src/services.c ****     if (ret != BLE_STATUS_SUCCESS)
 387:Core/Src/services.c ****     {
 388:Core/Src/services.c ****         BLUENRG_PRINTF("Error in Adding Char (SOFTWARE NO) for DEVICE INFORMATION SERVICE 0x%02x\n"
 389:Core/Src/services.c ****         return ret;
 390:Core/Src/services.c ****     }
 391:Core/Src/services.c **** 
 392:Core/Src/services.c **** 
 393:Core/Src/services.c ****     charValueLength = 20;
 394:Core/Src/services.c ****     encrypKeySize = 10;
 395:Core/Src/services.c ****     ret = aci_gatt_add_char(dif_service_handle,
 396:Core/Src/services.c ****                 UUID_TYPE_16,
 397:Core/Src/services.c ****                 &ieee_cert_char_uuid,
 398:Core/Src/services.c ****                 charValueLength,
 399:Core/Src/services.c ****                 CHAR_PROP_READ,
 400:Core/Src/services.c ****                 ATTR_PERMISSION_NONE,
 401:Core/Src/services.c ****                 GATT_DONT_NOTIFY_EVENTS,
 402:Core/Src/services.c ****                 encrypKeySize,
 403:Core/Src/services.c ****                 CHAR_VALUE_LEN_CONSTANT,
 404:Core/Src/services.c ****                 &ieee_certification_char_handle);
 405:Core/Src/services.c ****     if (ret != BLE_STATUS_SUCCESS)
 406:Core/Src/services.c ****     {
 407:Core/Src/services.c ****         BLUENRG_PRINTF("Error in Adding Char (IEEE CERT) for DEVICE INFORMATION SERVICE 0x%02x\n", 
 408:Core/Src/services.c ****         return ret;
 409:Core/Src/services.c ****     }
 410:Core/Src/services.c **** 
 411:Core/Src/services.c ****     charValueLength = 20;
 412:Core/Src/services.c ****     encrypKeySize = 10;
 413:Core/Src/services.c ****     ret = aci_gatt_add_char(dif_service_handle,
 414:Core/Src/services.c ****                 UUID_TYPE_16,
 415:Core/Src/services.c ****                 &pnp_id_char_uuid,
 416:Core/Src/services.c ****                 charValueLength,
 417:Core/Src/services.c ****                 CHAR_PROP_READ,
 418:Core/Src/services.c ****                 ATTR_PERMISSION_NONE,
 419:Core/Src/services.c ****                 GATT_DONT_NOTIFY_EVENTS,
 420:Core/Src/services.c ****                 encrypKeySize,
 421:Core/Src/services.c ****                 CHAR_VALUE_LEN_CONSTANT,
 422:Core/Src/services.c ****                 &pnp_id_char_handle);
 423:Core/Src/services.c ****     if (ret != BLE_STATUS_SUCCESS)
 424:Core/Src/services.c ****     {
 425:Core/Src/services.c ****         BLUENRG_PRINTF("Error in Adding Char (PNP ID) for DEVICE INFORMATION SERVICE 0x%02x\n", ret
 426:Core/Src/services.c ****         return ret;
 427:Core/Src/services.c ****     }
 428:Core/Src/services.c **** 
 429:Core/Src/services.c **** 
 430:Core/Src/services.c ****     updateDIService(devInf);
 431:Core/Src/services.c ****     BLUENRG_PRINTF("DEVICE INFORMATION SERVICE COMPLETED!!!\r\n");
 432:Core/Src/services.c ****     return BLE_STATUS_SUCCESS;
 433:Core/Src/services.c **** }
 434:Core/Src/services.c **** 
ARM GAS  C:\Users\IAHERN~1\AppData\Local\Temp\ccXgJWoo.s 			page 15


 435:Core/Src/services.c **** 
 436:Core/Src/services.c **** 
 437:Core/Src/services.c **** /**
 438:Core/Src/services.c ****  * @brief Adds Human Interface Device SERVICE (UUID 0x1812) with:
 439:Core/Src/services.c ****  * Characteristic (0x2A4E) PROTOCOL MODE
 440:Core/Src/services.c ****  * Characteristic (0x2A4D) REPORT
 441:Core/Src/services.c ****  * Characteristic (0x2A4B) REPORT MAP (Input, Output, Feature)
 442:Core/Src/services.c ****  *              -Each has 1 (0x2908) Report Reference descriptor
 443:Core/Src/services.c ****  *              -Input has 1 (0x2902) Client Characteristic descriptor
 444:Core/Src/services.c ****  * Characteristic (0x2A22) BOOT KEYBOARD INPUT REPORT
 445:Core/Src/services.c ****  * Characteristic (0x2A32) BOOT KEYBOARD OUTPUT REPORT
 446:Core/Src/services.c ****  * Characteristic (0x2A4A) HID INFORMATION
 447:Core/Src/services.c ****  * Characteristic (0x2A4C) CONTROL POINT
 448:Core/Src/services.c ****  */
 449:Core/Src/services.c **** tBleStatus addHumanInterfaceService()
 450:Core/Src/services.c **** {
 268              		.loc 1 450 1 is_stmt 1 view -0
 269              		.cfi_startproc
 270              		@ args = 0, pretend = 0, frame = 232
 271              		@ frame_needed = 0, uses_anonymous_args = 0
 272 0000 2DE9F047 		push	{r4, r5, r6, r7, r8, r9, r10, lr}
 273              		.cfi_def_cfa_offset 32
 274              		.cfi_offset 4, -32
 275              		.cfi_offset 5, -28
 276              		.cfi_offset 6, -24
 277              		.cfi_offset 7, -20
 278              		.cfi_offset 8, -16
 279              		.cfi_offset 9, -12
 280              		.cfi_offset 10, -8
 281              		.cfi_offset 14, -4
 282 0004 C4B0     		sub	sp, sp, #272
 283              		.cfi_def_cfa_offset 304
 451:Core/Src/services.c **** 	uint8_t ret;
 284              		.loc 1 451 2 view .LVU48
 452:Core/Src/services.c ****     Service_UUID_t hid_service_uuid;
 285              		.loc 1 452 5 view .LVU49
 453:Core/Src/services.c ****     Char_UUID_t protocol_mode_char_uuid,
 286              		.loc 1 453 5 view .LVU50
 454:Core/Src/services.c ****     input_report_char_uuid,
 455:Core/Src/services.c ****     output_report_char_uuid,
 456:Core/Src/services.c ****     feature_report_char_uuid,
 457:Core/Src/services.c ****     report_map_char_uuid,boot_keyboard_input_char_uuid, boot_keyboard_output_char_uuid,
 458:Core/Src/services.c ****     hid_information_char_uuid,hid_control_point_char_uuid;
 459:Core/Src/services.c **** 
 460:Core/Src/services.c ****     Char_Desc_Uuid_t report_reference_descriptor_input_uuid,
 287              		.loc 1 460 5 view .LVU51
 461:Core/Src/services.c ****     report_reference_descriptor_output_uuid,
 462:Core/Src/services.c ****     report_reference_descriptor_feature_uuid,
 463:Core/Src/services.c ****     client_charac_config_descriptor_uuid;
 464:Core/Src/services.c **** 
 465:Core/Src/services.c ****     hid_service_uuid.Service_UUID_16=HUMAN_INTERFACE_DEVICE_SERVICE_UUID;
 288              		.loc 1 465 5 view .LVU52
 289              		.loc 1 465 37 is_stmt 0 view .LVU53
 290 0006 41F61203 		movw	r3, #6162
 291 000a ADF80031 		strh	r3, [sp, #256]	@ movhi
 466:Core/Src/services.c **** 
 467:Core/Src/services.c ****     protocol_mode_char_uuid.Char_UUID_16=PROTOCOL_MODE_CHAR_UUID;
ARM GAS  C:\Users\IAHERN~1\AppData\Local\Temp\ccXgJWoo.s 			page 16


 292              		.loc 1 467 5 is_stmt 1 view .LVU54
 293              		.loc 1 467 41 is_stmt 0 view .LVU55
 294 000e 42F64E23 		movw	r3, #10830
 295 0012 ADF8F030 		strh	r3, [sp, #240]	@ movhi
 468:Core/Src/services.c ****     input_report_char_uuid.Char_UUID_16=REPORT_CHAR_UUID;
 296              		.loc 1 468 5 is_stmt 1 view .LVU56
 297              		.loc 1 468 40 is_stmt 0 view .LVU57
 298 0016 42F64D23 		movw	r3, #10829
 299 001a ADF8E030 		strh	r3, [sp, #224]	@ movhi
 469:Core/Src/services.c ****     output_report_char_uuid.Char_UUID_16=REPORT_CHAR_UUID;
 300              		.loc 1 469 5 is_stmt 1 view .LVU58
 301              		.loc 1 469 41 is_stmt 0 view .LVU59
 302 001e ADF8D030 		strh	r3, [sp, #208]	@ movhi
 470:Core/Src/services.c ****     feature_report_char_uuid.Char_UUID_16=REPORT_CHAR_UUID;
 303              		.loc 1 470 5 is_stmt 1 view .LVU60
 304              		.loc 1 470 42 is_stmt 0 view .LVU61
 305 0022 ADF8C030 		strh	r3, [sp, #192]	@ movhi
 471:Core/Src/services.c ****     report_map_char_uuid.Char_UUID_16=REPORT_MAP_CHAR_UUID;
 306              		.loc 1 471 5 is_stmt 1 view .LVU62
 307              		.loc 1 471 38 is_stmt 0 view .LVU63
 308 0026 42F64B23 		movw	r3, #10827
 309 002a ADF8B030 		strh	r3, [sp, #176]	@ movhi
 472:Core/Src/services.c ****     boot_keyboard_input_char_uuid.Char_UUID_16=BOOT_KEYBOARD_INPUT_REPORT_CHAR_UUID;
 310              		.loc 1 472 5 is_stmt 1 view .LVU64
 311              		.loc 1 472 47 is_stmt 0 view .LVU65
 312 002e 42F62223 		movw	r3, #10786
 313 0032 ADF8A030 		strh	r3, [sp, #160]	@ movhi
 473:Core/Src/services.c ****     boot_keyboard_output_char_uuid.Char_UUID_16=BOOT_KEYBOARD_OUTPUT_REPORT_CHAR_UUID;
 314              		.loc 1 473 5 is_stmt 1 view .LVU66
 315              		.loc 1 473 48 is_stmt 0 view .LVU67
 316 0036 42F63223 		movw	r3, #10802
 317 003a ADF89030 		strh	r3, [sp, #144]	@ movhi
 474:Core/Src/services.c ****     hid_information_char_uuid.Char_UUID_16=HID_INFORMATION_CHAR_UUID;
 318              		.loc 1 474 5 is_stmt 1 view .LVU68
 319              		.loc 1 474 43 is_stmt 0 view .LVU69
 320 003e 42F64A23 		movw	r3, #10826
 321 0042 ADF88030 		strh	r3, [sp, #128]	@ movhi
 475:Core/Src/services.c ****     hid_control_point_char_uuid.Char_UUID_16=HID_CONTROL_POINT_CHAR_UUID;
 322              		.loc 1 475 5 is_stmt 1 view .LVU70
 323              		.loc 1 475 45 is_stmt 0 view .LVU71
 324 0046 42F64C23 		movw	r3, #10828
 325 004a ADF87030 		strh	r3, [sp, #112]	@ movhi
 476:Core/Src/services.c ****     report_reference_descriptor_input_uuid.Char_UUID_16 = HID_REPORT_REFERENCE_CHAR_DESCRIPTOR;
 326              		.loc 1 476 5 is_stmt 1 view .LVU72
 327              		.loc 1 476 57 is_stmt 0 view .LVU73
 328 004e 42F60813 		movw	r3, #10504
 329 0052 ADF86030 		strh	r3, [sp, #96]	@ movhi
 477:Core/Src/services.c ****     report_reference_descriptor_output_uuid.Char_UUID_16 = HID_REPORT_REFERENCE_CHAR_DESCRIPTOR;
 330              		.loc 1 477 5 is_stmt 1 view .LVU74
 331              		.loc 1 477 58 is_stmt 0 view .LVU75
 332 0056 ADF85030 		strh	r3, [sp, #80]	@ movhi
 478:Core/Src/services.c ****     report_reference_descriptor_feature_uuid.Char_UUID_16 = HID_REPORT_REFERENCE_CHAR_DESCRIPTOR;
 333              		.loc 1 478 5 is_stmt 1 view .LVU76
 334              		.loc 1 478 59 is_stmt 0 view .LVU77
 335 005a ADF84030 		strh	r3, [sp, #64]	@ movhi
 479:Core/Src/services.c ****     client_charac_config_descriptor_uuid.Char_UUID_16 = HID_CLIENT_CHARACTERISTIC_CON_DESCRIPTOR;
 336              		.loc 1 479 5 is_stmt 1 view .LVU78
ARM GAS  C:\Users\IAHERN~1\AppData\Local\Temp\ccXgJWoo.s 			page 17


 337              		.loc 1 479 55 is_stmt 0 view .LVU79
 338 005e 42F60213 		movw	r3, #10498
 339 0062 ADF83030 		strh	r3, [sp, #48]	@ movhi
 480:Core/Src/services.c **** 
 481:Core/Src/services.c **** 
 482:Core/Src/services.c ****     serviceMaxAttributeRecords = 26;
 340              		.loc 1 482 5 is_stmt 1 view .LVU80
 341              		.loc 1 482 32 is_stmt 0 view .LVU81
 342 0066 1A23     		movs	r3, #26
 343 0068 A84A     		ldr	r2, .L37
 344 006a 1370     		strb	r3, [r2]
 483:Core/Src/services.c ****     ret = aci_gatt_add_service(UUID_TYPE_16,
 345              		.loc 1 483 5 is_stmt 1 view .LVU82
 346              		.loc 1 483 11 is_stmt 0 view .LVU83
 347 006c A84A     		ldr	r2, .L37+4
 348 006e 0092     		str	r2, [sp]
 349 0070 0122     		movs	r2, #1
 350 0072 40A9     		add	r1, sp, #256
 351 0074 1046     		mov	r0, r2
 352 0076 FFF7FEFF 		bl	aci_gatt_add_service
 353              	.LVL16:
 484:Core/Src/services.c ****                     &hid_service_uuid,
 485:Core/Src/services.c ****                     PRIMARY_SERVICE,
 486:Core/Src/services.c ****                     serviceMaxAttributeRecords,
 487:Core/Src/services.c ****                     &hid_service_handle);
 488:Core/Src/services.c ****     if (ret != BLE_STATUS_SUCCESS)
 354              		.loc 1 488 5 is_stmt 1 view .LVU84
 355              		.loc 1 488 8 is_stmt 0 view .LVU85
 356 007a 0028     		cmp	r0, #0
 357 007c 40F0A381 		bne	.L26
 489:Core/Src/services.c ****     {
 490:Core/Src/services.c ****        BLUENRG_PRINTF("Error in Adding Human Interface SERVICE 0x%02x\n", ret);
 491:Core/Src/services.c ****        return ret;
 492:Core/Src/services.c ****     }
 493:Core/Src/services.c **** 
 494:Core/Src/services.c ****     //INPUT REPORT
 495:Core/Src/services.c ****     charValueLength = 8;
 358              		.loc 1 495 5 is_stmt 1 view .LVU86
 359              		.loc 1 495 21 is_stmt 0 view .LVU87
 360 0080 0823     		movs	r3, #8
 361 0082 A44A     		ldr	r2, .L37+8
 362 0084 1380     		strh	r3, [r2]	@ movhi
 496:Core/Src/services.c ****         encrypKeySize = 10;
 363              		.loc 1 496 9 is_stmt 1 view .LVU88
 364              		.loc 1 496 23 is_stmt 0 view .LVU89
 365 0086 0A22     		movs	r2, #10
 366 0088 A349     		ldr	r1, .L37+12
 367 008a 0A70     		strb	r2, [r1]
 497:Core/Src/services.c ****         ret = aci_gatt_add_char(hid_service_handle,
 368              		.loc 1 497 9 is_stmt 1 view .LVU90
 369              		.loc 1 497 15 is_stmt 0 view .LVU91
 370 008c A349     		ldr	r1, .L37+16
 371 008e 0591     		str	r1, [sp, #20]
 372 0090 0021     		movs	r1, #0
 373 0092 0491     		str	r1, [sp, #16]
 374 0094 0392     		str	r2, [sp, #12]
 375 0096 0121     		movs	r1, #1
ARM GAS  C:\Users\IAHERN~1\AppData\Local\Temp\ccXgJWoo.s 			page 18


 376 0098 0291     		str	r1, [sp, #8]
 377 009a 2422     		movs	r2, #36
 378 009c 0192     		str	r2, [sp, #4]
 379 009e 1A22     		movs	r2, #26
 380 00a0 0092     		str	r2, [sp]
 381 00a2 38AA     		add	r2, sp, #224
 382 00a4 9A48     		ldr	r0, .L37+4
 383              	.LVL17:
 384              		.loc 1 497 15 view .LVU92
 385 00a6 0088     		ldrh	r0, [r0]
 386 00a8 FFF7FEFF 		bl	aci_gatt_add_char
 387              	.LVL18:
 498:Core/Src/services.c ****                             UUID_TYPE_16,
 499:Core/Src/services.c ****                             &input_report_char_uuid,
 500:Core/Src/services.c ****                             charValueLength,
 501:Core/Src/services.c ****                             CHAR_PROP_READ | CHAR_PROP_NOTIFY |CHAR_PROP_WRITE,
 502:Core/Src/services.c ****                             ATTR_PERMISSION,
 503:Core/Src/services.c ****                             GATT_NOTIFY_ATTRIBUTE_WRITE,
 504:Core/Src/services.c ****                             encrypKeySize,
 505:Core/Src/services.c ****                             CHAR_VALUE_LEN_CONSTANT,
 506:Core/Src/services.c ****                             &input_report_char_handle);
 507:Core/Src/services.c ****         if (ret != BLE_STATUS_SUCCESS)
 388              		.loc 1 507 9 is_stmt 1 view .LVU93
 389              		.loc 1 507 12 is_stmt 0 view .LVU94
 390 00ac 0446     		mov	r4, r0
 391 00ae 0028     		cmp	r0, #0
 392 00b0 40F09281 		bne	.L27
 508:Core/Src/services.c ****         {
 509:Core/Src/services.c ****             BLUENRG_PRINTF("Error in Adding Char (INPUT REPORT) for HID SERVICE 0x%02x\n", ret);
 510:Core/Src/services.c ****             return ret;
 511:Core/Src/services.c ****         }
 512:Core/Src/services.c **** //adding Client Characteristic Config Descriptor for input report
 513:Core/Src/services.c ****         ret = aci_gatt_add_char_desc(
 393              		.loc 1 513 9 is_stmt 1 view .LVU95
 394              		.loc 1 513 15 is_stmt 0 view .LVU96
 395 00b4 DFF864A2 		ldr	r10, .L37+16
 396 00b8 954F     		ldr	r7, .L37+4
 397 00ba 994B     		ldr	r3, .L37+20
 398 00bc 0893     		str	r3, [sp, #32]
 399 00be 0025     		movs	r5, #0
 400 00c0 0795     		str	r5, [sp, #28]
 401 00c2 0A26     		movs	r6, #10
 402 00c4 0696     		str	r6, [sp, #24]
 403 00c6 0595     		str	r5, [sp, #20]
 404 00c8 0124     		movs	r4, #1
 405 00ca 0494     		str	r4, [sp, #16]
 406 00cc 4FF02408 		mov	r8, #36
 407 00d0 CDF80C80 		str	r8, [sp, #12]
 408 00d4 0295     		str	r5, [sp, #8]
 409 00d6 4FF00509 		mov	r9, #5
 410 00da CDF80490 		str	r9, [sp, #4]
 411 00de CDF80090 		str	r9, [sp]
 412 00e2 0CAB     		add	r3, sp, #48
 413 00e4 2246     		mov	r2, r4
 414 00e6 BAF80010 		ldrh	r1, [r10]
 415 00ea 3888     		ldrh	r0, [r7]
 416              	.LVL19:
ARM GAS  C:\Users\IAHERN~1\AppData\Local\Temp\ccXgJWoo.s 			page 19


 417              		.loc 1 513 15 view .LVU97
 418 00ec FFF7FEFF 		bl	aci_gatt_add_char_desc
 419              	.LVL20:
 514:Core/Src/services.c ****                 hid_service_handle,
 515:Core/Src/services.c ****                 input_report_char_handle,
 516:Core/Src/services.c ****                 UUID_TYPE_16,
 517:Core/Src/services.c ****                 &client_charac_config_descriptor_uuid,
 518:Core/Src/services.c ****                 5,
 519:Core/Src/services.c ****                 5,
 520:Core/Src/services.c ****                 0,
 521:Core/Src/services.c ****                 ATTR_PERMISSION,
 522:Core/Src/services.c ****                 ATTR_ACCESS_READ_ONLY,
 523:Core/Src/services.c ****                 GATT_DONT_NOTIFY_EVENTS,
 524:Core/Src/services.c ****                 10,
 525:Core/Src/services.c ****                 CHAR_VALUE_LEN_CONSTANT,
 526:Core/Src/services.c ****                 &client_char_config_descriptor_handle
 527:Core/Src/services.c ****         );
 528:Core/Src/services.c **** 
 529:Core/Src/services.c **** //adding report reference characteristic descriptor for INPUT REPORT
 530:Core/Src/services.c ****         uint8_t reportType[2] = {0,1}; //input report
 420              		.loc 1 530 9 is_stmt 1 view .LVU98
 421              		.loc 1 530 17 is_stmt 0 view .LVU99
 422 00f0 4FF48073 		mov	r3, #256
 423 00f4 ADF82C30 		strh	r3, [sp, #44]	@ movhi
 531:Core/Src/services.c ****         ret = aci_gatt_add_char_desc(
 424              		.loc 1 531 9 is_stmt 1 view .LVU100
 425              		.loc 1 531 15 is_stmt 0 view .LVU101
 426 00f8 8A4B     		ldr	r3, .L37+24
 427 00fa 0893     		str	r3, [sp, #32]
 428 00fc 0795     		str	r5, [sp, #28]
 429 00fe 0696     		str	r6, [sp, #24]
 430 0100 0595     		str	r5, [sp, #20]
 431 0102 0494     		str	r4, [sp, #16]
 432 0104 CDF80C80 		str	r8, [sp, #12]
 433 0108 0BAB     		add	r3, sp, #44
 434 010a 0293     		str	r3, [sp, #8]
 435 010c 0223     		movs	r3, #2
 436 010e 0193     		str	r3, [sp, #4]
 437 0110 CDF80090 		str	r9, [sp]
 438 0114 18AB     		add	r3, sp, #96
 439 0116 2246     		mov	r2, r4
 440 0118 BAF80010 		ldrh	r1, [r10]
 441 011c 3888     		ldrh	r0, [r7]
 442 011e FFF7FEFF 		bl	aci_gatt_add_char_desc
 443              	.LVL21:
 532:Core/Src/services.c ****                 hid_service_handle,
 533:Core/Src/services.c ****                 input_report_char_handle,
 534:Core/Src/services.c ****                 UUID_TYPE_16,
 535:Core/Src/services.c ****                 &report_reference_descriptor_input_uuid,
 536:Core/Src/services.c ****                 5,
 537:Core/Src/services.c ****                 2,
 538:Core/Src/services.c ****                 reportType,
 539:Core/Src/services.c ****                 ATTR_PERMISSION,
 540:Core/Src/services.c ****                 ATTR_ACCESS_READ_ONLY,
 541:Core/Src/services.c ****                 GATT_DONT_NOTIFY_EVENTS,
 542:Core/Src/services.c ****                 10,
 543:Core/Src/services.c ****                 CHAR_VALUE_LEN_CONSTANT,
ARM GAS  C:\Users\IAHERN~1\AppData\Local\Temp\ccXgJWoo.s 			page 20


 544:Core/Src/services.c ****                 &report_reference_char_descriptor_handle_input
 545:Core/Src/services.c ****         );
 546:Core/Src/services.c **** 
 547:Core/Src/services.c **** 
 548:Core/Src/services.c **** 
 549:Core/Src/services.c ****         //OUTPUT REPORT
 550:Core/Src/services.c ****         charValueLength = 8;
 444              		.loc 1 550 9 is_stmt 1 view .LVU102
 445              		.loc 1 550 25 is_stmt 0 view .LVU103
 446 0122 0823     		movs	r3, #8
 447 0124 7B4A     		ldr	r2, .L37+8
 448 0126 1380     		strh	r3, [r2]	@ movhi
 551:Core/Src/services.c ****             encrypKeySize = 10;
 449              		.loc 1 551 13 is_stmt 1 view .LVU104
 450              		.loc 1 551 27 is_stmt 0 view .LVU105
 451 0128 7B4A     		ldr	r2, .L37+12
 452 012a 1670     		strb	r6, [r2]
 552:Core/Src/services.c ****             ret = aci_gatt_add_char(hid_service_handle,
 453              		.loc 1 552 13 is_stmt 1 view .LVU106
 454              		.loc 1 552 19 is_stmt 0 view .LVU107
 455 012c 7E4A     		ldr	r2, .L37+28
 456 012e 0592     		str	r2, [sp, #20]
 457 0130 0495     		str	r5, [sp, #16]
 458 0132 0396     		str	r6, [sp, #12]
 459 0134 0294     		str	r4, [sp, #8]
 460 0136 CDF80480 		str	r8, [sp, #4]
 461 013a 0E22     		movs	r2, #14
 462 013c 0092     		str	r2, [sp]
 463 013e 34AA     		add	r2, sp, #208
 464 0140 2146     		mov	r1, r4
 465 0142 3888     		ldrh	r0, [r7]
 466 0144 FFF7FEFF 		bl	aci_gatt_add_char
 467              	.LVL22:
 553:Core/Src/services.c ****                                 UUID_TYPE_16,
 554:Core/Src/services.c ****                                 &output_report_char_uuid,
 555:Core/Src/services.c ****                                 charValueLength,
 556:Core/Src/services.c ****                                 CHAR_PROP_READ | CHAR_PROP_WRITE_WITHOUT_RESP |CHAR_PROP_WRITE,
 557:Core/Src/services.c ****                                 ATTR_PERMISSION,
 558:Core/Src/services.c ****                                 GATT_NOTIFY_ATTRIBUTE_WRITE,
 559:Core/Src/services.c ****                                 encrypKeySize,
 560:Core/Src/services.c ****                                 CHAR_VALUE_LEN_CONSTANT,
 561:Core/Src/services.c ****                                 &output_report_char_handle);
 562:Core/Src/services.c ****             if (ret != BLE_STATUS_SUCCESS)
 468              		.loc 1 562 13 is_stmt 1 view .LVU108
 469              		.loc 1 562 16 is_stmt 0 view .LVU109
 470 0148 0446     		mov	r4, r0
 471 014a 0028     		cmp	r0, #0
 472 014c 40F04981 		bne	.L28
 563:Core/Src/services.c ****             {
 564:Core/Src/services.c ****                 BLUENRG_PRINTF("Error in Adding Char (OUTPUT REPORT) for HID SERVICE 0x%02x\n", ret
 565:Core/Src/services.c ****                 return ret;
 566:Core/Src/services.c ****             }
 567:Core/Src/services.c **** 
 568:Core/Src/services.c **** 
 569:Core/Src/services.c **** 
 570:Core/Src/services.c ****             //adding report reference characteristic descriptor for output REPORT
 571:Core/Src/services.c ****                     reportType[1] = 2; //output report
ARM GAS  C:\Users\IAHERN~1\AppData\Local\Temp\ccXgJWoo.s 			page 21


 473              		.loc 1 571 21 is_stmt 1 view .LVU110
 474              		.loc 1 571 35 is_stmt 0 view .LVU111
 475 0150 0223     		movs	r3, #2
 476 0152 8DF82D30 		strb	r3, [sp, #45]
 572:Core/Src/services.c ****                     ret = aci_gatt_add_char_desc(
 477              		.loc 1 572 21 is_stmt 1 view .LVU112
 478              		.loc 1 572 27 is_stmt 0 view .LVU113
 479 0156 6E4E     		ldr	r6, .L37+4
 480 0158 744A     		ldr	r2, .L37+32
 481 015a 0892     		str	r2, [sp, #32]
 482 015c 4FF00008 		mov	r8, #0
 483 0160 CDF81C80 		str	r8, [sp, #28]
 484 0164 0A25     		movs	r5, #10
 485 0166 0695     		str	r5, [sp, #24]
 486 0168 0124     		movs	r4, #1
 487 016a 0594     		str	r4, [sp, #20]
 488 016c 0494     		str	r4, [sp, #16]
 489 016e 2427     		movs	r7, #36
 490 0170 0397     		str	r7, [sp, #12]
 491 0172 0BAA     		add	r2, sp, #44
 492 0174 0292     		str	r2, [sp, #8]
 493 0176 0193     		str	r3, [sp, #4]
 494 0178 0523     		movs	r3, #5
 495 017a 0093     		str	r3, [sp]
 496 017c 14AB     		add	r3, sp, #80
 497 017e 2246     		mov	r2, r4
 498 0180 6649     		ldr	r1, .L37+16
 499 0182 0988     		ldrh	r1, [r1]
 500 0184 3088     		ldrh	r0, [r6]
 501              	.LVL23:
 502              		.loc 1 572 27 view .LVU114
 503 0186 FFF7FEFF 		bl	aci_gatt_add_char_desc
 504              	.LVL24:
 573:Core/Src/services.c ****                             hid_service_handle,
 574:Core/Src/services.c ****                             input_report_char_handle,
 575:Core/Src/services.c ****                             UUID_TYPE_16,
 576:Core/Src/services.c ****                             &report_reference_descriptor_output_uuid,
 577:Core/Src/services.c ****                             5,
 578:Core/Src/services.c ****                             2,
 579:Core/Src/services.c ****                             reportType,
 580:Core/Src/services.c ****                             ATTR_PERMISSION,
 581:Core/Src/services.c ****                             ATTR_ACCESS_READ_ONLY,
 582:Core/Src/services.c ****                             GATT_NOTIFY_ATTRIBUTE_WRITE,
 583:Core/Src/services.c ****                             10,
 584:Core/Src/services.c ****                             CHAR_VALUE_LEN_CONSTANT,
 585:Core/Src/services.c ****                             &report_reference_char_descriptor_handle_output
 586:Core/Src/services.c ****                     );
 587:Core/Src/services.c **** 
 588:Core/Src/services.c **** 
 589:Core/Src/services.c **** 
 590:Core/Src/services.c **** 
 591:Core/Src/services.c ****             //FEATURE REPORT
 592:Core/Src/services.c ****             charValueLength = 8;
 505              		.loc 1 592 13 is_stmt 1 view .LVU115
 506              		.loc 1 592 29 is_stmt 0 view .LVU116
 507 018a 0823     		movs	r3, #8
 508 018c 614A     		ldr	r2, .L37+8
ARM GAS  C:\Users\IAHERN~1\AppData\Local\Temp\ccXgJWoo.s 			page 22


 509 018e 1380     		strh	r3, [r2]	@ movhi
 593:Core/Src/services.c ****                 encrypKeySize = 10;
 510              		.loc 1 593 17 is_stmt 1 view .LVU117
 511              		.loc 1 593 31 is_stmt 0 view .LVU118
 512 0190 614A     		ldr	r2, .L37+12
 513 0192 1570     		strb	r5, [r2]
 594:Core/Src/services.c ****                 ret = aci_gatt_add_char(hid_service_handle,
 514              		.loc 1 594 17 is_stmt 1 view .LVU119
 515              		.loc 1 594 23 is_stmt 0 view .LVU120
 516 0194 664A     		ldr	r2, .L37+36
 517 0196 0592     		str	r2, [sp, #20]
 518 0198 CDF81080 		str	r8, [sp, #16]
 519 019c 0395     		str	r5, [sp, #12]
 520 019e 0294     		str	r4, [sp, #8]
 521 01a0 0197     		str	r7, [sp, #4]
 522 01a2 0E22     		movs	r2, #14
 523 01a4 0092     		str	r2, [sp]
 524 01a6 30AA     		add	r2, sp, #192
 525 01a8 2146     		mov	r1, r4
 526 01aa 3088     		ldrh	r0, [r6]
 527 01ac FFF7FEFF 		bl	aci_gatt_add_char
 528              	.LVL25:
 595:Core/Src/services.c ****                                     UUID_TYPE_16,
 596:Core/Src/services.c ****                                     &feature_report_char_uuid,
 597:Core/Src/services.c ****                                     charValueLength,
 598:Core/Src/services.c ****                                     CHAR_PROP_READ | CHAR_PROP_WRITE_WITHOUT_RESP |CHAR_PROP_WRITE,
 599:Core/Src/services.c ****                                     ATTR_PERMISSION,
 600:Core/Src/services.c ****                     GATT_NOTIFY_ATTRIBUTE_WRITE,
 601:Core/Src/services.c ****                                     encrypKeySize,
 602:Core/Src/services.c ****                                     CHAR_VALUE_LEN_CONSTANT,
 603:Core/Src/services.c ****                                     &feature_report_char_handle
 604:Core/Src/services.c ****                                     );
 605:Core/Src/services.c ****                 if (ret != BLE_STATUS_SUCCESS)
 529              		.loc 1 605 17 is_stmt 1 view .LVU121
 530              		.loc 1 605 20 is_stmt 0 view .LVU122
 531 01b0 0446     		mov	r4, r0
 532 01b2 0028     		cmp	r0, #0
 533 01b4 40F01A81 		bne	.L29
 606:Core/Src/services.c ****                 {
 607:Core/Src/services.c ****                     BLUENRG_PRINTF("Error in Adding Char (FEATURE REPORT) for HID SERVICE 0x%02x\n"
 608:Core/Src/services.c ****                     return ret;
 609:Core/Src/services.c ****                 }
 610:Core/Src/services.c **** 
 611:Core/Src/services.c ****                 //adding report reference characteristic descriptor for feature REPORT
 612:Core/Src/services.c ****                         reportType[1] = 3; //feature report
 534              		.loc 1 612 25 is_stmt 1 view .LVU123
 535              		.loc 1 612 39 is_stmt 0 view .LVU124
 536 01b8 0323     		movs	r3, #3
 537 01ba 8DF82D30 		strb	r3, [sp, #45]
 613:Core/Src/services.c ****                         ret = aci_gatt_add_char_desc(
 538              		.loc 1 613 25 is_stmt 1 view .LVU125
 539              		.loc 1 613 31 is_stmt 0 view .LVU126
 540 01be 544F     		ldr	r7, .L37+4
 541 01c0 5C4B     		ldr	r3, .L37+40
 542 01c2 0893     		str	r3, [sp, #32]
 543 01c4 0026     		movs	r6, #0
 544 01c6 0796     		str	r6, [sp, #28]
ARM GAS  C:\Users\IAHERN~1\AppData\Local\Temp\ccXgJWoo.s 			page 23


 545 01c8 0A25     		movs	r5, #10
 546 01ca 0695     		str	r5, [sp, #24]
 547 01cc 0596     		str	r6, [sp, #20]
 548 01ce 0124     		movs	r4, #1
 549 01d0 0494     		str	r4, [sp, #16]
 550 01d2 4FF02408 		mov	r8, #36
 551 01d6 CDF80C80 		str	r8, [sp, #12]
 552 01da 0BAB     		add	r3, sp, #44
 553 01dc 0293     		str	r3, [sp, #8]
 554 01de 0223     		movs	r3, #2
 555 01e0 0193     		str	r3, [sp, #4]
 556 01e2 0523     		movs	r3, #5
 557 01e4 0093     		str	r3, [sp]
 558 01e6 10AB     		add	r3, sp, #64
 559 01e8 2246     		mov	r2, r4
 560 01ea 4C49     		ldr	r1, .L37+16
 561 01ec 0988     		ldrh	r1, [r1]
 562 01ee 3888     		ldrh	r0, [r7]
 563              	.LVL26:
 564              		.loc 1 613 31 view .LVU127
 565 01f0 FFF7FEFF 		bl	aci_gatt_add_char_desc
 566              	.LVL27:
 614:Core/Src/services.c ****                                 hid_service_handle,
 615:Core/Src/services.c ****                                 input_report_char_handle,
 616:Core/Src/services.c ****                                 UUID_TYPE_16,
 617:Core/Src/services.c ****                                 &report_reference_descriptor_feature_uuid,
 618:Core/Src/services.c ****                                 5,
 619:Core/Src/services.c ****                                 2,
 620:Core/Src/services.c ****                                 reportType,
 621:Core/Src/services.c ****                                 ATTR_PERMISSION,
 622:Core/Src/services.c ****                                 ATTR_ACCESS_READ_ONLY,
 623:Core/Src/services.c ****                                 GATT_DONT_NOTIFY_EVENTS,
 624:Core/Src/services.c ****                                 10,
 625:Core/Src/services.c ****                                 CHAR_VALUE_LEN_CONSTANT,
 626:Core/Src/services.c ****                                 &report_reference_char_descriptor_handle_feature
 627:Core/Src/services.c ****                         );
 628:Core/Src/services.c **** 
 629:Core/Src/services.c **** 
 630:Core/Src/services.c ****     charValueLength = 1;
 567              		.loc 1 630 5 is_stmt 1 view .LVU128
 568              		.loc 1 630 21 is_stmt 0 view .LVU129
 569 01f4 474B     		ldr	r3, .L37+8
 570 01f6 1C80     		strh	r4, [r3]	@ movhi
 631:Core/Src/services.c ****     encrypKeySize = 10;
 571              		.loc 1 631 5 is_stmt 1 view .LVU130
 572              		.loc 1 631 19 is_stmt 0 view .LVU131
 573 01f8 474B     		ldr	r3, .L37+12
 574 01fa 1D70     		strb	r5, [r3]
 632:Core/Src/services.c ****     ret = aci_gatt_add_char(hid_service_handle,
 575              		.loc 1 632 5 is_stmt 1 view .LVU132
 576              		.loc 1 632 11 is_stmt 0 view .LVU133
 577 01fc 4E4B     		ldr	r3, .L37+44
 578 01fe 0593     		str	r3, [sp, #20]
 579 0200 0496     		str	r6, [sp, #16]
 580 0202 0395     		str	r5, [sp, #12]
 581 0204 0294     		str	r4, [sp, #8]
 582 0206 CDF80480 		str	r8, [sp, #4]
ARM GAS  C:\Users\IAHERN~1\AppData\Local\Temp\ccXgJWoo.s 			page 24


 583 020a 0623     		movs	r3, #6
 584 020c 0093     		str	r3, [sp]
 585 020e 2346     		mov	r3, r4
 586 0210 3CAA     		add	r2, sp, #240
 587 0212 2146     		mov	r1, r4
 588 0214 3888     		ldrh	r0, [r7]
 589 0216 FFF7FEFF 		bl	aci_gatt_add_char
 590              	.LVL28:
 633:Core/Src/services.c ****                         UUID_TYPE_16,
 634:Core/Src/services.c ****                         &protocol_mode_char_uuid,
 635:Core/Src/services.c ****                         charValueLength,
 636:Core/Src/services.c ****                         CHAR_PROP_READ | CHAR_PROP_WRITE_WITHOUT_RESP,
 637:Core/Src/services.c ****                         ATTR_PERMISSION,
 638:Core/Src/services.c ****                         GATT_NOTIFY_ATTRIBUTE_WRITE,
 639:Core/Src/services.c ****                         encrypKeySize,
 640:Core/Src/services.c ****                         CHAR_VALUE_LEN_CONSTANT,
 641:Core/Src/services.c ****                         &protocol_mode_char_handle);
 642:Core/Src/services.c ****     if (ret != BLE_STATUS_SUCCESS)
 591              		.loc 1 642 5 is_stmt 1 view .LVU134
 592              		.loc 1 642 8 is_stmt 0 view .LVU135
 593 021a 0446     		mov	r4, r0
 594 021c 0028     		cmp	r0, #0
 595 021e 40F0EA80 		bne	.L30
 643:Core/Src/services.c ****     {
 644:Core/Src/services.c ****         BLUENRG_PRINTF("Error in Adding Char (PROTOCOL MODE) for HID SERVICE 0x%02x\n", ret);
 645:Core/Src/services.c ****         return ret;
 646:Core/Src/services.c ****     }
 647:Core/Src/services.c **** 
 648:Core/Src/services.c **** 
 649:Core/Src/services.c ****     charValueLength = sizeof(reportDesc);
 596              		.loc 1 649 5 is_stmt 1 view .LVU136
 597              		.loc 1 649 21 is_stmt 0 view .LVU137
 598 0222 3F23     		movs	r3, #63
 599 0224 3B4A     		ldr	r2, .L37+8
 600 0226 1380     		strh	r3, [r2]	@ movhi
 650:Core/Src/services.c ****     encrypKeySize = 10;
 601              		.loc 1 650 5 is_stmt 1 view .LVU138
 602              		.loc 1 650 19 is_stmt 0 view .LVU139
 603 0228 0A21     		movs	r1, #10
 604 022a 3B4A     		ldr	r2, .L37+12
 605 022c 1170     		strb	r1, [r2]
 651:Core/Src/services.c ****     ret = aci_gatt_add_char(hid_service_handle,
 606              		.loc 1 651 5 is_stmt 1 view .LVU140
 607              		.loc 1 651 11 is_stmt 0 view .LVU141
 608 022e 434A     		ldr	r2, .L37+48
 609 0230 0592     		str	r2, [sp, #20]
 610 0232 0022     		movs	r2, #0
 611 0234 0492     		str	r2, [sp, #16]
 612 0236 0391     		str	r1, [sp, #12]
 613 0238 0292     		str	r2, [sp, #8]
 614 023a 2422     		movs	r2, #36
 615 023c 0192     		str	r2, [sp, #4]
 616 023e 0622     		movs	r2, #6
 617 0240 0092     		str	r2, [sp]
 618 0242 2CAA     		add	r2, sp, #176
 619 0244 0121     		movs	r1, #1
 620 0246 3248     		ldr	r0, .L37+4
ARM GAS  C:\Users\IAHERN~1\AppData\Local\Temp\ccXgJWoo.s 			page 25


 621              	.LVL29:
 622              		.loc 1 651 11 view .LVU142
 623 0248 0088     		ldrh	r0, [r0]
 624 024a FFF7FEFF 		bl	aci_gatt_add_char
 625              	.LVL30:
 652:Core/Src/services.c ****                         UUID_TYPE_16,
 653:Core/Src/services.c ****                         &report_map_char_uuid,
 654:Core/Src/services.c ****                         charValueLength,
 655:Core/Src/services.c ****                         CHAR_PROP_READ | CHAR_PROP_WRITE_WITHOUT_RESP,
 656:Core/Src/services.c ****                         ATTR_PERMISSION,
 657:Core/Src/services.c ****                         GATT_DONT_NOTIFY_EVENTS,
 658:Core/Src/services.c ****                         encrypKeySize,
 659:Core/Src/services.c ****                         CHAR_VALUE_LEN_CONSTANT,
 660:Core/Src/services.c ****                         &report_map_char_handle);
 661:Core/Src/services.c ****     if (ret != BLE_STATUS_SUCCESS)
 626              		.loc 1 661 5 is_stmt 1 view .LVU143
 627              		.loc 1 661 8 is_stmt 0 view .LVU144
 628 024e 0446     		mov	r4, r0
 629 0250 0028     		cmp	r0, #0
 630 0252 40F0D580 		bne	.L31
 662:Core/Src/services.c ****     {
 663:Core/Src/services.c ****         BLUENRG_PRINTF("Error in Adding Char (REPORT MAP) for HID SERVICE 0x%02x\n", ret);
 664:Core/Src/services.c ****         return ret;
 665:Core/Src/services.c ****     }
 666:Core/Src/services.c **** 
 667:Core/Src/services.c ****     ret = aci_gatt_update_char_value_ext(
 631              		.loc 1 667 5 is_stmt 1 view .LVU145
 632              		.loc 1 667 11 is_stmt 0 view .LVU146
 633 0256 2F4B     		ldr	r3, .L37+8
 634 0258 1B88     		ldrh	r3, [r3]
 635 025a 394A     		ldr	r2, .L37+52
 636 025c 0392     		str	r2, [sp, #12]
 637 025e DAB2     		uxtb	r2, r3
 638 0260 0292     		str	r2, [sp, #8]
 639 0262 0020     		movs	r0, #0
 640              	.LVL31:
 641              		.loc 1 667 11 view .LVU147
 642 0264 0190     		str	r0, [sp, #4]
 643 0266 0093     		str	r3, [sp]
 644 0268 0346     		mov	r3, r0
 645 026a 344A     		ldr	r2, .L37+48
 646 026c 1288     		ldrh	r2, [r2]
 647 026e 2849     		ldr	r1, .L37+4
 648 0270 0988     		ldrh	r1, [r1]
 649 0272 FFF7FEFF 		bl	aci_gatt_update_char_value_ext
 650              	.LVL32:
 668:Core/Src/services.c ****                 0,
 669:Core/Src/services.c **** 				hid_service_handle,
 670:Core/Src/services.c **** 				report_map_char_handle,
 671:Core/Src/services.c ****                 GATT_LOCAL_UPDATE,
 672:Core/Src/services.c **** 				charValueLength,
 673:Core/Src/services.c ****                 0,
 674:Core/Src/services.c **** 				charValueLength,
 675:Core/Src/services.c **** 				reportDesc);
 676:Core/Src/services.c **** 
 677:Core/Src/services.c **** 
 678:Core/Src/services.c ****     if (ret != BLE_STATUS_SUCCESS)
ARM GAS  C:\Users\IAHERN~1\AppData\Local\Temp\ccXgJWoo.s 			page 26


 651              		.loc 1 678 5 is_stmt 1 view .LVU148
 652              		.loc 1 678 8 is_stmt 0 view .LVU149
 653 0276 0446     		mov	r4, r0
 654 0278 0028     		cmp	r0, #0
 655 027a 40F0C680 		bne	.L32
 679:Core/Src/services.c ****         {
 680:Core/Src/services.c ****             BLUENRG_PRINTF("ERROR  at updating report map: 0x%02x\n", ret);
 681:Core/Src/services.c ****             return ret;
 682:Core/Src/services.c ****         }
 683:Core/Src/services.c **** 
 684:Core/Src/services.c ****     charValueLength = 20;
 656              		.loc 1 684 5 is_stmt 1 view .LVU150
 657              		.loc 1 684 21 is_stmt 0 view .LVU151
 658 027e 1423     		movs	r3, #20
 659 0280 244A     		ldr	r2, .L37+8
 660 0282 1380     		strh	r3, [r2]	@ movhi
 685:Core/Src/services.c ****     encrypKeySize = 10;
 661              		.loc 1 685 5 is_stmt 1 view .LVU152
 662              		.loc 1 685 19 is_stmt 0 view .LVU153
 663 0284 0A22     		movs	r2, #10
 664 0286 2449     		ldr	r1, .L37+12
 665 0288 0A70     		strb	r2, [r1]
 686:Core/Src/services.c ****     ret = aci_gatt_add_char(hid_service_handle,
 666              		.loc 1 686 5 is_stmt 1 view .LVU154
 667              		.loc 1 686 11 is_stmt 0 view .LVU155
 668 028a 2E49     		ldr	r1, .L37+56
 669 028c 0591     		str	r1, [sp, #20]
 670 028e 0021     		movs	r1, #0
 671 0290 0491     		str	r1, [sp, #16]
 672 0292 0392     		str	r2, [sp, #12]
 673 0294 0121     		movs	r1, #1
 674 0296 0291     		str	r1, [sp, #8]
 675 0298 2422     		movs	r2, #36
 676 029a 0192     		str	r2, [sp, #4]
 677 029c 1222     		movs	r2, #18
 678 029e 0092     		str	r2, [sp]
 679 02a0 28AA     		add	r2, sp, #160
 680 02a2 1B48     		ldr	r0, .L37+4
 681              	.LVL33:
 682              		.loc 1 686 11 view .LVU156
 683 02a4 0088     		ldrh	r0, [r0]
 684 02a6 FFF7FEFF 		bl	aci_gatt_add_char
 685              	.LVL34:
 687:Core/Src/services.c ****                         UUID_TYPE_16,
 688:Core/Src/services.c ****                         &boot_keyboard_input_char_uuid,
 689:Core/Src/services.c ****                         charValueLength,
 690:Core/Src/services.c ****                         CHAR_PROP_READ | CHAR_PROP_NOTIFY,
 691:Core/Src/services.c ****                         ATTR_PERMISSION,
 692:Core/Src/services.c ****         GATT_NOTIFY_ATTRIBUTE_WRITE,
 693:Core/Src/services.c ****                         encrypKeySize,
 694:Core/Src/services.c ****                         CHAR_VALUE_LEN_CONSTANT,
 695:Core/Src/services.c ****                         &boot_keyboard_input_char_handle);
 696:Core/Src/services.c ****     if (ret != BLE_STATUS_SUCCESS)
 686              		.loc 1 696 5 is_stmt 1 view .LVU157
 687              		.loc 1 696 8 is_stmt 0 view .LVU158
 688 02aa 0446     		mov	r4, r0
 689 02ac 0028     		cmp	r0, #0
ARM GAS  C:\Users\IAHERN~1\AppData\Local\Temp\ccXgJWoo.s 			page 27


 690 02ae 40F0B180 		bne	.L33
 697:Core/Src/services.c ****     {
 698:Core/Src/services.c ****         BLUENRG_PRINTF("Error in Adding Char (BOOT KEYBOARD INPUT) for HID SERVICE 0x%02x\n", ret);
 699:Core/Src/services.c ****         return ret;
 700:Core/Src/services.c ****     }
 701:Core/Src/services.c **** 
 702:Core/Src/services.c ****     charValueLength = 20;
 691              		.loc 1 702 5 is_stmt 1 view .LVU159
 692              		.loc 1 702 21 is_stmt 0 view .LVU160
 693 02b2 1423     		movs	r3, #20
 694 02b4 174A     		ldr	r2, .L37+8
 695 02b6 1380     		strh	r3, [r2]	@ movhi
 703:Core/Src/services.c ****     encrypKeySize = 10;
 696              		.loc 1 703 5 is_stmt 1 view .LVU161
 697              		.loc 1 703 19 is_stmt 0 view .LVU162
 698 02b8 0A22     		movs	r2, #10
 699 02ba 1749     		ldr	r1, .L37+12
 700 02bc 0A70     		strb	r2, [r1]
 704:Core/Src/services.c ****     ret = aci_gatt_add_char(hid_service_handle,
 701              		.loc 1 704 5 is_stmt 1 view .LVU163
 702              		.loc 1 704 11 is_stmt 0 view .LVU164
 703 02be 2249     		ldr	r1, .L37+60
 704 02c0 0591     		str	r1, [sp, #20]
 705 02c2 0021     		movs	r1, #0
 706 02c4 0491     		str	r1, [sp, #16]
 707 02c6 0392     		str	r2, [sp, #12]
 708 02c8 0121     		movs	r1, #1
 709 02ca 0291     		str	r1, [sp, #8]
 710 02cc 2422     		movs	r2, #36
 711 02ce 0192     		str	r2, [sp, #4]
 712 02d0 0E22     		movs	r2, #14
 713 02d2 0092     		str	r2, [sp]
 714 02d4 24AA     		add	r2, sp, #144
 715 02d6 0E48     		ldr	r0, .L37+4
 716              	.LVL35:
 717              		.loc 1 704 11 view .LVU165
 718 02d8 0088     		ldrh	r0, [r0]
 719 02da FFF7FEFF 		bl	aci_gatt_add_char
 720              	.LVL36:
 705:Core/Src/services.c ****                         UUID_TYPE_16,
 706:Core/Src/services.c ****                         &boot_keyboard_output_char_uuid,
 707:Core/Src/services.c ****                         charValueLength,
 708:Core/Src/services.c ****                         CHAR_PROP_READ | CHAR_PROP_WRITE | CHAR_PROP_WRITE_WITHOUT_RESP,
 709:Core/Src/services.c ****                         ATTR_PERMISSION,
 710:Core/Src/services.c ****                         GATT_NOTIFY_ATTRIBUTE_WRITE,
 711:Core/Src/services.c ****                         encrypKeySize,
 712:Core/Src/services.c ****                         CHAR_VALUE_LEN_CONSTANT,
 713:Core/Src/services.c ****                         &boot_keyboard_output_char_handle);
 714:Core/Src/services.c ****     if (ret != BLE_STATUS_SUCCESS)
 721              		.loc 1 714 5 is_stmt 1 view .LVU166
 722              		.loc 1 714 8 is_stmt 0 view .LVU167
 723 02de 0446     		mov	r4, r0
 724 02e0 0028     		cmp	r0, #0
 725 02e2 40F09C80 		bne	.L34
 715:Core/Src/services.c ****     {
 716:Core/Src/services.c ****         BLUENRG_PRINTF("Error in Adding Char (BOOT KEYBOARD OUTPUT) for HID SERVICE 0x%02x\n", ret)
 717:Core/Src/services.c ****         return ret;
ARM GAS  C:\Users\IAHERN~1\AppData\Local\Temp\ccXgJWoo.s 			page 28


 718:Core/Src/services.c ****     }
 719:Core/Src/services.c **** 
 720:Core/Src/services.c ****     charValueLength = 20;
 726              		.loc 1 720 5 is_stmt 1 view .LVU168
 727              		.loc 1 720 21 is_stmt 0 view .LVU169
 728 02e6 1423     		movs	r3, #20
 729 02e8 0A4A     		ldr	r2, .L37+8
 730 02ea 1380     		strh	r3, [r2]	@ movhi
 721:Core/Src/services.c ****     encrypKeySize = 10;
 731              		.loc 1 721 5 is_stmt 1 view .LVU170
 732              		.loc 1 721 19 is_stmt 0 view .LVU171
 733 02ec 0A21     		movs	r1, #10
 734 02ee 0A4A     		ldr	r2, .L37+12
 735 02f0 1170     		strb	r1, [r2]
 722:Core/Src/services.c ****     ret = aci_gatt_add_char(hid_service_handle,
 736              		.loc 1 722 5 is_stmt 1 view .LVU172
 737              		.loc 1 722 11 is_stmt 0 view .LVU173
 738 02f2 164A     		ldr	r2, .L37+64
 739 02f4 0592     		str	r2, [sp, #20]
 740 02f6 0022     		movs	r2, #0
 741 02f8 0492     		str	r2, [sp, #16]
 742 02fa 0391     		str	r1, [sp, #12]
 743 02fc 0292     		str	r2, [sp, #8]
 744 02fe 2422     		movs	r2, #36
 745 0300 0192     		str	r2, [sp, #4]
 746 0302 0222     		movs	r2, #2
 747 0304 0092     		str	r2, [sp]
 748 0306 20AA     		add	r2, sp, #128
 749 0308 22E0     		b	.L38
 750              	.L39:
 751 030a 00BF     		.align	2
 752              	.L37:
 753 030c 00000000 		.word	serviceMaxAttributeRecords
 754 0310 00000000 		.word	hid_service_handle
 755 0314 00000000 		.word	charValueLength
 756 0318 00000000 		.word	encrypKeySize
 757 031c 00000000 		.word	input_report_char_handle
 758 0320 00000000 		.word	client_char_config_descriptor_handle
 759 0324 00000000 		.word	report_reference_char_descriptor_handle_input
 760 0328 00000000 		.word	output_report_char_handle
 761 032c 00000000 		.word	report_reference_char_descriptor_handle_output
 762 0330 00000000 		.word	feature_report_char_handle
 763 0334 00000000 		.word	report_reference_char_descriptor_handle_feature
 764 0338 00000000 		.word	protocol_mode_char_handle
 765 033c 00000000 		.word	report_map_char_handle
 766 0340 00000000 		.word	reportDesc
 767 0344 00000000 		.word	boot_keyboard_input_char_handle
 768 0348 00000000 		.word	boot_keyboard_output_char_handle
 769 034c 00000000 		.word	hid_info_char_handle
 770              	.L38:
 771 0350 0121     		movs	r1, #1
 772 0352 3A48     		ldr	r0, .L40
 773              	.LVL37:
 774              		.loc 1 722 11 view .LVU174
 775 0354 0088     		ldrh	r0, [r0]
 776 0356 FFF7FEFF 		bl	aci_gatt_add_char
 777              	.LVL38:
ARM GAS  C:\Users\IAHERN~1\AppData\Local\Temp\ccXgJWoo.s 			page 29


 723:Core/Src/services.c ****                         UUID_TYPE_16,
 724:Core/Src/services.c ****                         &hid_information_char_uuid,
 725:Core/Src/services.c ****                         charValueLength,
 726:Core/Src/services.c ****                         CHAR_PROP_READ,
 727:Core/Src/services.c ****                         ATTR_PERMISSION,
 728:Core/Src/services.c ****                         GATT_DONT_NOTIFY_EVENTS,
 729:Core/Src/services.c ****                         encrypKeySize,
 730:Core/Src/services.c ****                         CHAR_VALUE_LEN_CONSTANT,
 731:Core/Src/services.c ****                         &hid_info_char_handle);
 732:Core/Src/services.c ****     if (ret != BLE_STATUS_SUCCESS)
 778              		.loc 1 732 5 is_stmt 1 view .LVU175
 779              		.loc 1 732 8 is_stmt 0 view .LVU176
 780 035a 0446     		mov	r4, r0
 781 035c 0028     		cmp	r0, #0
 782 035e 63D1     		bne	.L35
 733:Core/Src/services.c ****     {
 734:Core/Src/services.c ****         BLUENRG_PRINTF("Error in Adding Char (HID INFORMATION) for HID SERVICE 0x%02x\n", ret);
 735:Core/Src/services.c ****         return ret;
 736:Core/Src/services.c ****     }
 737:Core/Src/services.c **** 
 738:Core/Src/services.c **** 
 739:Core/Src/services.c ****     typedef struct _tHidInfoChar
 783              		.loc 1 739 5 is_stmt 1 view .LVU177
 740:Core/Src/services.c ****     {
 741:Core/Src/services.c ****         /**
 742:Core/Src/services.c ****          * 16-bit unsigned integer representing version
 743:Core/Src/services.c ****          * number of base USB HID Specification
 744:Core/Src/services.c ****          * implemented by HID Device
 745:Core/Src/services.c ****          */
 746:Core/Src/services.c ****         uint16_t bcdHID;
 747:Core/Src/services.c **** 
 748:Core/Src/services.c ****         /**
 749:Core/Src/services.c ****          * 8-bit integer identifying country HID Device
 750:Core/Src/services.c ****          * hardware is localized for. Most
 751:Core/Src/services.c ****          * hardware is not localized (value 0x00)
 752:Core/Src/services.c ****          */
 753:Core/Src/services.c ****         uint8_t bCountryCode;
 754:Core/Src/services.c **** 
 755:Core/Src/services.c ****         /**
 756:Core/Src/services.c ****          * Bit 0: RemoteWake - Boolean value indicating whether
 757:Core/Src/services.c ****          * HID Device is capable of sending a wake-signal to a HID Host.\n
 758:Core/Src/services.c ****          * 0bXXXXXXX0 = FALSE\n
 759:Core/Src/services.c ****          * 0bXXXXXXX1 = TRUE\n
 760:Core/Src/services.c ****          * Bit 1: NormallyConnectable - Boolean value indicating
 761:Core/Src/services.c ****          * whether HID Device will be advertising when bonded but not connected.
 762:Core/Src/services.c ****          * 0bXXXXXX0X = FALSE\n
 763:Core/Src/services.c ****          * 0xXXXXXX1X = TRUE
 764:Core/Src/services.c ****         */
 765:Core/Src/services.c ****         uint8_t flags;
 766:Core/Src/services.c ****     }tHidInfoChar;
 767:Core/Src/services.c **** 
 768:Core/Src/services.c **** 
 769:Core/Src/services.c **** 
 770:Core/Src/services.c **** 
 771:Core/Src/services.c ****     //uint8_t dataBuffer[] = { 0xDB,0xFA, 90,0x02 };
 772:Core/Src/services.c **** 
 773:Core/Src/services.c ****     tHidInfoChar appHidServData;
ARM GAS  C:\Users\IAHERN~1\AppData\Local\Temp\ccXgJWoo.s 			page 30


 784              		.loc 1 773 5 view .LVU178
 774:Core/Src/services.c ****     
 775:Core/Src/services.c ****     appHidServData.bcdHID = 0x0111;
 785              		.loc 1 775 5 view .LVU179
 786              		.loc 1 775 27 is_stmt 0 view .LVU180
 787 0360 40F21113 		movw	r3, #273
 788 0364 ADF82830 		strh	r3, [sp, #40]	@ movhi
 776:Core/Src/services.c ****     appHidServData.bCountryCode = 0x00;
 789              		.loc 1 776 5 is_stmt 1 view .LVU181
 790              		.loc 1 776 33 is_stmt 0 view .LVU182
 791 0368 0022     		movs	r2, #0
 792 036a 8DF82A20 		strb	r2, [sp, #42]
 777:Core/Src/services.c ****     appHidServData.flags = 0x02;
 793              		.loc 1 777 5 is_stmt 1 view .LVU183
 794              		.loc 1 777 26 is_stmt 0 view .LVU184
 795 036e 0223     		movs	r3, #2
 796 0370 8DF82B30 		strb	r3, [sp, #43]
 778:Core/Src/services.c ****  
 779:Core/Src/services.c ****     ret = aci_gatt_update_char_value(hid_service_handle, hid_info_char_handle, 0, sizeof(appHidServ
 797              		.loc 1 779 5 is_stmt 1 view .LVU185
 798              		.loc 1 779 11 is_stmt 0 view .LVU186
 799 0374 0AAB     		add	r3, sp, #40
 800 0376 0093     		str	r3, [sp]
 801 0378 0423     		movs	r3, #4
 802 037a 3149     		ldr	r1, .L40+4
 803 037c 0988     		ldrh	r1, [r1]
 804 037e 2F48     		ldr	r0, .L40
 805              	.LVL39:
 806              		.loc 1 779 11 view .LVU187
 807 0380 0088     		ldrh	r0, [r0]
 808 0382 FFF7FEFF 		bl	aci_gatt_update_char_value
 809              	.LVL40:
 780:Core/Src/services.c ****     if (ret != BLE_STATUS_SUCCESS)
 810              		.loc 1 780 5 is_stmt 1 view .LVU188
 811              		.loc 1 780 8 is_stmt 0 view .LVU189
 812 0386 0446     		mov	r4, r0
 813 0388 0028     		cmp	r0, #0
 814 038a 52D1     		bne	.L36
 781:Core/Src/services.c ****     {
 782:Core/Src/services.c ****         BLUENRG_PRINTF("Error in Adding VALUE for Char (HID INFORMATION) for HID SERVICE 0x%02x\n",
 783:Core/Src/services.c ****         return ret;
 784:Core/Src/services.c ****     }
 785:Core/Src/services.c **** 
 786:Core/Src/services.c **** 
 787:Core/Src/services.c ****     charValueLength = 20;
 815              		.loc 1 787 5 is_stmt 1 view .LVU190
 816              		.loc 1 787 21 is_stmt 0 view .LVU191
 817 038c 1423     		movs	r3, #20
 818 038e 2D4A     		ldr	r2, .L40+8
 819 0390 1380     		strh	r3, [r2]	@ movhi
 788:Core/Src/services.c ****     encrypKeySize = 10;
 820              		.loc 1 788 5 is_stmt 1 view .LVU192
 821              		.loc 1 788 19 is_stmt 0 view .LVU193
 822 0392 0A22     		movs	r2, #10
 823 0394 2C49     		ldr	r1, .L40+12
 824 0396 0A70     		strb	r2, [r1]
 789:Core/Src/services.c ****     ret = aci_gatt_add_char(hid_service_handle,
ARM GAS  C:\Users\IAHERN~1\AppData\Local\Temp\ccXgJWoo.s 			page 31


 825              		.loc 1 789 5 is_stmt 1 view .LVU194
 826              		.loc 1 789 11 is_stmt 0 view .LVU195
 827 0398 2C49     		ldr	r1, .L40+16
 828 039a 0591     		str	r1, [sp, #20]
 829 039c 0021     		movs	r1, #0
 830 039e 0491     		str	r1, [sp, #16]
 831 03a0 0392     		str	r2, [sp, #12]
 832 03a2 0121     		movs	r1, #1
 833 03a4 0291     		str	r1, [sp, #8]
 834 03a6 2422     		movs	r2, #36
 835 03a8 0192     		str	r2, [sp, #4]
 836 03aa 0422     		movs	r2, #4
 837 03ac 0092     		str	r2, [sp]
 838 03ae 1CAA     		add	r2, sp, #112
 839 03b0 2248     		ldr	r0, .L40
 840              	.LVL41:
 841              		.loc 1 789 11 view .LVU196
 842 03b2 0088     		ldrh	r0, [r0]
 843 03b4 FFF7FEFF 		bl	aci_gatt_add_char
 844              	.LVL42:
 790:Core/Src/services.c ****                         UUID_TYPE_16,
 791:Core/Src/services.c ****                         &hid_control_point_char_uuid,
 792:Core/Src/services.c ****                         charValueLength,
 793:Core/Src/services.c ****                         CHAR_PROP_WRITE_WITHOUT_RESP,
 794:Core/Src/services.c ****                         ATTR_PERMISSION,
 795:Core/Src/services.c ****         GATT_NOTIFY_ATTRIBUTE_WRITE,
 796:Core/Src/services.c ****                         encrypKeySize,
 797:Core/Src/services.c ****                         CHAR_VALUE_LEN_CONSTANT,
 798:Core/Src/services.c ****                         &hid_control_point_char_handle);
 799:Core/Src/services.c ****     if (ret != BLE_STATUS_SUCCESS)
 845              		.loc 1 799 5 is_stmt 1 view .LVU197
 846              		.loc 1 799 8 is_stmt 0 view .LVU198
 847 03b8 0446     		mov	r4, r0
 848 03ba 48B1     		cbz	r0, .L14
 800:Core/Src/services.c ****     {
 801:Core/Src/services.c ****         BLUENRG_PRINTF("Error in Adding Char (HID CONTROL POINT) for HID SERVICE 0x%02x\n", ret);
 849              		.loc 1 801 9 is_stmt 1 view .LVU199
 850 03bc 0146     		mov	r1, r0
 851 03be 2448     		ldr	r0, .L40+20
 852              	.LVL43:
 853              		.loc 1 801 9 is_stmt 0 view .LVU200
 854 03c0 FFF7FEFF 		bl	printf
 855              	.LVL44:
 802:Core/Src/services.c ****         return ret;
 856              		.loc 1 802 9 is_stmt 1 view .LVU201
 857              		.loc 1 802 16 is_stmt 0 view .LVU202
 858 03c4 04E0     		b	.L14
 859              	.LVL45:
 860              	.L26:
 861              		.loc 1 802 16 view .LVU203
 862 03c6 0446     		mov	r4, r0
 490:Core/Src/services.c ****        return ret;
 863              		.loc 1 490 8 is_stmt 1 view .LVU204
 864 03c8 0146     		mov	r1, r0
 865 03ca 2248     		ldr	r0, .L40+24
 866              	.LVL46:
 490:Core/Src/services.c ****        return ret;
ARM GAS  C:\Users\IAHERN~1\AppData\Local\Temp\ccXgJWoo.s 			page 32


 867              		.loc 1 490 8 is_stmt 0 view .LVU205
 868 03cc FFF7FEFF 		bl	printf
 869              	.LVL47:
 491:Core/Src/services.c ****     }
 870              		.loc 1 491 8 is_stmt 1 view .LVU206
 871              	.L14:
 803:Core/Src/services.c ****     }
 804:Core/Src/services.c **** 
 805:Core/Src/services.c ****    // updateHIDServiceParams();
 806:Core/Src/services.c **** 
 807:Core/Src/services.c ****     return BLE_STATUS_SUCCESS;
 808:Core/Src/services.c **** }
 872              		.loc 1 808 1 is_stmt 0 view .LVU207
 873 03d0 2046     		mov	r0, r4
 874 03d2 44B0     		add	sp, sp, #272
 875              		.cfi_remember_state
 876              		.cfi_def_cfa_offset 32
 877              		@ sp needed
 878 03d4 BDE8F087 		pop	{r4, r5, r6, r7, r8, r9, r10, pc}
 879              	.LVL48:
 880              	.L27:
 881              		.cfi_restore_state
 509:Core/Src/services.c ****             return ret;
 882              		.loc 1 509 13 is_stmt 1 view .LVU208
 883 03d8 0146     		mov	r1, r0
 884 03da 1F48     		ldr	r0, .L40+28
 885              	.LVL49:
 509:Core/Src/services.c ****             return ret;
 886              		.loc 1 509 13 is_stmt 0 view .LVU209
 887 03dc FFF7FEFF 		bl	printf
 888              	.LVL50:
 510:Core/Src/services.c ****         }
 889              		.loc 1 510 13 is_stmt 1 view .LVU210
 510:Core/Src/services.c ****         }
 890              		.loc 1 510 20 is_stmt 0 view .LVU211
 891 03e0 F6E7     		b	.L14
 892              	.LVL51:
 893              	.L28:
 564:Core/Src/services.c ****                 return ret;
 894              		.loc 1 564 17 is_stmt 1 view .LVU212
 895 03e2 0146     		mov	r1, r0
 896 03e4 1D48     		ldr	r0, .L40+32
 897              	.LVL52:
 564:Core/Src/services.c ****                 return ret;
 898              		.loc 1 564 17 is_stmt 0 view .LVU213
 899 03e6 FFF7FEFF 		bl	printf
 900              	.LVL53:
 565:Core/Src/services.c ****             }
 901              		.loc 1 565 17 is_stmt 1 view .LVU214
 565:Core/Src/services.c ****             }
 902              		.loc 1 565 24 is_stmt 0 view .LVU215
 903 03ea F1E7     		b	.L14
 904              	.LVL54:
 905              	.L29:
 607:Core/Src/services.c ****                     return ret;
 906              		.loc 1 607 21 is_stmt 1 view .LVU216
 907 03ec 0146     		mov	r1, r0
ARM GAS  C:\Users\IAHERN~1\AppData\Local\Temp\ccXgJWoo.s 			page 33


 908 03ee 1C48     		ldr	r0, .L40+36
 909              	.LVL55:
 607:Core/Src/services.c ****                     return ret;
 910              		.loc 1 607 21 is_stmt 0 view .LVU217
 911 03f0 FFF7FEFF 		bl	printf
 912              	.LVL56:
 608:Core/Src/services.c ****                 }
 913              		.loc 1 608 21 is_stmt 1 view .LVU218
 608:Core/Src/services.c ****                 }
 914              		.loc 1 608 28 is_stmt 0 view .LVU219
 915 03f4 ECE7     		b	.L14
 916              	.LVL57:
 917              	.L30:
 644:Core/Src/services.c ****         return ret;
 918              		.loc 1 644 9 is_stmt 1 view .LVU220
 919 03f6 0146     		mov	r1, r0
 920 03f8 1A48     		ldr	r0, .L40+40
 921              	.LVL58:
 644:Core/Src/services.c ****         return ret;
 922              		.loc 1 644 9 is_stmt 0 view .LVU221
 923 03fa FFF7FEFF 		bl	printf
 924              	.LVL59:
 645:Core/Src/services.c ****     }
 925              		.loc 1 645 9 is_stmt 1 view .LVU222
 645:Core/Src/services.c ****     }
 926              		.loc 1 645 16 is_stmt 0 view .LVU223
 927 03fe E7E7     		b	.L14
 928              	.LVL60:
 929              	.L31:
 663:Core/Src/services.c ****         return ret;
 930              		.loc 1 663 9 is_stmt 1 view .LVU224
 931 0400 0146     		mov	r1, r0
 932 0402 1948     		ldr	r0, .L40+44
 933              	.LVL61:
 663:Core/Src/services.c ****         return ret;
 934              		.loc 1 663 9 is_stmt 0 view .LVU225
 935 0404 FFF7FEFF 		bl	printf
 936              	.LVL62:
 664:Core/Src/services.c ****     }
 937              		.loc 1 664 9 is_stmt 1 view .LVU226
 664:Core/Src/services.c ****     }
 938              		.loc 1 664 16 is_stmt 0 view .LVU227
 939 0408 E2E7     		b	.L14
 940              	.LVL63:
 941              	.L32:
 680:Core/Src/services.c ****             return ret;
 942              		.loc 1 680 13 is_stmt 1 view .LVU228
 943 040a 0146     		mov	r1, r0
 944 040c 1748     		ldr	r0, .L40+48
 945              	.LVL64:
 680:Core/Src/services.c ****             return ret;
 946              		.loc 1 680 13 is_stmt 0 view .LVU229
 947 040e FFF7FEFF 		bl	printf
 948              	.LVL65:
 681:Core/Src/services.c ****         }
 949              		.loc 1 681 13 is_stmt 1 view .LVU230
 681:Core/Src/services.c ****         }
ARM GAS  C:\Users\IAHERN~1\AppData\Local\Temp\ccXgJWoo.s 			page 34


 950              		.loc 1 681 20 is_stmt 0 view .LVU231
 951 0412 DDE7     		b	.L14
 952              	.LVL66:
 953              	.L33:
 698:Core/Src/services.c ****         return ret;
 954              		.loc 1 698 9 is_stmt 1 view .LVU232
 955 0414 0146     		mov	r1, r0
 956 0416 1648     		ldr	r0, .L40+52
 957              	.LVL67:
 698:Core/Src/services.c ****         return ret;
 958              		.loc 1 698 9 is_stmt 0 view .LVU233
 959 0418 FFF7FEFF 		bl	printf
 960              	.LVL68:
 699:Core/Src/services.c ****     }
 961              		.loc 1 699 9 is_stmt 1 view .LVU234
 699:Core/Src/services.c ****     }
 962              		.loc 1 699 16 is_stmt 0 view .LVU235
 963 041c D8E7     		b	.L14
 964              	.LVL69:
 965              	.L34:
 716:Core/Src/services.c ****         return ret;
 966              		.loc 1 716 9 is_stmt 1 view .LVU236
 967 041e 0146     		mov	r1, r0
 968 0420 1448     		ldr	r0, .L40+56
 969              	.LVL70:
 716:Core/Src/services.c ****         return ret;
 970              		.loc 1 716 9 is_stmt 0 view .LVU237
 971 0422 FFF7FEFF 		bl	printf
 972              	.LVL71:
 717:Core/Src/services.c ****     }
 973              		.loc 1 717 9 is_stmt 1 view .LVU238
 717:Core/Src/services.c ****     }
 974              		.loc 1 717 16 is_stmt 0 view .LVU239
 975 0426 D3E7     		b	.L14
 976              	.LVL72:
 977              	.L35:
 734:Core/Src/services.c ****         return ret;
 978              		.loc 1 734 9 is_stmt 1 view .LVU240
 979 0428 0146     		mov	r1, r0
 980 042a 1348     		ldr	r0, .L40+60
 981              	.LVL73:
 734:Core/Src/services.c ****         return ret;
 982              		.loc 1 734 9 is_stmt 0 view .LVU241
 983 042c FFF7FEFF 		bl	printf
 984              	.LVL74:
 735:Core/Src/services.c ****     }
 985              		.loc 1 735 9 is_stmt 1 view .LVU242
 735:Core/Src/services.c ****     }
 986              		.loc 1 735 16 is_stmt 0 view .LVU243
 987 0430 CEE7     		b	.L14
 988              	.LVL75:
 989              	.L36:
 782:Core/Src/services.c ****         return ret;
 990              		.loc 1 782 9 is_stmt 1 view .LVU244
 991 0432 0146     		mov	r1, r0
 992 0434 1148     		ldr	r0, .L40+64
 993              	.LVL76:
ARM GAS  C:\Users\IAHERN~1\AppData\Local\Temp\ccXgJWoo.s 			page 35


 782:Core/Src/services.c ****         return ret;
 994              		.loc 1 782 9 is_stmt 0 view .LVU245
 995 0436 FFF7FEFF 		bl	printf
 996              	.LVL77:
 783:Core/Src/services.c ****     }
 997              		.loc 1 783 9 is_stmt 1 view .LVU246
 783:Core/Src/services.c ****     }
 998              		.loc 1 783 16 is_stmt 0 view .LVU247
 999 043a C9E7     		b	.L14
 1000              	.L41:
 1001              		.align	2
 1002              	.L40:
 1003 043c 00000000 		.word	hid_service_handle
 1004 0440 00000000 		.word	hid_info_char_handle
 1005 0444 00000000 		.word	charValueLength
 1006 0448 00000000 		.word	encrypKeySize
 1007 044c 00000000 		.word	hid_control_point_char_handle
 1008 0450 A4020000 		.word	.LC15
 1009 0454 00000000 		.word	.LC4
 1010 0458 30000000 		.word	.LC5
 1011 045c 6C000000 		.word	.LC6
 1012 0460 AC000000 		.word	.LC7
 1013 0464 EC000000 		.word	.LC8
 1014 0468 2C010000 		.word	.LC9
 1015 046c 68010000 		.word	.LC10
 1016 0470 90010000 		.word	.LC11
 1017 0474 D4010000 		.word	.LC12
 1018 0478 18020000 		.word	.LC13
 1019 047c 58020000 		.word	.LC14
 1020              		.cfi_endproc
 1021              	.LFE140:
 1023              		.section	.rodata.updateDIService.str1.4,"aMS",%progbits,1
 1024              		.align	2
 1025              	.LC16:
 1026 0000 5354204D 		.ascii	"ST Micro \000"
 1026      6963726F 
 1026      2000
 1027 000a 0000     		.align	2
 1028              	.LC17:
 1029 000c 30303031 		.ascii	"0001\000"
 1029      00
 1030 0011 000000   		.align	2
 1031              	.LC18:
 1032 0014 30363330 		.ascii	"0630\000"
 1032      00
 1033 0019 000000   		.align	2
 1034              	.LC19:
 1035 001c 4661696C 		.ascii	"Failed to update (MANUFACT NAME): 0x%02x\015\012\000"
 1035      65642074 
 1035      6F207570 
 1035      64617465 
 1035      20284D41 
 1036 0047 00       		.align	2
 1037              	.LC20:
 1038 0048 4661696C 		.ascii	"Failed to update (MODEL NUMBER): 0x%02x\015\012\000"
 1038      65642074 
 1038      6F207570 
ARM GAS  C:\Users\IAHERN~1\AppData\Local\Temp\ccXgJWoo.s 			page 36


 1038      64617465 
 1038      20284D4F 
 1039 0072 0000     		.align	2
 1040              	.LC21:
 1041 0074 4661696C 		.ascii	"Failed to update (FIRMWARE NUMBER): 0x%02x\015\012\000"
 1041      65642074 
 1041      6F207570 
 1041      64617465 
 1041      20284649 
 1042 00a1 000000   		.align	2
 1043              	.LC22:
 1044 00a4 4661696C 		.ascii	"Failed to update (SOFTWARE NUMBER): 0x%02x\015\012\000"
 1044      65642074 
 1044      6F207570 
 1044      64617465 
 1044      2028534F 
 1045 00d1 000000   		.align	2
 1046              	.LC23:
 1047 00d4 4661696C 		.ascii	"Failed to update (PnP ID): 0x%02x\015\012\000"
 1047      65642074 
 1047      6F207570 
 1047      64617465 
 1047      2028506E 
 1048              		.section	.text.updateDIService,"ax",%progbits
 1049              		.align	1
 1050              		.global	updateDIService
 1051              		.syntax unified
 1052              		.thumb
 1053              		.thumb_func
 1055              	updateDIService:
 1056              	.LVL78:
 1057              	.LFB141:
 809:Core/Src/services.c **** 
 810:Core/Src/services.c **** 
 811:Core/Src/services.c **** 
 812:Core/Src/services.c **** 
 813:Core/Src/services.c **** 
 814:Core/Src/services.c **** 
 815:Core/Src/services.c **** 
 816:Core/Src/services.c **** /*
 817:Core/Src/services.c ****  * Updates the values for the caracteristics of
 818:Core/Src/services.c ****  * Device Information service (global service and characteristics handles)
 819:Core/Src/services.c ****  * Manufacturer Name
 820:Core/Src/services.c ****  * Model Number
 821:Core/Src/services.c ****  * Firmware Revision
 822:Core/Src/services.c ****  * Software Revision
 823:Core/Src/services.c ****  * PnP ID
 824:Core/Src/services.c ****  */
 825:Core/Src/services.c **** void updateDIService(devInfService_Type* devInf)
 826:Core/Src/services.c **** {
 1058              		.loc 1 826 1 is_stmt 1 view -0
 1059              		.cfi_startproc
 1060              		@ args = 0, pretend = 0, frame = 0
 1061              		@ frame_needed = 0, uses_anonymous_args = 0
 1062              		.loc 1 826 1 is_stmt 0 view .LVU249
 1063 0000 F0B5     		push	{r4, r5, r6, r7, lr}
 1064              		.cfi_def_cfa_offset 20
ARM GAS  C:\Users\IAHERN~1\AppData\Local\Temp\ccXgJWoo.s 			page 37


 1065              		.cfi_offset 4, -20
 1066              		.cfi_offset 5, -16
 1067              		.cfi_offset 6, -12
 1068              		.cfi_offset 7, -8
 1069              		.cfi_offset 14, -4
 1070 0002 85B0     		sub	sp, sp, #20
 1071              		.cfi_def_cfa_offset 40
 1072 0004 0446     		mov	r4, r0
 827:Core/Src/services.c **** 	uint8_t ret;
 1073              		.loc 1 827 2 is_stmt 1 view .LVU250
 828:Core/Src/services.c ****       memcpy(devInf->manufacName, "ST Micro ", MANUFAC_NAME_LEN);
 1074              		.loc 1 828 7 view .LVU251
 1075 0006 454B     		ldr	r3, .L54
 1076 0008 03CB     		ldmia	r3!, {r0, r1}
 1077              	.LVL79:
 1078              		.loc 1 828 7 is_stmt 0 view .LVU252
 1079 000a 2060     		str	r0, [r4]	@ unaligned
 1080 000c 6160     		str	r1, [r4, #4]	@ unaligned
 1081 000e 1B78     		ldrb	r3, [r3]	@ zero_extendqisi2
 1082 0010 2372     		strb	r3, [r4, #8]
 829:Core/Src/services.c ****       memcpy(devInf->modelNumber, "0001", MODEL_NUMB_LEN);
 1083              		.loc 1 829 7 is_stmt 1 view .LVU253
 1084              		.loc 1 829 20 is_stmt 0 view .LVU254
 1085 0012 04F10907 		add	r7, r4, #9
 1086              		.loc 1 829 7 view .LVU255
 1087 0016 424B     		ldr	r3, .L54+4
 1088 0018 1868     		ldr	r0, [r3]
 1089 001a C4F80900 		str	r0, [r4, #9]	@ unaligned
 830:Core/Src/services.c ****       memcpy(devInf->fwRevision, "0630", FW_REV_LEN);
 1090              		.loc 1 830 7 is_stmt 1 view .LVU256
 1091              		.loc 1 830 20 is_stmt 0 view .LVU257
 1092 001e 04F10D06 		add	r6, r4, #13
 1093              		.loc 1 830 7 view .LVU258
 1094 0022 404A     		ldr	r2, .L54+8
 1095 0024 1068     		ldr	r0, [r2]
 1096 0026 C4F80D00 		str	r0, [r4, #13]	@ unaligned
 831:Core/Src/services.c ****       memcpy(devInf->swRevision, "0001", SW_REV_LEN);
 1097              		.loc 1 831 7 is_stmt 1 view .LVU259
 1098              		.loc 1 831 20 is_stmt 0 view .LVU260
 1099 002a 04F11105 		add	r5, r4, #17
 1100              		.loc 1 831 7 view .LVU261
 1101 002e 1868     		ldr	r0, [r3]
 1102 0030 C4F81100 		str	r0, [r4, #17]	@ unaligned
 832:Core/Src/services.c ****       devInf->pnpID[0] = 0x01;
 1103              		.loc 1 832 7 is_stmt 1 view .LVU262
 1104              		.loc 1 832 24 is_stmt 0 view .LVU263
 1105 0034 0123     		movs	r3, #1
 1106 0036 6375     		strb	r3, [r4, #21]
 833:Core/Src/services.c ****       devInf->pnpID[1] = 0x30;
 1107              		.loc 1 833 7 is_stmt 1 view .LVU264
 1108              		.loc 1 833 24 is_stmt 0 view .LVU265
 1109 0038 3023     		movs	r3, #48
 1110 003a A375     		strb	r3, [r4, #22]
 834:Core/Src/services.c ****       devInf->pnpID[2] = 0x00;
 1111              		.loc 1 834 7 is_stmt 1 view .LVU266
 1112              		.loc 1 834 24 is_stmt 0 view .LVU267
 1113 003c 0020     		movs	r0, #0
ARM GAS  C:\Users\IAHERN~1\AppData\Local\Temp\ccXgJWoo.s 			page 38


 1114 003e E075     		strb	r0, [r4, #23]
 835:Core/Src/services.c ****       devInf->pnpID[3] = 0xfc;
 1115              		.loc 1 835 7 is_stmt 1 view .LVU268
 1116              		.loc 1 835 24 is_stmt 0 view .LVU269
 1117 0040 FC23     		movs	r3, #252
 1118 0042 2376     		strb	r3, [r4, #24]
 836:Core/Src/services.c ****       devInf->pnpID[4] = 0x00;
 1119              		.loc 1 836 7 is_stmt 1 view .LVU270
 1120              		.loc 1 836 24 is_stmt 0 view .LVU271
 1121 0044 6076     		strb	r0, [r4, #25]
 837:Core/Src/services.c ****       devInf->pnpID[5] = 0xec;
 1122              		.loc 1 837 7 is_stmt 1 view .LVU272
 1123              		.loc 1 837 24 is_stmt 0 view .LVU273
 1124 0046 EC23     		movs	r3, #236
 1125 0048 A376     		strb	r3, [r4, #26]
 838:Core/Src/services.c ****       devInf->pnpID[6] = 0x00;
 1126              		.loc 1 838 7 is_stmt 1 view .LVU274
 1127              		.loc 1 838 24 is_stmt 0 view .LVU275
 1128 004a E076     		strb	r0, [r4, #27]
 839:Core/Src/services.c **** 
 840:Core/Src/services.c ****       ret = aci_gatt_update_char_value_ext(
 1129              		.loc 1 840 7 is_stmt 1 view .LVU276
 1130              		.loc 1 840 13 is_stmt 0 view .LVU277
 1131 004c 0394     		str	r4, [sp, #12]
 1132 004e 0923     		movs	r3, #9
 1133 0050 0293     		str	r3, [sp, #8]
 1134 0052 0190     		str	r0, [sp, #4]
 1135 0054 1423     		movs	r3, #20
 1136 0056 0093     		str	r3, [sp]
 1137 0058 0346     		mov	r3, r0
 1138 005a 334A     		ldr	r2, .L54+12
 1139 005c 1288     		ldrh	r2, [r2]
 1140 005e 3349     		ldr	r1, .L54+16
 1141 0060 0988     		ldrh	r1, [r1]
 1142 0062 FFF7FEFF 		bl	aci_gatt_update_char_value_ext
 1143              	.LVL80:
 841:Core/Src/services.c ****             0,
 842:Core/Src/services.c ****             dif_service_handle,
 843:Core/Src/services.c ****             manufacturer_name_char_handle,
 844:Core/Src/services.c ****             GATT_LOCAL_UPDATE,
 845:Core/Src/services.c ****             20,
 846:Core/Src/services.c ****             0,
 847:Core/Src/services.c ****             sizeof(devInf->manufacName),
 848:Core/Src/services.c ****             devInf->manufacName);
 849:Core/Src/services.c **** 
 850:Core/Src/services.c ****       if(ret != BLE_STATUS_SUCCESS)
 1144              		.loc 1 850 7 is_stmt 1 view .LVU278
 1145              		.loc 1 850 9 is_stmt 0 view .LVU279
 1146 0066 0028     		cmp	r0, #0
 1147 0068 43D1     		bne	.L49
 1148              	.LVL81:
 1149              	.L43:
 851:Core/Src/services.c ****       {
 852:Core/Src/services.c ****         BLUENRG_PRINTF("Failed to update (MANUFACT NAME): 0x%02x\r\n", ret);
 853:Core/Src/services.c ****       }
 854:Core/Src/services.c **** 
 855:Core/Src/services.c ****       ret = aci_gatt_update_char_value_ext(
ARM GAS  C:\Users\IAHERN~1\AppData\Local\Temp\ccXgJWoo.s 			page 39


 1150              		.loc 1 855 7 is_stmt 1 view .LVU280
 1151              		.loc 1 855 13 is_stmt 0 view .LVU281
 1152 006a 0397     		str	r7, [sp, #12]
 1153 006c 0423     		movs	r3, #4
 1154 006e 0293     		str	r3, [sp, #8]
 1155 0070 0020     		movs	r0, #0
 1156 0072 0190     		str	r0, [sp, #4]
 1157 0074 1423     		movs	r3, #20
 1158 0076 0093     		str	r3, [sp]
 1159 0078 0346     		mov	r3, r0
 1160 007a 2D4A     		ldr	r2, .L54+20
 1161 007c 1288     		ldrh	r2, [r2]
 1162 007e 2B49     		ldr	r1, .L54+16
 1163 0080 0988     		ldrh	r1, [r1]
 1164 0082 FFF7FEFF 		bl	aci_gatt_update_char_value_ext
 1165              	.LVL82:
 856:Core/Src/services.c ****             0,
 857:Core/Src/services.c ****             dif_service_handle,
 858:Core/Src/services.c ****             model_number_char_handle,
 859:Core/Src/services.c ****             GATT_LOCAL_UPDATE,
 860:Core/Src/services.c ****             20,
 861:Core/Src/services.c ****             0,
 862:Core/Src/services.c ****             sizeof(devInf->modelNumber),
 863:Core/Src/services.c ****             devInf->modelNumber);
 864:Core/Src/services.c **** 
 865:Core/Src/services.c ****       if(ret != BLE_STATUS_SUCCESS)
 1166              		.loc 1 865 7 is_stmt 1 view .LVU282
 1167              		.loc 1 865 9 is_stmt 0 view .LVU283
 1168 0086 0146     		mov	r1, r0
 1169 0088 0028     		cmp	r0, #0
 1170 008a 37D1     		bne	.L50
 1171              	.LVL83:
 1172              	.L44:
 866:Core/Src/services.c ****       {
 867:Core/Src/services.c ****         BLUENRG_PRINTF("Failed to update (MODEL NUMBER): 0x%02x\r\n", ret);
 868:Core/Src/services.c ****       }
 869:Core/Src/services.c **** 
 870:Core/Src/services.c **** 
 871:Core/Src/services.c ****       ret = aci_gatt_update_char_value_ext(
 1173              		.loc 1 871 7 is_stmt 1 view .LVU284
 1174              		.loc 1 871 13 is_stmt 0 view .LVU285
 1175 008c 0396     		str	r6, [sp, #12]
 1176 008e 0423     		movs	r3, #4
 1177 0090 0293     		str	r3, [sp, #8]
 1178 0092 0020     		movs	r0, #0
 1179 0094 0190     		str	r0, [sp, #4]
 1180 0096 1423     		movs	r3, #20
 1181 0098 0093     		str	r3, [sp]
 1182 009a 0346     		mov	r3, r0
 1183 009c 254A     		ldr	r2, .L54+24
 1184 009e 1288     		ldrh	r2, [r2]
 1185 00a0 2249     		ldr	r1, .L54+16
 1186 00a2 0988     		ldrh	r1, [r1]
 1187 00a4 FFF7FEFF 		bl	aci_gatt_update_char_value_ext
 1188              	.LVL84:
 872:Core/Src/services.c ****             0,
 873:Core/Src/services.c ****             dif_service_handle,
ARM GAS  C:\Users\IAHERN~1\AppData\Local\Temp\ccXgJWoo.s 			page 40


 874:Core/Src/services.c ****             firmware_number_char_handle,
 875:Core/Src/services.c ****             GATT_LOCAL_UPDATE,
 876:Core/Src/services.c ****             20,
 877:Core/Src/services.c ****             0,
 878:Core/Src/services.c ****             sizeof(devInf->fwRevision),
 879:Core/Src/services.c ****             devInf->fwRevision);
 880:Core/Src/services.c **** 
 881:Core/Src/services.c ****       if(ret != BLE_STATUS_SUCCESS)
 1189              		.loc 1 881 7 is_stmt 1 view .LVU286
 1190              		.loc 1 881 9 is_stmt 0 view .LVU287
 1191 00a8 0146     		mov	r1, r0
 1192 00aa 58BB     		cbnz	r0, .L51
 1193              	.LVL85:
 1194              	.L45:
 882:Core/Src/services.c ****       {
 883:Core/Src/services.c ****         BLUENRG_PRINTF("Failed to update (FIRMWARE NUMBER): 0x%02x\r\n", ret);
 884:Core/Src/services.c ****       }
 885:Core/Src/services.c **** 
 886:Core/Src/services.c **** 
 887:Core/Src/services.c ****       ret = aci_gatt_update_char_value_ext(
 1195              		.loc 1 887 7 is_stmt 1 view .LVU288
 1196              		.loc 1 887 13 is_stmt 0 view .LVU289
 1197 00ac 0395     		str	r5, [sp, #12]
 1198 00ae 0423     		movs	r3, #4
 1199 00b0 0293     		str	r3, [sp, #8]
 1200 00b2 0020     		movs	r0, #0
 1201 00b4 0190     		str	r0, [sp, #4]
 1202 00b6 1423     		movs	r3, #20
 1203 00b8 0093     		str	r3, [sp]
 1204 00ba 0346     		mov	r3, r0
 1205 00bc 1E4A     		ldr	r2, .L54+28
 1206 00be 1288     		ldrh	r2, [r2]
 1207 00c0 1A49     		ldr	r1, .L54+16
 1208 00c2 0988     		ldrh	r1, [r1]
 1209 00c4 FFF7FEFF 		bl	aci_gatt_update_char_value_ext
 1210              	.LVL86:
 888:Core/Src/services.c ****             0,
 889:Core/Src/services.c ****             dif_service_handle,
 890:Core/Src/services.c ****             software_number_char_handle,
 891:Core/Src/services.c ****             GATT_LOCAL_UPDATE,
 892:Core/Src/services.c ****             20,
 893:Core/Src/services.c ****             0,
 894:Core/Src/services.c ****             sizeof(devInf->swRevision),
 895:Core/Src/services.c ****             devInf->swRevision);
 896:Core/Src/services.c **** 
 897:Core/Src/services.c ****       if(ret != BLE_STATUS_SUCCESS)
 1211              		.loc 1 897 7 is_stmt 1 view .LVU290
 1212              		.loc 1 897 9 is_stmt 0 view .LVU291
 1213 00c8 0146     		mov	r1, r0
 1214 00ca F8B9     		cbnz	r0, .L52
 1215              	.LVL87:
 1216              	.L46:
 898:Core/Src/services.c ****       {
 899:Core/Src/services.c ****         BLUENRG_PRINTF("Failed to update (SOFTWARE NUMBER): 0x%02x\r\n", ret);
 900:Core/Src/services.c ****       }
 901:Core/Src/services.c **** 
 902:Core/Src/services.c ****       ret = aci_gatt_update_char_value_ext(
ARM GAS  C:\Users\IAHERN~1\AppData\Local\Temp\ccXgJWoo.s 			page 41


 1217              		.loc 1 902 7 is_stmt 1 view .LVU292
 903:Core/Src/services.c ****             0,
 904:Core/Src/services.c ****             dif_service_handle,
 905:Core/Src/services.c ****             pnp_id_char_handle,
 906:Core/Src/services.c ****             GATT_LOCAL_UPDATE,
 907:Core/Src/services.c ****             20,
 908:Core/Src/services.c ****             0,
 909:Core/Src/services.c ****             sizeof(devInf->pnpID),
 910:Core/Src/services.c ****             devInf->pnpID);
 1218              		.loc 1 910 19 is_stmt 0 view .LVU293
 1219 00cc 1534     		adds	r4, r4, #21
 1220              	.LVL88:
 902:Core/Src/services.c ****             0,
 1221              		.loc 1 902 13 view .LVU294
 1222 00ce 0394     		str	r4, [sp, #12]
 1223 00d0 0723     		movs	r3, #7
 1224 00d2 0293     		str	r3, [sp, #8]
 1225 00d4 0020     		movs	r0, #0
 1226 00d6 0190     		str	r0, [sp, #4]
 1227 00d8 1423     		movs	r3, #20
 1228 00da 0093     		str	r3, [sp]
 1229 00dc 0346     		mov	r3, r0
 1230 00de 174A     		ldr	r2, .L54+32
 1231 00e0 1288     		ldrh	r2, [r2]
 1232 00e2 1249     		ldr	r1, .L54+16
 1233 00e4 0988     		ldrh	r1, [r1]
 1234 00e6 FFF7FEFF 		bl	aci_gatt_update_char_value_ext
 1235              	.LVL89:
 911:Core/Src/services.c **** 
 912:Core/Src/services.c ****       if(ret != BLE_STATUS_SUCCESS)
 1236              		.loc 1 912 7 is_stmt 1 view .LVU295
 1237              		.loc 1 912 9 is_stmt 0 view .LVU296
 1238 00ea 0146     		mov	r1, r0
 1239 00ec 90B9     		cbnz	r0, .L53
 1240              	.LVL90:
 1241              	.L42:
 913:Core/Src/services.c ****       {
 914:Core/Src/services.c ****         BLUENRG_PRINTF("Failed to update (PnP ID): 0x%02x\r\n", ret);
 915:Core/Src/services.c ****       }
 916:Core/Src/services.c **** }
 1242              		.loc 1 916 1 view .LVU297
 1243 00ee 05B0     		add	sp, sp, #20
 1244              		.cfi_remember_state
 1245              		.cfi_def_cfa_offset 20
 1246              		@ sp needed
 1247 00f0 F0BD     		pop	{r4, r5, r6, r7, pc}
 1248              	.LVL91:
 1249              	.L49:
 1250              		.cfi_restore_state
 1251              		.loc 1 916 1 view .LVU298
 1252 00f2 0146     		mov	r1, r0
 852:Core/Src/services.c ****       }
 1253              		.loc 1 852 9 is_stmt 1 view .LVU299
 1254 00f4 1248     		ldr	r0, .L54+36
 1255              	.LVL92:
 852:Core/Src/services.c ****       }
 1256              		.loc 1 852 9 is_stmt 0 view .LVU300
ARM GAS  C:\Users\IAHERN~1\AppData\Local\Temp\ccXgJWoo.s 			page 42


 1257 00f6 FFF7FEFF 		bl	printf
 1258              	.LVL93:
 1259 00fa B6E7     		b	.L43
 1260              	.LVL94:
 1261              	.L50:
 867:Core/Src/services.c ****       }
 1262              		.loc 1 867 9 is_stmt 1 view .LVU301
 1263 00fc 1148     		ldr	r0, .L54+40
 1264              	.LVL95:
 867:Core/Src/services.c ****       }
 1265              		.loc 1 867 9 is_stmt 0 view .LVU302
 1266 00fe FFF7FEFF 		bl	printf
 1267              	.LVL96:
 867:Core/Src/services.c ****       }
 1268              		.loc 1 867 9 view .LVU303
 1269 0102 C3E7     		b	.L44
 1270              	.LVL97:
 1271              	.L51:
 883:Core/Src/services.c ****       }
 1272              		.loc 1 883 9 is_stmt 1 view .LVU304
 1273 0104 1048     		ldr	r0, .L54+44
 1274              	.LVL98:
 883:Core/Src/services.c ****       }
 1275              		.loc 1 883 9 is_stmt 0 view .LVU305
 1276 0106 FFF7FEFF 		bl	printf
 1277              	.LVL99:
 883:Core/Src/services.c ****       }
 1278              		.loc 1 883 9 view .LVU306
 1279 010a CFE7     		b	.L45
 1280              	.LVL100:
 1281              	.L52:
 899:Core/Src/services.c ****       }
 1282              		.loc 1 899 9 is_stmt 1 view .LVU307
 1283 010c 0F48     		ldr	r0, .L54+48
 1284              	.LVL101:
 899:Core/Src/services.c ****       }
 1285              		.loc 1 899 9 is_stmt 0 view .LVU308
 1286 010e FFF7FEFF 		bl	printf
 1287              	.LVL102:
 899:Core/Src/services.c ****       }
 1288              		.loc 1 899 9 view .LVU309
 1289 0112 DBE7     		b	.L46
 1290              	.LVL103:
 1291              	.L53:
 914:Core/Src/services.c ****       }
 1292              		.loc 1 914 9 is_stmt 1 view .LVU310
 1293 0114 0E48     		ldr	r0, .L54+52
 1294              	.LVL104:
 914:Core/Src/services.c ****       }
 1295              		.loc 1 914 9 is_stmt 0 view .LVU311
 1296 0116 FFF7FEFF 		bl	printf
 1297              	.LVL105:
 1298              		.loc 1 916 1 view .LVU312
 1299 011a E8E7     		b	.L42
 1300              	.L55:
 1301              		.align	2
 1302              	.L54:
ARM GAS  C:\Users\IAHERN~1\AppData\Local\Temp\ccXgJWoo.s 			page 43


 1303 011c 00000000 		.word	.LC16
 1304 0120 0C000000 		.word	.LC17
 1305 0124 14000000 		.word	.LC18
 1306 0128 00000000 		.word	manufacturer_name_char_handle
 1307 012c 00000000 		.word	dif_service_handle
 1308 0130 00000000 		.word	model_number_char_handle
 1309 0134 00000000 		.word	firmware_number_char_handle
 1310 0138 00000000 		.word	software_number_char_handle
 1311 013c 00000000 		.word	pnp_id_char_handle
 1312 0140 1C000000 		.word	.LC19
 1313 0144 48000000 		.word	.LC20
 1314 0148 74000000 		.word	.LC21
 1315 014c A4000000 		.word	.LC22
 1316 0150 D4000000 		.word	.LC23
 1317              		.cfi_endproc
 1318              	.LFE141:
 1320              		.section	.rodata.addDeviceInformationService.str1.4,"aMS",%progbits,1
 1321              		.align	2
 1322              	.LC24:
 1323 0000 4572726F 		.ascii	"Error in Adding Device Information SERVICE 0x%02x\012"
 1323      7220696E 
 1323      20416464 
 1323      696E6720 
 1323      44657669 
 1324 0032 00       		.ascii	"\000"
 1325 0033 00       		.align	2
 1326              	.LC25:
 1327 0034 4572726F 		.ascii	"Error in Adding Char (MANUFACTURER) for DEVICE INFO"
 1327      7220696E 
 1327      20416464 
 1327      696E6720 
 1327      43686172 
 1328 0067 524D4154 		.ascii	"RMATION SERVICE 0x%02x\012\000"
 1328      494F4E20 
 1328      53455256 
 1328      49434520 
 1328      30782530 
 1329 007f 00       		.align	2
 1330              	.LC26:
 1331 0080 4572726F 		.ascii	"Error in Adding Char (SYSTEM ID) for DEVICE INFORMA"
 1331      7220696E 
 1331      20416464 
 1331      696E6720 
 1331      43686172 
 1332 00b3 54494F4E 		.ascii	"TION SERVICE 0x%02x\012\000"
 1332      20534552 
 1332      56494345 
 1332      20307825 
 1332      3032780A 
 1333              		.align	2
 1334              	.LC27:
 1335 00c8 4572726F 		.ascii	"Error in Adding Char (MODEL NO) for DEVICE INFORMAT"
 1335      7220696E 
 1335      20416464 
 1335      696E6720 
 1335      43686172 
 1336 00fb 494F4E20 		.ascii	"ION SERVICE 0x%02x\012\000"
ARM GAS  C:\Users\IAHERN~1\AppData\Local\Temp\ccXgJWoo.s 			page 44


 1336      53455256 
 1336      49434520 
 1336      30782530 
 1336      32780A00 
 1337 010f 00       		.align	2
 1338              	.LC28:
 1339 0110 4572726F 		.ascii	"Error in Adding Char (SERIAL NO) for DEVICE INFORMA"
 1339      7220696E 
 1339      20416464 
 1339      696E6720 
 1339      43686172 
 1340 0143 54494F4E 		.ascii	"TION SERVICE 0x%02x\012\000"
 1340      20534552 
 1340      56494345 
 1340      20307825 
 1340      3032780A 
 1341              		.align	2
 1342              	.LC29:
 1343 0158 4572726F 		.ascii	"Error in Adding Char (FIRMWARE NO) for DEVICE INFOR"
 1343      7220696E 
 1343      20416464 
 1343      696E6720 
 1343      43686172 
 1344 018b 4D415449 		.ascii	"MATION SERVICE 0x%02x\012\000"
 1344      4F4E2053 
 1344      45525649 
 1344      43452030 
 1344      78253032 
 1345 01a2 0000     		.align	2
 1346              	.LC30:
 1347 01a4 4572726F 		.ascii	"Error in Adding Char (HARDWARE NO) for DEVICE INFOR"
 1347      7220696E 
 1347      20416464 
 1347      696E6720 
 1347      43686172 
 1348 01d7 4D415449 		.ascii	"MATION SERVICE 0x%02x\012\000"
 1348      4F4E2053 
 1348      45525649 
 1348      43452030 
 1348      78253032 
 1349 01ee 0000     		.align	2
 1350              	.LC31:
 1351 01f0 4572726F 		.ascii	"Error in Adding Char (SOFTWARE NO) for DEVICE INFOR"
 1351      7220696E 
 1351      20416464 
 1351      696E6720 
 1351      43686172 
 1352 0223 4D415449 		.ascii	"MATION SERVICE 0x%02x\012\000"
 1352      4F4E2053 
 1352      45525649 
 1352      43452030 
 1352      78253032 
 1353 023a 0000     		.align	2
 1354              	.LC32:
 1355 023c 4572726F 		.ascii	"Error in Adding Char (IEEE CERT) for DEVICE INFORMA"
 1355      7220696E 
 1355      20416464 
ARM GAS  C:\Users\IAHERN~1\AppData\Local\Temp\ccXgJWoo.s 			page 45


 1355      696E6720 
 1355      43686172 
 1356 026f 54494F4E 		.ascii	"TION SERVICE 0x%02x\012\000"
 1356      20534552 
 1356      56494345 
 1356      20307825 
 1356      3032780A 
 1357              		.align	2
 1358              	.LC33:
 1359 0284 4572726F 		.ascii	"Error in Adding Char (PNP ID) for DEVICE INFORMATIO"
 1359      7220696E 
 1359      20416464 
 1359      696E6720 
 1359      43686172 
 1360 02b7 4E205345 		.ascii	"N SERVICE 0x%02x\012\000"
 1360      52564943 
 1360      45203078 
 1360      25303278 
 1360      0A00
 1361 02c9 000000   		.align	2
 1362              	.LC34:
 1363 02cc 44455649 		.ascii	"DEVICE INFORMATION SERVICE COMPLETED!!!\015\000"
 1363      43452049 
 1363      4E464F52 
 1363      4D415449 
 1363      4F4E2053 
 1364              		.section	.text.addDeviceInformationService,"ax",%progbits
 1365              		.align	1
 1366              		.global	addDeviceInformationService
 1367              		.syntax unified
 1368              		.thumb
 1369              		.thumb_func
 1371              	addDeviceInformationService:
 1372              	.LVL106:
 1373              	.LFB139:
 222:Core/Src/services.c **** 
 1374              		.loc 1 222 67 is_stmt 1 view -0
 1375              		.cfi_startproc
 1376              		@ args = 0, pretend = 0, frame = 160
 1377              		@ frame_needed = 0, uses_anonymous_args = 0
 222:Core/Src/services.c **** 
 1378              		.loc 1 222 67 is_stmt 0 view .LVU314
 1379 0000 30B5     		push	{r4, r5, lr}
 1380              		.cfi_def_cfa_offset 12
 1381              		.cfi_offset 4, -12
 1382              		.cfi_offset 5, -8
 1383              		.cfi_offset 14, -4
 1384 0002 AFB0     		sub	sp, sp, #188
 1385              		.cfi_def_cfa_offset 200
 1386 0004 0546     		mov	r5, r0
 224:Core/Src/services.c **** 
 1387              		.loc 1 224 2 is_stmt 1 view .LVU315
 226:Core/Src/services.c ****     Char_UUID_t system_id_char_uuid,
 1388              		.loc 1 226 5 view .LVU316
 227:Core/Src/services.c ****     model_no_char_uuid,
 1389              		.loc 1 227 5 view .LVU317
 236:Core/Src/services.c **** 
ARM GAS  C:\Users\IAHERN~1\AppData\Local\Temp\ccXgJWoo.s 			page 46


 1390              		.loc 1 236 5 view .LVU318
 236:Core/Src/services.c **** 
 1391              		.loc 1 236 45 is_stmt 0 view .LVU319
 1392 0006 41F60A03 		movw	r3, #6154
 1393 000a ADF8A830 		strh	r3, [sp, #168]	@ movhi
 238:Core/Src/services.c ****     model_no_char_uuid.Char_UUID_16=MODEL_NUMBER_UUID;
 1394              		.loc 1 238 5 is_stmt 1 view .LVU320
 238:Core/Src/services.c ****     model_no_char_uuid.Char_UUID_16=MODEL_NUMBER_UUID;
 1395              		.loc 1 238 37 is_stmt 0 view .LVU321
 1396 000e 42F62323 		movw	r3, #10787
 1397 0012 ADF89830 		strh	r3, [sp, #152]	@ movhi
 239:Core/Src/services.c ****     serial_no_char_uuid.Char_UUID_16=SERIAL_NUMBER_UUID;
 1398              		.loc 1 239 5 is_stmt 1 view .LVU322
 239:Core/Src/services.c ****     serial_no_char_uuid.Char_UUID_16=SERIAL_NUMBER_UUID;
 1399              		.loc 1 239 36 is_stmt 0 view .LVU323
 1400 0016 42F62423 		movw	r3, #10788
 1401 001a ADF88830 		strh	r3, [sp, #136]	@ movhi
 240:Core/Src/services.c ****     firmware_no_char_uuid.Char_UUID_16=FIRMWARE_REVISION_UUID;
 1402              		.loc 1 240 5 is_stmt 1 view .LVU324
 240:Core/Src/services.c ****     firmware_no_char_uuid.Char_UUID_16=FIRMWARE_REVISION_UUID;
 1403              		.loc 1 240 37 is_stmt 0 view .LVU325
 1404 001e 42F62523 		movw	r3, #10789
 1405 0022 ADF87830 		strh	r3, [sp, #120]	@ movhi
 241:Core/Src/services.c ****     hardware_no_char_uuid.Char_UUID_16=HARDWARE_REVISION_UUID;
 1406              		.loc 1 241 5 is_stmt 1 view .LVU326
 241:Core/Src/services.c ****     hardware_no_char_uuid.Char_UUID_16=HARDWARE_REVISION_UUID;
 1407              		.loc 1 241 39 is_stmt 0 view .LVU327
 1408 0026 42F62623 		movw	r3, #10790
 1409 002a ADF86830 		strh	r3, [sp, #104]	@ movhi
 242:Core/Src/services.c ****     software_no_char_uuid.Char_UUID_16=SOFTWARE_REVISION_UUID;
 1410              		.loc 1 242 5 is_stmt 1 view .LVU328
 242:Core/Src/services.c ****     software_no_char_uuid.Char_UUID_16=SOFTWARE_REVISION_UUID;
 1411              		.loc 1 242 39 is_stmt 0 view .LVU329
 1412 002e 42F62723 		movw	r3, #10791
 1413 0032 ADF85830 		strh	r3, [sp, #88]	@ movhi
 243:Core/Src/services.c ****     manufacturer_name_char_uuid.Char_UUID_16=MANUFACTURER_NAME_UUID;
 1414              		.loc 1 243 5 is_stmt 1 view .LVU330
 243:Core/Src/services.c ****     manufacturer_name_char_uuid.Char_UUID_16=MANUFACTURER_NAME_UUID;
 1415              		.loc 1 243 39 is_stmt 0 view .LVU331
 1416 0036 42F62823 		movw	r3, #10792
 1417 003a ADF84830 		strh	r3, [sp, #72]	@ movhi
 244:Core/Src/services.c ****     ieee_cert_char_uuid.Char_UUID_16=IEEE_CERTIFICATION_UUID;
 1418              		.loc 1 244 5 is_stmt 1 view .LVU332
 244:Core/Src/services.c ****     ieee_cert_char_uuid.Char_UUID_16=IEEE_CERTIFICATION_UUID;
 1419              		.loc 1 244 45 is_stmt 0 view .LVU333
 1420 003e 42F62923 		movw	r3, #10793
 1421 0042 ADF83830 		strh	r3, [sp, #56]	@ movhi
 245:Core/Src/services.c ****     pnp_id_char_uuid.Char_UUID_16=PNP_ID_UUID;
 1422              		.loc 1 245 5 is_stmt 1 view .LVU334
 245:Core/Src/services.c ****     pnp_id_char_uuid.Char_UUID_16=PNP_ID_UUID;
 1423              		.loc 1 245 37 is_stmt 0 view .LVU335
 1424 0046 42F62A23 		movw	r3, #10794
 1425 004a ADF82830 		strh	r3, [sp, #40]	@ movhi
 246:Core/Src/services.c **** 
 1426              		.loc 1 246 5 is_stmt 1 view .LVU336
 246:Core/Src/services.c **** 
 1427              		.loc 1 246 34 is_stmt 0 view .LVU337
ARM GAS  C:\Users\IAHERN~1\AppData\Local\Temp\ccXgJWoo.s 			page 47


 1428 004e 42F65023 		movw	r3, #10832
 1429 0052 ADF81830 		strh	r3, [sp, #24]	@ movhi
 249:Core/Src/services.c ****     ret = aci_gatt_add_service(UUID_TYPE_16,
 1430              		.loc 1 249 5 is_stmt 1 view .LVU338
 249:Core/Src/services.c ****     ret = aci_gatt_add_service(UUID_TYPE_16,
 1431              		.loc 1 249 32 is_stmt 0 view .LVU339
 1432 0056 1A23     		movs	r3, #26
 1433 0058 924A     		ldr	r2, .L79
 1434 005a 1370     		strb	r3, [r2]
 250:Core/Src/services.c ****                 &device_info_service_uuid,
 1435              		.loc 1 250 5 is_stmt 1 view .LVU340
 250:Core/Src/services.c ****                 &device_info_service_uuid,
 1436              		.loc 1 250 11 is_stmt 0 view .LVU341
 1437 005c 924A     		ldr	r2, .L79+4
 1438 005e 0092     		str	r2, [sp]
 1439 0060 0122     		movs	r2, #1
 1440 0062 2AA9     		add	r1, sp, #168
 1441 0064 1046     		mov	r0, r2
 1442              	.LVL107:
 250:Core/Src/services.c ****                 &device_info_service_uuid,
 1443              		.loc 1 250 11 view .LVU342
 1444 0066 FFF7FEFF 		bl	aci_gatt_add_service
 1445              	.LVL108:
 255:Core/Src/services.c ****     {
 1446              		.loc 1 255 5 is_stmt 1 view .LVU343
 255:Core/Src/services.c ****     {
 1447              		.loc 1 255 8 is_stmt 0 view .LVU344
 1448 006a 0028     		cmp	r0, #0
 1449 006c 40F0E480 		bne	.L69
 261:Core/Src/services.c ****     encrypKeySize = 10;
 1450              		.loc 1 261 5 is_stmt 1 view .LVU345
 261:Core/Src/services.c ****     encrypKeySize = 10;
 1451              		.loc 1 261 21 is_stmt 0 view .LVU346
 1452 0070 1423     		movs	r3, #20
 1453 0072 8E4A     		ldr	r2, .L79+8
 1454 0074 1380     		strh	r3, [r2]	@ movhi
 262:Core/Src/services.c ****     ret = aci_gatt_add_char(dif_service_handle,
 1455              		.loc 1 262 5 is_stmt 1 view .LVU347
 262:Core/Src/services.c ****     ret = aci_gatt_add_char(dif_service_handle,
 1456              		.loc 1 262 19 is_stmt 0 view .LVU348
 1457 0076 0A21     		movs	r1, #10
 1458 0078 8D4A     		ldr	r2, .L79+12
 1459 007a 1170     		strb	r1, [r2]
 263:Core/Src/services.c ****                 UUID_TYPE_16,
 1460              		.loc 1 263 5 is_stmt 1 view .LVU349
 263:Core/Src/services.c ****                 UUID_TYPE_16,
 1461              		.loc 1 263 11 is_stmt 0 view .LVU350
 1462 007c 8D4A     		ldr	r2, .L79+16
 1463 007e 0592     		str	r2, [sp, #20]
 1464 0080 0022     		movs	r2, #0
 1465 0082 0492     		str	r2, [sp, #16]
 1466 0084 0391     		str	r1, [sp, #12]
 1467 0086 0292     		str	r2, [sp, #8]
 1468 0088 0192     		str	r2, [sp, #4]
 1469 008a 0222     		movs	r2, #2
 1470 008c 0092     		str	r2, [sp]
 1471 008e 0EAA     		add	r2, sp, #56
ARM GAS  C:\Users\IAHERN~1\AppData\Local\Temp\ccXgJWoo.s 			page 48


 1472 0090 0121     		movs	r1, #1
 1473 0092 8548     		ldr	r0, .L79+4
 1474              	.LVL109:
 263:Core/Src/services.c ****                 UUID_TYPE_16,
 1475              		.loc 1 263 11 view .LVU351
 1476 0094 0088     		ldrh	r0, [r0]
 1477 0096 FFF7FEFF 		bl	aci_gatt_add_char
 1478              	.LVL110:
 273:Core/Src/services.c ****     {
 1479              		.loc 1 273 5 is_stmt 1 view .LVU352
 273:Core/Src/services.c ****     {
 1480              		.loc 1 273 8 is_stmt 0 view .LVU353
 1481 009a 0446     		mov	r4, r0
 1482 009c 0028     		cmp	r0, #0
 1483 009e 40F0D380 		bne	.L70
 281:Core/Src/services.c ****     encrypKeySize = 10;
 1484              		.loc 1 281 5 is_stmt 1 view .LVU354
 281:Core/Src/services.c ****     encrypKeySize = 10;
 1485              		.loc 1 281 21 is_stmt 0 view .LVU355
 1486 00a2 1423     		movs	r3, #20
 1487 00a4 814A     		ldr	r2, .L79+8
 1488 00a6 1380     		strh	r3, [r2]	@ movhi
 282:Core/Src/services.c ****     ret = aci_gatt_add_char(dif_service_handle,
 1489              		.loc 1 282 5 is_stmt 1 view .LVU356
 282:Core/Src/services.c ****     ret = aci_gatt_add_char(dif_service_handle,
 1490              		.loc 1 282 19 is_stmt 0 view .LVU357
 1491 00a8 0A21     		movs	r1, #10
 1492 00aa 814A     		ldr	r2, .L79+12
 1493 00ac 1170     		strb	r1, [r2]
 283:Core/Src/services.c ****                 UUID_TYPE_16,
 1494              		.loc 1 283 5 is_stmt 1 view .LVU358
 283:Core/Src/services.c ****                 UUID_TYPE_16,
 1495              		.loc 1 283 11 is_stmt 0 view .LVU359
 1496 00ae 824A     		ldr	r2, .L79+20
 1497 00b0 0592     		str	r2, [sp, #20]
 1498 00b2 0022     		movs	r2, #0
 1499 00b4 0492     		str	r2, [sp, #16]
 1500 00b6 0391     		str	r1, [sp, #12]
 1501 00b8 0292     		str	r2, [sp, #8]
 1502 00ba 0192     		str	r2, [sp, #4]
 1503 00bc 0222     		movs	r2, #2
 1504 00be 0092     		str	r2, [sp]
 1505 00c0 26AA     		add	r2, sp, #152
 1506 00c2 0121     		movs	r1, #1
 1507 00c4 7848     		ldr	r0, .L79+4
 1508              	.LVL111:
 283:Core/Src/services.c ****                 UUID_TYPE_16,
 1509              		.loc 1 283 11 view .LVU360
 1510 00c6 0088     		ldrh	r0, [r0]
 1511 00c8 FFF7FEFF 		bl	aci_gatt_add_char
 1512              	.LVL112:
 293:Core/Src/services.c ****     {
 1513              		.loc 1 293 5 is_stmt 1 view .LVU361
 293:Core/Src/services.c ****     {
 1514              		.loc 1 293 8 is_stmt 0 view .LVU362
 1515 00cc 0446     		mov	r4, r0
 1516 00ce 0028     		cmp	r0, #0
ARM GAS  C:\Users\IAHERN~1\AppData\Local\Temp\ccXgJWoo.s 			page 49


 1517 00d0 40F0BF80 		bne	.L71
 300:Core/Src/services.c ****     encrypKeySize = 10;
 1518              		.loc 1 300 5 is_stmt 1 view .LVU363
 300:Core/Src/services.c ****     encrypKeySize = 10;
 1519              		.loc 1 300 21 is_stmt 0 view .LVU364
 1520 00d4 1423     		movs	r3, #20
 1521 00d6 754A     		ldr	r2, .L79+8
 1522 00d8 1380     		strh	r3, [r2]	@ movhi
 301:Core/Src/services.c ****     ret = aci_gatt_add_char(dif_service_handle,
 1523              		.loc 1 301 5 is_stmt 1 view .LVU365
 301:Core/Src/services.c ****     ret = aci_gatt_add_char(dif_service_handle,
 1524              		.loc 1 301 19 is_stmt 0 view .LVU366
 1525 00da 0A21     		movs	r1, #10
 1526 00dc 744A     		ldr	r2, .L79+12
 1527 00de 1170     		strb	r1, [r2]
 302:Core/Src/services.c ****                 UUID_TYPE_16,
 1528              		.loc 1 302 5 is_stmt 1 view .LVU367
 302:Core/Src/services.c ****                 UUID_TYPE_16,
 1529              		.loc 1 302 11 is_stmt 0 view .LVU368
 1530 00e0 764A     		ldr	r2, .L79+24
 1531 00e2 0592     		str	r2, [sp, #20]
 1532 00e4 0022     		movs	r2, #0
 1533 00e6 0492     		str	r2, [sp, #16]
 1534 00e8 0391     		str	r1, [sp, #12]
 1535 00ea 0292     		str	r2, [sp, #8]
 1536 00ec 0192     		str	r2, [sp, #4]
 1537 00ee 0222     		movs	r2, #2
 1538 00f0 0092     		str	r2, [sp]
 1539 00f2 22AA     		add	r2, sp, #136
 1540 00f4 0121     		movs	r1, #1
 1541 00f6 6C48     		ldr	r0, .L79+4
 1542              	.LVL113:
 302:Core/Src/services.c ****                 UUID_TYPE_16,
 1543              		.loc 1 302 11 view .LVU369
 1544 00f8 0088     		ldrh	r0, [r0]
 1545 00fa FFF7FEFF 		bl	aci_gatt_add_char
 1546              	.LVL114:
 312:Core/Src/services.c ****     {
 1547              		.loc 1 312 5 is_stmt 1 view .LVU370
 312:Core/Src/services.c ****     {
 1548              		.loc 1 312 8 is_stmt 0 view .LVU371
 1549 00fe 0446     		mov	r4, r0
 1550 0100 0028     		cmp	r0, #0
 1551 0102 40F0AB80 		bne	.L72
 318:Core/Src/services.c ****     encrypKeySize = 10;
 1552              		.loc 1 318 5 is_stmt 1 view .LVU372
 318:Core/Src/services.c ****     encrypKeySize = 10;
 1553              		.loc 1 318 21 is_stmt 0 view .LVU373
 1554 0106 1423     		movs	r3, #20
 1555 0108 684A     		ldr	r2, .L79+8
 1556 010a 1380     		strh	r3, [r2]	@ movhi
 319:Core/Src/services.c ****     ret = aci_gatt_add_char(dif_service_handle,
 1557              		.loc 1 319 5 is_stmt 1 view .LVU374
 319:Core/Src/services.c ****     ret = aci_gatt_add_char(dif_service_handle,
 1558              		.loc 1 319 19 is_stmt 0 view .LVU375
 1559 010c 0A21     		movs	r1, #10
 1560 010e 684A     		ldr	r2, .L79+12
ARM GAS  C:\Users\IAHERN~1\AppData\Local\Temp\ccXgJWoo.s 			page 50


 1561 0110 1170     		strb	r1, [r2]
 320:Core/Src/services.c ****                 UUID_TYPE_16,
 1562              		.loc 1 320 5 is_stmt 1 view .LVU376
 320:Core/Src/services.c ****                 UUID_TYPE_16,
 1563              		.loc 1 320 11 is_stmt 0 view .LVU377
 1564 0112 6B4A     		ldr	r2, .L79+28
 1565 0114 0592     		str	r2, [sp, #20]
 1566 0116 0022     		movs	r2, #0
 1567 0118 0492     		str	r2, [sp, #16]
 1568 011a 0391     		str	r1, [sp, #12]
 1569 011c 0292     		str	r2, [sp, #8]
 1570 011e 0192     		str	r2, [sp, #4]
 1571 0120 0222     		movs	r2, #2
 1572 0122 0092     		str	r2, [sp]
 1573 0124 1EAA     		add	r2, sp, #120
 1574 0126 0121     		movs	r1, #1
 1575 0128 5F48     		ldr	r0, .L79+4
 1576              	.LVL115:
 320:Core/Src/services.c ****                 UUID_TYPE_16,
 1577              		.loc 1 320 11 view .LVU378
 1578 012a 0088     		ldrh	r0, [r0]
 1579 012c FFF7FEFF 		bl	aci_gatt_add_char
 1580              	.LVL116:
 330:Core/Src/services.c ****     {
 1581              		.loc 1 330 5 is_stmt 1 view .LVU379
 330:Core/Src/services.c ****     {
 1582              		.loc 1 330 8 is_stmt 0 view .LVU380
 1583 0130 0446     		mov	r4, r0
 1584 0132 0028     		cmp	r0, #0
 1585 0134 40F09780 		bne	.L73
 336:Core/Src/services.c ****     encrypKeySize = 10;
 1586              		.loc 1 336 5 is_stmt 1 view .LVU381
 336:Core/Src/services.c ****     encrypKeySize = 10;
 1587              		.loc 1 336 21 is_stmt 0 view .LVU382
 1588 0138 1423     		movs	r3, #20
 1589 013a 5C4A     		ldr	r2, .L79+8
 1590 013c 1380     		strh	r3, [r2]	@ movhi
 337:Core/Src/services.c ****     ret = aci_gatt_add_char(dif_service_handle,
 1591              		.loc 1 337 5 is_stmt 1 view .LVU383
 337:Core/Src/services.c ****     ret = aci_gatt_add_char(dif_service_handle,
 1592              		.loc 1 337 19 is_stmt 0 view .LVU384
 1593 013e 0A21     		movs	r1, #10
 1594 0140 5B4A     		ldr	r2, .L79+12
 1595 0142 1170     		strb	r1, [r2]
 338:Core/Src/services.c ****                 UUID_TYPE_16,
 1596              		.loc 1 338 5 is_stmt 1 view .LVU385
 338:Core/Src/services.c ****                 UUID_TYPE_16,
 1597              		.loc 1 338 11 is_stmt 0 view .LVU386
 1598 0144 5F4A     		ldr	r2, .L79+32
 1599 0146 0592     		str	r2, [sp, #20]
 1600 0148 0022     		movs	r2, #0
 1601 014a 0492     		str	r2, [sp, #16]
 1602 014c 0391     		str	r1, [sp, #12]
 1603 014e 0292     		str	r2, [sp, #8]
 1604 0150 0192     		str	r2, [sp, #4]
 1605 0152 0222     		movs	r2, #2
 1606 0154 0092     		str	r2, [sp]
ARM GAS  C:\Users\IAHERN~1\AppData\Local\Temp\ccXgJWoo.s 			page 51


 1607 0156 1AAA     		add	r2, sp, #104
 1608 0158 0121     		movs	r1, #1
 1609 015a 5348     		ldr	r0, .L79+4
 1610              	.LVL117:
 338:Core/Src/services.c ****                 UUID_TYPE_16,
 1611              		.loc 1 338 11 view .LVU387
 1612 015c 0088     		ldrh	r0, [r0]
 1613 015e FFF7FEFF 		bl	aci_gatt_add_char
 1614              	.LVL118:
 348:Core/Src/services.c ****     {
 1615              		.loc 1 348 5 is_stmt 1 view .LVU388
 348:Core/Src/services.c ****     {
 1616              		.loc 1 348 8 is_stmt 0 view .LVU389
 1617 0162 0446     		mov	r4, r0
 1618 0164 0028     		cmp	r0, #0
 1619 0166 40F08380 		bne	.L74
 354:Core/Src/services.c ****     encrypKeySize = 10;
 1620              		.loc 1 354 5 is_stmt 1 view .LVU390
 354:Core/Src/services.c ****     encrypKeySize = 10;
 1621              		.loc 1 354 21 is_stmt 0 view .LVU391
 1622 016a 1423     		movs	r3, #20
 1623 016c 4F4A     		ldr	r2, .L79+8
 1624 016e 1380     		strh	r3, [r2]	@ movhi
 355:Core/Src/services.c ****     ret = aci_gatt_add_char(dif_service_handle,
 1625              		.loc 1 355 5 is_stmt 1 view .LVU392
 355:Core/Src/services.c ****     ret = aci_gatt_add_char(dif_service_handle,
 1626              		.loc 1 355 19 is_stmt 0 view .LVU393
 1627 0170 0A21     		movs	r1, #10
 1628 0172 4F4A     		ldr	r2, .L79+12
 1629 0174 1170     		strb	r1, [r2]
 356:Core/Src/services.c ****                 UUID_TYPE_16,
 1630              		.loc 1 356 5 is_stmt 1 view .LVU394
 356:Core/Src/services.c ****                 UUID_TYPE_16,
 1631              		.loc 1 356 11 is_stmt 0 view .LVU395
 1632 0176 544A     		ldr	r2, .L79+36
 1633 0178 0592     		str	r2, [sp, #20]
 1634 017a 0022     		movs	r2, #0
 1635 017c 0492     		str	r2, [sp, #16]
 1636 017e 0391     		str	r1, [sp, #12]
 1637 0180 0292     		str	r2, [sp, #8]
 1638 0182 0192     		str	r2, [sp, #4]
 1639 0184 0222     		movs	r2, #2
 1640 0186 0092     		str	r2, [sp]
 1641 0188 16AA     		add	r2, sp, #88
 1642 018a 0121     		movs	r1, #1
 1643 018c 4648     		ldr	r0, .L79+4
 1644              	.LVL119:
 356:Core/Src/services.c ****                 UUID_TYPE_16,
 1645              		.loc 1 356 11 view .LVU396
 1646 018e 0088     		ldrh	r0, [r0]
 1647 0190 FFF7FEFF 		bl	aci_gatt_add_char
 1648              	.LVL120:
 366:Core/Src/services.c ****     {
 1649              		.loc 1 366 5 is_stmt 1 view .LVU397
 366:Core/Src/services.c ****     {
 1650              		.loc 1 366 8 is_stmt 0 view .LVU398
 1651 0194 0446     		mov	r4, r0
ARM GAS  C:\Users\IAHERN~1\AppData\Local\Temp\ccXgJWoo.s 			page 52


 1652 0196 0028     		cmp	r0, #0
 1653 0198 6FD1     		bne	.L75
 374:Core/Src/services.c ****     encrypKeySize = 10;
 1654              		.loc 1 374 5 is_stmt 1 view .LVU399
 374:Core/Src/services.c ****     encrypKeySize = 10;
 1655              		.loc 1 374 21 is_stmt 0 view .LVU400
 1656 019a 1423     		movs	r3, #20
 1657 019c 434A     		ldr	r2, .L79+8
 1658 019e 1380     		strh	r3, [r2]	@ movhi
 375:Core/Src/services.c ****     ret = aci_gatt_add_char(dif_service_handle,
 1659              		.loc 1 375 5 is_stmt 1 view .LVU401
 375:Core/Src/services.c ****     ret = aci_gatt_add_char(dif_service_handle,
 1660              		.loc 1 375 19 is_stmt 0 view .LVU402
 1661 01a0 0A21     		movs	r1, #10
 1662 01a2 434A     		ldr	r2, .L79+12
 1663 01a4 1170     		strb	r1, [r2]
 376:Core/Src/services.c ****                 UUID_TYPE_16,
 1664              		.loc 1 376 5 is_stmt 1 view .LVU403
 376:Core/Src/services.c ****                 UUID_TYPE_16,
 1665              		.loc 1 376 11 is_stmt 0 view .LVU404
 1666 01a6 494A     		ldr	r2, .L79+40
 1667 01a8 0592     		str	r2, [sp, #20]
 1668 01aa 0022     		movs	r2, #0
 1669 01ac 0492     		str	r2, [sp, #16]
 1670 01ae 0391     		str	r1, [sp, #12]
 1671 01b0 0292     		str	r2, [sp, #8]
 1672 01b2 0192     		str	r2, [sp, #4]
 1673 01b4 0222     		movs	r2, #2
 1674 01b6 0092     		str	r2, [sp]
 1675 01b8 12AA     		add	r2, sp, #72
 1676 01ba 0121     		movs	r1, #1
 1677 01bc 3A48     		ldr	r0, .L79+4
 1678              	.LVL121:
 376:Core/Src/services.c ****                 UUID_TYPE_16,
 1679              		.loc 1 376 11 view .LVU405
 1680 01be 0088     		ldrh	r0, [r0]
 1681 01c0 FFF7FEFF 		bl	aci_gatt_add_char
 1682              	.LVL122:
 386:Core/Src/services.c ****     {
 1683              		.loc 1 386 5 is_stmt 1 view .LVU406
 386:Core/Src/services.c ****     {
 1684              		.loc 1 386 8 is_stmt 0 view .LVU407
 1685 01c4 0446     		mov	r4, r0
 1686 01c6 0028     		cmp	r0, #0
 1687 01c8 5CD1     		bne	.L76
 393:Core/Src/services.c ****     encrypKeySize = 10;
 1688              		.loc 1 393 5 is_stmt 1 view .LVU408
 393:Core/Src/services.c ****     encrypKeySize = 10;
 1689              		.loc 1 393 21 is_stmt 0 view .LVU409
 1690 01ca 1423     		movs	r3, #20
 1691 01cc 374A     		ldr	r2, .L79+8
 1692 01ce 1380     		strh	r3, [r2]	@ movhi
 394:Core/Src/services.c ****     ret = aci_gatt_add_char(dif_service_handle,
 1693              		.loc 1 394 5 is_stmt 1 view .LVU410
 394:Core/Src/services.c ****     ret = aci_gatt_add_char(dif_service_handle,
 1694              		.loc 1 394 19 is_stmt 0 view .LVU411
 1695 01d0 0A21     		movs	r1, #10
ARM GAS  C:\Users\IAHERN~1\AppData\Local\Temp\ccXgJWoo.s 			page 53


 1696 01d2 374A     		ldr	r2, .L79+12
 1697 01d4 1170     		strb	r1, [r2]
 395:Core/Src/services.c ****                 UUID_TYPE_16,
 1698              		.loc 1 395 5 is_stmt 1 view .LVU412
 395:Core/Src/services.c ****                 UUID_TYPE_16,
 1699              		.loc 1 395 11 is_stmt 0 view .LVU413
 1700 01d6 3E4A     		ldr	r2, .L79+44
 1701 01d8 0592     		str	r2, [sp, #20]
 1702 01da 0022     		movs	r2, #0
 1703 01dc 0492     		str	r2, [sp, #16]
 1704 01de 0391     		str	r1, [sp, #12]
 1705 01e0 0292     		str	r2, [sp, #8]
 1706 01e2 0192     		str	r2, [sp, #4]
 1707 01e4 0222     		movs	r2, #2
 1708 01e6 0092     		str	r2, [sp]
 1709 01e8 0AAA     		add	r2, sp, #40
 1710 01ea 0121     		movs	r1, #1
 1711 01ec 2E48     		ldr	r0, .L79+4
 1712              	.LVL123:
 395:Core/Src/services.c ****                 UUID_TYPE_16,
 1713              		.loc 1 395 11 view .LVU414
 1714 01ee 0088     		ldrh	r0, [r0]
 1715 01f0 FFF7FEFF 		bl	aci_gatt_add_char
 1716              	.LVL124:
 405:Core/Src/services.c ****     {
 1717              		.loc 1 405 5 is_stmt 1 view .LVU415
 405:Core/Src/services.c ****     {
 1718              		.loc 1 405 8 is_stmt 0 view .LVU416
 1719 01f4 0446     		mov	r4, r0
 1720 01f6 0028     		cmp	r0, #0
 1721 01f8 49D1     		bne	.L77
 411:Core/Src/services.c ****     encrypKeySize = 10;
 1722              		.loc 1 411 5 is_stmt 1 view .LVU417
 411:Core/Src/services.c ****     encrypKeySize = 10;
 1723              		.loc 1 411 21 is_stmt 0 view .LVU418
 1724 01fa 1423     		movs	r3, #20
 1725 01fc 2B4A     		ldr	r2, .L79+8
 1726 01fe 1380     		strh	r3, [r2]	@ movhi
 412:Core/Src/services.c ****     ret = aci_gatt_add_char(dif_service_handle,
 1727              		.loc 1 412 5 is_stmt 1 view .LVU419
 412:Core/Src/services.c ****     ret = aci_gatt_add_char(dif_service_handle,
 1728              		.loc 1 412 19 is_stmt 0 view .LVU420
 1729 0200 0A21     		movs	r1, #10
 1730 0202 2B4A     		ldr	r2, .L79+12
 1731 0204 1170     		strb	r1, [r2]
 413:Core/Src/services.c ****                 UUID_TYPE_16,
 1732              		.loc 1 413 5 is_stmt 1 view .LVU421
 413:Core/Src/services.c ****                 UUID_TYPE_16,
 1733              		.loc 1 413 11 is_stmt 0 view .LVU422
 1734 0206 334A     		ldr	r2, .L79+48
 1735 0208 0592     		str	r2, [sp, #20]
 1736 020a 0022     		movs	r2, #0
 1737 020c 0492     		str	r2, [sp, #16]
 1738 020e 0391     		str	r1, [sp, #12]
 1739 0210 0292     		str	r2, [sp, #8]
 1740 0212 0192     		str	r2, [sp, #4]
 1741 0214 0222     		movs	r2, #2
ARM GAS  C:\Users\IAHERN~1\AppData\Local\Temp\ccXgJWoo.s 			page 54


 1742 0216 0092     		str	r2, [sp]
 1743 0218 06AA     		add	r2, sp, #24
 1744 021a 0121     		movs	r1, #1
 1745 021c 2248     		ldr	r0, .L79+4
 1746              	.LVL125:
 413:Core/Src/services.c ****                 UUID_TYPE_16,
 1747              		.loc 1 413 11 view .LVU423
 1748 021e 0088     		ldrh	r0, [r0]
 1749 0220 FFF7FEFF 		bl	aci_gatt_add_char
 1750              	.LVL126:
 423:Core/Src/services.c ****     {
 1751              		.loc 1 423 5 is_stmt 1 view .LVU424
 423:Core/Src/services.c ****     {
 1752              		.loc 1 423 8 is_stmt 0 view .LVU425
 1753 0224 0446     		mov	r4, r0
 1754 0226 0028     		cmp	r0, #0
 1755 0228 36D1     		bne	.L78
 430:Core/Src/services.c ****     BLUENRG_PRINTF("DEVICE INFORMATION SERVICE COMPLETED!!!\r\n");
 1756              		.loc 1 430 5 is_stmt 1 view .LVU426
 1757 022a 2846     		mov	r0, r5
 1758              	.LVL127:
 430:Core/Src/services.c ****     BLUENRG_PRINTF("DEVICE INFORMATION SERVICE COMPLETED!!!\r\n");
 1759              		.loc 1 430 5 is_stmt 0 view .LVU427
 1760 022c FFF7FEFF 		bl	updateDIService
 1761              	.LVL128:
 431:Core/Src/services.c ****     return BLE_STATUS_SUCCESS;
 1762              		.loc 1 431 5 is_stmt 1 view .LVU428
 1763 0230 2948     		ldr	r0, .L79+52
 1764 0232 FFF7FEFF 		bl	puts
 1765              	.LVL129:
 432:Core/Src/services.c **** }
 1766              		.loc 1 432 5 view .LVU429
 432:Core/Src/services.c **** }
 1767              		.loc 1 432 12 is_stmt 0 view .LVU430
 1768 0236 04E0     		b	.L58
 1769              	.LVL130:
 1770              	.L69:
 432:Core/Src/services.c **** }
 1771              		.loc 1 432 12 view .LVU431
 1772 0238 0446     		mov	r4, r0
 257:Core/Src/services.c ****        return ret;
 1773              		.loc 1 257 8 is_stmt 1 view .LVU432
 1774 023a 0146     		mov	r1, r0
 1775 023c 2748     		ldr	r0, .L79+56
 1776              	.LVL131:
 257:Core/Src/services.c ****        return ret;
 1777              		.loc 1 257 8 is_stmt 0 view .LVU433
 1778 023e FFF7FEFF 		bl	printf
 1779              	.LVL132:
 258:Core/Src/services.c ****     }
 1780              		.loc 1 258 8 is_stmt 1 view .LVU434
 1781              	.L58:
 433:Core/Src/services.c **** 
 1782              		.loc 1 433 1 is_stmt 0 view .LVU435
 1783 0242 2046     		mov	r0, r4
 1784 0244 2FB0     		add	sp, sp, #188
 1785              		.cfi_remember_state
ARM GAS  C:\Users\IAHERN~1\AppData\Local\Temp\ccXgJWoo.s 			page 55


 1786              		.cfi_def_cfa_offset 12
 1787              		@ sp needed
 1788 0246 30BD     		pop	{r4, r5, pc}
 1789              	.LVL133:
 1790              	.L70:
 1791              		.cfi_restore_state
 275:Core/Src/services.c ****         return ret;
 1792              		.loc 1 275 9 is_stmt 1 view .LVU436
 1793 0248 0146     		mov	r1, r0
 1794 024a 2548     		ldr	r0, .L79+60
 1795              	.LVL134:
 275:Core/Src/services.c ****         return ret;
 1796              		.loc 1 275 9 is_stmt 0 view .LVU437
 1797 024c FFF7FEFF 		bl	printf
 1798              	.LVL135:
 276:Core/Src/services.c ****     }
 1799              		.loc 1 276 9 is_stmt 1 view .LVU438
 276:Core/Src/services.c ****     }
 1800              		.loc 1 276 16 is_stmt 0 view .LVU439
 1801 0250 F7E7     		b	.L58
 1802              	.LVL136:
 1803              	.L71:
 295:Core/Src/services.c ****         return ret;
 1804              		.loc 1 295 9 is_stmt 1 view .LVU440
 1805 0252 0146     		mov	r1, r0
 1806 0254 2348     		ldr	r0, .L79+64
 1807              	.LVL137:
 295:Core/Src/services.c ****         return ret;
 1808              		.loc 1 295 9 is_stmt 0 view .LVU441
 1809 0256 FFF7FEFF 		bl	printf
 1810              	.LVL138:
 296:Core/Src/services.c ****     }
 1811              		.loc 1 296 9 is_stmt 1 view .LVU442
 296:Core/Src/services.c ****     }
 1812              		.loc 1 296 16 is_stmt 0 view .LVU443
 1813 025a F2E7     		b	.L58
 1814              	.LVL139:
 1815              	.L72:
 314:Core/Src/services.c ****         return ret;
 1816              		.loc 1 314 9 is_stmt 1 view .LVU444
 1817 025c 0146     		mov	r1, r0
 1818 025e 2248     		ldr	r0, .L79+68
 1819              	.LVL140:
 314:Core/Src/services.c ****         return ret;
 1820              		.loc 1 314 9 is_stmt 0 view .LVU445
 1821 0260 FFF7FEFF 		bl	printf
 1822              	.LVL141:
 315:Core/Src/services.c ****     }
 1823              		.loc 1 315 9 is_stmt 1 view .LVU446
 315:Core/Src/services.c ****     }
 1824              		.loc 1 315 16 is_stmt 0 view .LVU447
 1825 0264 EDE7     		b	.L58
 1826              	.LVL142:
 1827              	.L73:
 332:Core/Src/services.c ****         return ret;
 1828              		.loc 1 332 9 is_stmt 1 view .LVU448
 1829 0266 0146     		mov	r1, r0
ARM GAS  C:\Users\IAHERN~1\AppData\Local\Temp\ccXgJWoo.s 			page 56


 1830 0268 2048     		ldr	r0, .L79+72
 1831              	.LVL143:
 332:Core/Src/services.c ****         return ret;
 1832              		.loc 1 332 9 is_stmt 0 view .LVU449
 1833 026a FFF7FEFF 		bl	printf
 1834              	.LVL144:
 333:Core/Src/services.c ****     }
 1835              		.loc 1 333 9 is_stmt 1 view .LVU450
 333:Core/Src/services.c ****     }
 1836              		.loc 1 333 16 is_stmt 0 view .LVU451
 1837 026e E8E7     		b	.L58
 1838              	.LVL145:
 1839              	.L74:
 350:Core/Src/services.c ****         return ret;
 1840              		.loc 1 350 9 is_stmt 1 view .LVU452
 1841 0270 0146     		mov	r1, r0
 1842 0272 1F48     		ldr	r0, .L79+76
 1843              	.LVL146:
 350:Core/Src/services.c ****         return ret;
 1844              		.loc 1 350 9 is_stmt 0 view .LVU453
 1845 0274 FFF7FEFF 		bl	printf
 1846              	.LVL147:
 351:Core/Src/services.c ****     }
 1847              		.loc 1 351 9 is_stmt 1 view .LVU454
 351:Core/Src/services.c ****     }
 1848              		.loc 1 351 16 is_stmt 0 view .LVU455
 1849 0278 E3E7     		b	.L58
 1850              	.LVL148:
 1851              	.L75:
 368:Core/Src/services.c ****         return ret;
 1852              		.loc 1 368 9 is_stmt 1 view .LVU456
 1853 027a 0146     		mov	r1, r0
 1854 027c 1D48     		ldr	r0, .L79+80
 1855              	.LVL149:
 368:Core/Src/services.c ****         return ret;
 1856              		.loc 1 368 9 is_stmt 0 view .LVU457
 1857 027e FFF7FEFF 		bl	printf
 1858              	.LVL150:
 369:Core/Src/services.c ****     }
 1859              		.loc 1 369 9 is_stmt 1 view .LVU458
 369:Core/Src/services.c ****     }
 1860              		.loc 1 369 16 is_stmt 0 view .LVU459
 1861 0282 DEE7     		b	.L58
 1862              	.LVL151:
 1863              	.L76:
 388:Core/Src/services.c ****         return ret;
 1864              		.loc 1 388 9 is_stmt 1 view .LVU460
 1865 0284 0146     		mov	r1, r0
 1866 0286 1C48     		ldr	r0, .L79+84
 1867              	.LVL152:
 388:Core/Src/services.c ****         return ret;
 1868              		.loc 1 388 9 is_stmt 0 view .LVU461
 1869 0288 FFF7FEFF 		bl	printf
 1870              	.LVL153:
 389:Core/Src/services.c ****     }
 1871              		.loc 1 389 9 is_stmt 1 view .LVU462
 389:Core/Src/services.c ****     }
ARM GAS  C:\Users\IAHERN~1\AppData\Local\Temp\ccXgJWoo.s 			page 57


 1872              		.loc 1 389 16 is_stmt 0 view .LVU463
 1873 028c D9E7     		b	.L58
 1874              	.LVL154:
 1875              	.L77:
 407:Core/Src/services.c ****         return ret;
 1876              		.loc 1 407 9 is_stmt 1 view .LVU464
 1877 028e 0146     		mov	r1, r0
 1878 0290 1A48     		ldr	r0, .L79+88
 1879              	.LVL155:
 407:Core/Src/services.c ****         return ret;
 1880              		.loc 1 407 9 is_stmt 0 view .LVU465
 1881 0292 FFF7FEFF 		bl	printf
 1882              	.LVL156:
 408:Core/Src/services.c ****     }
 1883              		.loc 1 408 9 is_stmt 1 view .LVU466
 408:Core/Src/services.c ****     }
 1884              		.loc 1 408 16 is_stmt 0 view .LVU467
 1885 0296 D4E7     		b	.L58
 1886              	.LVL157:
 1887              	.L78:
 425:Core/Src/services.c ****         return ret;
 1888              		.loc 1 425 9 is_stmt 1 view .LVU468
 1889 0298 0146     		mov	r1, r0
 1890 029a 1948     		ldr	r0, .L79+92
 1891              	.LVL158:
 425:Core/Src/services.c ****         return ret;
 1892              		.loc 1 425 9 is_stmt 0 view .LVU469
 1893 029c FFF7FEFF 		bl	printf
 1894              	.LVL159:
 426:Core/Src/services.c ****     }
 1895              		.loc 1 426 9 is_stmt 1 view .LVU470
 426:Core/Src/services.c ****     }
 1896              		.loc 1 426 16 is_stmt 0 view .LVU471
 1897 02a0 CFE7     		b	.L58
 1898              	.L80:
 1899 02a2 00BF     		.align	2
 1900              	.L79:
 1901 02a4 00000000 		.word	serviceMaxAttributeRecords
 1902 02a8 00000000 		.word	dif_service_handle
 1903 02ac 00000000 		.word	charValueLength
 1904 02b0 00000000 		.word	encrypKeySize
 1905 02b4 00000000 		.word	manufacturer_name_char_handle
 1906 02b8 00000000 		.word	system_id_char_handle
 1907 02bc 00000000 		.word	model_number_char_handle
 1908 02c0 00000000 		.word	serial_number_char_handle
 1909 02c4 00000000 		.word	firmware_number_char_handle
 1910 02c8 00000000 		.word	hardware_number_char_handle
 1911 02cc 00000000 		.word	software_number_char_handle
 1912 02d0 00000000 		.word	ieee_certification_char_handle
 1913 02d4 00000000 		.word	pnp_id_char_handle
 1914 02d8 CC020000 		.word	.LC34
 1915 02dc 00000000 		.word	.LC24
 1916 02e0 34000000 		.word	.LC25
 1917 02e4 80000000 		.word	.LC26
 1918 02e8 C8000000 		.word	.LC27
 1919 02ec 10010000 		.word	.LC28
 1920 02f0 58010000 		.word	.LC29
ARM GAS  C:\Users\IAHERN~1\AppData\Local\Temp\ccXgJWoo.s 			page 58


 1921 02f4 A4010000 		.word	.LC30
 1922 02f8 F0010000 		.word	.LC31
 1923 02fc 3C020000 		.word	.LC32
 1924 0300 84020000 		.word	.LC33
 1925              		.cfi_endproc
 1926              	.LFE139:
 1928              		.section	.rodata.hidAddServices.str1.4,"aMS",%progbits,1
 1929              		.align	2
 1930              	.LC35:
 1931 0000 4552524F 		.ascii	"ERROR IN ADDING BATTERY SERVICE\015\000"
 1931      5220494E 
 1931      20414444 
 1931      494E4720 
 1931      42415454 
 1932 0021 000000   		.align	2
 1933              	.LC36:
 1934 0024 4552524F 		.ascii	"ERROR IN ADDING DEVICE INFORMATION SERVICE\015\000"
 1934      5220494E 
 1934      20414444 
 1934      494E4720 
 1934      44455649 
 1935              		.align	2
 1936              	.LC37:
 1937 0050 4552524F 		.ascii	"ERROR IN ADDING HUMAN INTERFACE SERVICE\015\000"
 1937      5220494E 
 1937      20414444 
 1937      494E4720 
 1937      48554D41 
 1938              		.section	.text.hidAddServices,"ax",%progbits
 1939              		.align	1
 1940              		.global	hidAddServices
 1941              		.syntax unified
 1942              		.thumb
 1943              		.thumb_func
 1945              	hidAddServices:
 1946              	.LVL160:
 1947              	.LFB137:
 112:Core/Src/services.c **** 
 1948              		.loc 1 112 51 is_stmt 1 view -0
 1949              		.cfi_startproc
 1950              		@ args = 0, pretend = 0, frame = 0
 1951              		@ frame_needed = 0, uses_anonymous_args = 0
 112:Core/Src/services.c **** 
 1952              		.loc 1 112 51 is_stmt 0 view .LVU473
 1953 0000 38B5     		push	{r3, r4, r5, lr}
 1954              		.cfi_def_cfa_offset 16
 1955              		.cfi_offset 3, -16
 1956              		.cfi_offset 4, -12
 1957              		.cfi_offset 5, -8
 1958              		.cfi_offset 14, -4
 1959 0002 0446     		mov	r4, r0
 114:Core/Src/services.c **** 
 1960              		.loc 1 114 2 is_stmt 1 view .LVU474
 116:Core/Src/services.c ****     if(ret != BLE_STATUS_SUCCESS){
 1961              		.loc 1 116 5 view .LVU475
 116:Core/Src/services.c ****     if(ret != BLE_STATUS_SUCCESS){
 1962              		.loc 1 116 11 is_stmt 0 view .LVU476
ARM GAS  C:\Users\IAHERN~1\AppData\Local\Temp\ccXgJWoo.s 			page 59


 1963 0004 FFF7FEFF 		bl	addBatteryService
 1964              	.LVL161:
 117:Core/Src/services.c ****     	BLUENRG_PRINTF("ERROR IN ADDING BATTERY SERVICE\r\n");
 1965              		.loc 1 117 5 is_stmt 1 view .LVU477
 117:Core/Src/services.c ****     	BLUENRG_PRINTF("ERROR IN ADDING BATTERY SERVICE\r\n");
 1966              		.loc 1 117 7 is_stmt 0 view .LVU478
 1967 0008 50B9     		cbnz	r0, .L86
 122:Core/Src/services.c ****     if(ret != BLE_STATUS_SUCCESS){
 1968              		.loc 1 122 5 is_stmt 1 view .LVU479
 122:Core/Src/services.c ****     if(ret != BLE_STATUS_SUCCESS){
 1969              		.loc 1 122 11 is_stmt 0 view .LVU480
 1970 000a 2046     		mov	r0, r4
 1971              	.LVL162:
 122:Core/Src/services.c ****     if(ret != BLE_STATUS_SUCCESS){
 1972              		.loc 1 122 11 view .LVU481
 1973 000c FFF7FEFF 		bl	addDeviceInformationService
 1974              	.LVL163:
 123:Core/Src/services.c ****         	BLUENRG_PRINTF("ERROR IN ADDING DEVICE INFORMATION SERVICE\r\n");
 1975              		.loc 1 123 5 is_stmt 1 view .LVU482
 123:Core/Src/services.c ****         	BLUENRG_PRINTF("ERROR IN ADDING DEVICE INFORMATION SERVICE\r\n");
 1976              		.loc 1 123 7 is_stmt 0 view .LVU483
 1977 0010 0546     		mov	r5, r0
 1978 0012 50B9     		cbnz	r0, .L87
 128:Core/Src/services.c ****     if(ret != BLE_STATUS_SUCCESS){
 1979              		.loc 1 128 5 is_stmt 1 view .LVU484
 128:Core/Src/services.c ****     if(ret != BLE_STATUS_SUCCESS){
 1980              		.loc 1 128 11 is_stmt 0 view .LVU485
 1981 0014 FFF7FEFF 		bl	addHumanInterfaceService
 1982              	.LVL164:
 129:Core/Src/services.c ****         	BLUENRG_PRINTF("ERROR IN ADDING HUMAN INTERFACE SERVICE\r\n");
 1983              		.loc 1 129 5 is_stmt 1 view .LVU486
 129:Core/Src/services.c ****         	BLUENRG_PRINTF("ERROR IN ADDING HUMAN INTERFACE SERVICE\r\n");
 1984              		.loc 1 129 7 is_stmt 0 view .LVU487
 1985 0018 0546     		mov	r5, r0
 1986 001a 50B9     		cbnz	r0, .L88
 1987              	.LVL165:
 1988              	.L83:
 135:Core/Src/services.c **** 
 1989              		.loc 1 135 1 view .LVU488
 1990 001c 2846     		mov	r0, r5
 1991 001e 38BD     		pop	{r3, r4, r5, pc}
 1992              	.LVL166:
 1993              	.L86:
 135:Core/Src/services.c **** 
 1994              		.loc 1 135 1 view .LVU489
 1995 0020 0546     		mov	r5, r0
 118:Core/Src/services.c ****     	return ret;
 1996              		.loc 1 118 6 is_stmt 1 view .LVU490
 1997 0022 0648     		ldr	r0, .L89
 1998              	.LVL167:
 118:Core/Src/services.c ****     	return ret;
 1999              		.loc 1 118 6 is_stmt 0 view .LVU491
 2000 0024 FFF7FEFF 		bl	puts
 2001              	.LVL168:
 119:Core/Src/services.c ****     }
 2002              		.loc 1 119 6 is_stmt 1 view .LVU492
 119:Core/Src/services.c ****     }
ARM GAS  C:\Users\IAHERN~1\AppData\Local\Temp\ccXgJWoo.s 			page 60


 2003              		.loc 1 119 13 is_stmt 0 view .LVU493
 2004 0028 F8E7     		b	.L83
 2005              	.LVL169:
 2006              	.L87:
 124:Core/Src/services.c ****         	return ret;
 2007              		.loc 1 124 10 is_stmt 1 view .LVU494
 2008 002a 0548     		ldr	r0, .L89+4
 2009              	.LVL170:
 124:Core/Src/services.c ****         	return ret;
 2010              		.loc 1 124 10 is_stmt 0 view .LVU495
 2011 002c FFF7FEFF 		bl	puts
 2012              	.LVL171:
 125:Core/Src/services.c ****         }
 2013              		.loc 1 125 10 is_stmt 1 view .LVU496
 125:Core/Src/services.c ****         }
 2014              		.loc 1 125 17 is_stmt 0 view .LVU497
 2015 0030 F4E7     		b	.L83
 2016              	.LVL172:
 2017              	.L88:
 130:Core/Src/services.c ****         	return ret;
 2018              		.loc 1 130 10 is_stmt 1 view .LVU498
 2019 0032 0448     		ldr	r0, .L89+8
 2020              	.LVL173:
 130:Core/Src/services.c ****         	return ret;
 2021              		.loc 1 130 10 is_stmt 0 view .LVU499
 2022 0034 FFF7FEFF 		bl	puts
 2023              	.LVL174:
 131:Core/Src/services.c ****         }
 2024              		.loc 1 131 10 is_stmt 1 view .LVU500
 131:Core/Src/services.c ****         }
 2025              		.loc 1 131 17 is_stmt 0 view .LVU501
 2026 0038 F0E7     		b	.L83
 2027              	.L90:
 2028 003a 00BF     		.align	2
 2029              	.L89:
 2030 003c 00000000 		.word	.LC35
 2031 0040 24000000 		.word	.LC36
 2032 0044 50000000 		.word	.LC37
 2033              		.cfi_endproc
 2034              	.LFE137:
 2036              		.global	reportDesc
 2037              		.section	.data.reportDesc,"aw"
 2038              		.align	2
 2041              	reportDesc:
 2042 0000 05010906 		.ascii	"\005\001\011\006\241\001\005\007\031\340)\347\025\000"
 2042      A1010507 
 2042      19E029E7 
 2042      1500
 2043 000e 25017501 		.ascii	"%\001u\001\225\010\201\002\225\001u\010\201\001\225"
 2043      95088102 
 2043      95017508 
 2043      810195
 2044 001d 05750105 		.ascii	"\005u\001\005\010\031\001)\005\221\002\225\001u\003"
 2044      08190129 
 2044      05910295 
 2044      017503
 2045 002c 91039506 		.ascii	"\221\003\225\006u\010\025\000%e\005\007\031\000)e\201"
ARM GAS  C:\Users\IAHERN~1\AppData\Local\Temp\ccXgJWoo.s 			page 61


 2045      75081500 
 2045      25650507 
 2045      19002965 
 2045      81
 2046 003d 00C0     		.ascii	"\000\300"
 2047              		.global	charValueLength
 2048              		.section	.bss.charValueLength,"aw",%nobits
 2049              		.align	1
 2052              	charValueLength:
 2053 0000 0000     		.space	2
 2054              		.global	encrypKeySize
 2055              		.section	.bss.encrypKeySize,"aw",%nobits
 2058              	encrypKeySize:
 2059 0000 00       		.space	1
 2060              		.global	serviceMaxAttributeRecords
 2061              		.section	.bss.serviceMaxAttributeRecords,"aw",%nobits
 2064              	serviceMaxAttributeRecords:
 2065 0000 00       		.space	1
 2066              		.global	external_Report_Descriptor_handle
 2067              		.section	.bss.external_Report_Descriptor_handle,"aw",%nobits
 2068              		.align	1
 2071              	external_Report_Descriptor_handle:
 2072 0000 0000     		.space	2
 2073              		.global	report_reference_char_descriptor_handle_feature
 2074              		.section	.bss.report_reference_char_descriptor_handle_feature,"aw",%nobits
 2075              		.align	1
 2078              	report_reference_char_descriptor_handle_feature:
 2079 0000 0000     		.space	2
 2080              		.global	report_reference_char_descriptor_handle_output
 2081              		.section	.bss.report_reference_char_descriptor_handle_output,"aw",%nobits
 2082              		.align	1
 2085              	report_reference_char_descriptor_handle_output:
 2086 0000 0000     		.space	2
 2087              		.global	report_reference_char_descriptor_handle_input
 2088              		.section	.bss.report_reference_char_descriptor_handle_input,"aw",%nobits
 2089              		.align	1
 2092              	report_reference_char_descriptor_handle_input:
 2093 0000 0000     		.space	2
 2094              		.global	client_char_config_descriptor_handle
 2095              		.section	.bss.client_char_config_descriptor_handle,"aw",%nobits
 2096              		.align	1
 2099              	client_char_config_descriptor_handle:
 2100 0000 0000     		.space	2
 2101              		.global	hid_control_point_char_handle
 2102              		.section	.bss.hid_control_point_char_handle,"aw",%nobits
 2103              		.align	1
 2106              	hid_control_point_char_handle:
 2107 0000 0000     		.space	2
 2108              		.global	hid_info_char_handle
 2109              		.section	.bss.hid_info_char_handle,"aw",%nobits
 2110              		.align	1
 2113              	hid_info_char_handle:
 2114 0000 0000     		.space	2
 2115              		.global	boot_keyboard_output_char_handle
 2116              		.section	.bss.boot_keyboard_output_char_handle,"aw",%nobits
 2117              		.align	1
 2120              	boot_keyboard_output_char_handle:
ARM GAS  C:\Users\IAHERN~1\AppData\Local\Temp\ccXgJWoo.s 			page 62


 2121 0000 0000     		.space	2
 2122              		.global	boot_keyboard_input_char_handle
 2123              		.section	.bss.boot_keyboard_input_char_handle,"aw",%nobits
 2124              		.align	1
 2127              	boot_keyboard_input_char_handle:
 2128 0000 0000     		.space	2
 2129              		.global	report_map_char_handle
 2130              		.section	.bss.report_map_char_handle,"aw",%nobits
 2131              		.align	1
 2134              	report_map_char_handle:
 2135 0000 0000     		.space	2
 2136              		.global	feature_report_char_handle
 2137              		.section	.bss.feature_report_char_handle,"aw",%nobits
 2138              		.align	1
 2141              	feature_report_char_handle:
 2142 0000 0000     		.space	2
 2143              		.global	output_report_char_handle
 2144              		.section	.bss.output_report_char_handle,"aw",%nobits
 2145              		.align	1
 2148              	output_report_char_handle:
 2149 0000 0000     		.space	2
 2150              		.global	input_report_char_handle
 2151              		.section	.bss.input_report_char_handle,"aw",%nobits
 2152              		.align	1
 2155              	input_report_char_handle:
 2156 0000 0000     		.space	2
 2157              		.global	protocol_mode_char_handle
 2158              		.section	.bss.protocol_mode_char_handle,"aw",%nobits
 2159              		.align	1
 2162              	protocol_mode_char_handle:
 2163 0000 0000     		.space	2
 2164              		.global	hid_service_handle
 2165              		.section	.bss.hid_service_handle,"aw",%nobits
 2166              		.align	1
 2169              	hid_service_handle:
 2170 0000 0000     		.space	2
 2171              		.global	pnp_id_char_handle
 2172              		.section	.bss.pnp_id_char_handle,"aw",%nobits
 2173              		.align	1
 2176              	pnp_id_char_handle:
 2177 0000 0000     		.space	2
 2178              		.global	ieee_certification_char_handle
 2179              		.section	.bss.ieee_certification_char_handle,"aw",%nobits
 2180              		.align	1
 2183              	ieee_certification_char_handle:
 2184 0000 0000     		.space	2
 2185              		.global	manufacturer_name_char_handle
 2186              		.section	.bss.manufacturer_name_char_handle,"aw",%nobits
 2187              		.align	1
 2190              	manufacturer_name_char_handle:
 2191 0000 0000     		.space	2
 2192              		.global	software_number_char_handle
 2193              		.section	.bss.software_number_char_handle,"aw",%nobits
 2194              		.align	1
 2197              	software_number_char_handle:
 2198 0000 0000     		.space	2
 2199              		.global	hardware_number_char_handle
ARM GAS  C:\Users\IAHERN~1\AppData\Local\Temp\ccXgJWoo.s 			page 63


 2200              		.section	.bss.hardware_number_char_handle,"aw",%nobits
 2201              		.align	1
 2204              	hardware_number_char_handle:
 2205 0000 0000     		.space	2
 2206              		.global	firmware_number_char_handle
 2207              		.section	.bss.firmware_number_char_handle,"aw",%nobits
 2208              		.align	1
 2211              	firmware_number_char_handle:
 2212 0000 0000     		.space	2
 2213              		.global	serial_number_char_handle
 2214              		.section	.bss.serial_number_char_handle,"aw",%nobits
 2215              		.align	1
 2218              	serial_number_char_handle:
 2219 0000 0000     		.space	2
 2220              		.global	model_number_char_handle
 2221              		.section	.bss.model_number_char_handle,"aw",%nobits
 2222              		.align	1
 2225              	model_number_char_handle:
 2226 0000 0000     		.space	2
 2227              		.global	system_id_char_handle
 2228              		.section	.bss.system_id_char_handle,"aw",%nobits
 2229              		.align	1
 2232              	system_id_char_handle:
 2233 0000 0000     		.space	2
 2234              		.global	dif_service_handle
 2235              		.section	.bss.dif_service_handle,"aw",%nobits
 2236              		.align	1
 2239              	dif_service_handle:
 2240 0000 0000     		.space	2
 2241              		.global	BATTERY_client_char_config_desc
 2242              		.section	.bss.BATTERY_client_char_config_desc,"aw",%nobits
 2243              		.align	1
 2246              	BATTERY_client_char_config_desc:
 2247 0000 0000     		.space	2
 2248              		.global	battery_level_char_handle
 2249              		.section	.bss.battery_level_char_handle,"aw",%nobits
 2250              		.align	1
 2253              	battery_level_char_handle:
 2254 0000 0000     		.space	2
 2255              		.global	battery_service_handle
 2256              		.section	.bss.battery_service_handle,"aw",%nobits
 2257              		.align	1
 2260              	battery_service_handle:
 2261 0000 0000     		.space	2
 2262              		.text
 2263              	.Letext0:
 2264              		.file 2 "C:/Users/iahernandez/AppData/Roaming/Code/User/globalStorage/bmd.stm32-for-vscode/@xpack-
 2265              		.file 3 "C:/Users/iahernandez/AppData/Roaming/Code/User/globalStorage/bmd.stm32-for-vscode/@xpack-
 2266              		.file 4 "C:/Users/iahernandez/AppData/Roaming/Code/User/globalStorage/bmd.stm32-for-vscode/@xpack-
 2267              		.file 5 "Middlewares/ST/BlueNRG-2/includes/bluenrg1_types.h"
 2268              		.file 6 "Middlewares/ST/BlueNRG-2/includes/bluenrg1_gatt_aci.h"
 2269              		.file 7 "Core/Inc/services.h"
 2270              		.file 8 "C:/Users/iahernandez/AppData/Roaming/Code/User/globalStorage/bmd.stm32-for-vscode/@xpack-
 2271              		.file 9 "C:/Users/iahernandez/AppData/Roaming/Code/User/globalStorage/bmd.stm32-for-vscode/@xpack-
 2272              		.file 10 "<built-in>"
ARM GAS  C:\Users\IAHERN~1\AppData\Local\Temp\ccXgJWoo.s 			page 64

